ARM GAS  /tmp/cciqVpdV.s 			page 1


   1              		.cpu cortex-m7
   2              		.arch armv7e-m
   3              		.fpu fpv5-d16
   4              		.eabi_attribute 28, 1
   5              		.eabi_attribute 20, 1
   6              		.eabi_attribute 21, 1
   7              		.eabi_attribute 23, 3
   8              		.eabi_attribute 24, 1
   9              		.eabi_attribute 25, 1
  10              		.eabi_attribute 26, 1
  11              		.eabi_attribute 30, 2
  12              		.eabi_attribute 34, 1
  13              		.eabi_attribute 18, 4
  14              		.file	"Neptune.cpp"
  15              		.text
  16              	.Ltext0:
  17              		.cfi_sections	.debug_frame
  18              		.file 1 "Neptune.cpp"
  19              		.section	.text._ZN5daisy10DaisyPetalD2Ev,"axG",%progbits,_ZN5daisy10DaisyPetalD5Ev,comdat
  20              		.align	1
  21              		.p2align 2,,3
  22              		.weak	_ZN5daisy10DaisyPetalD2Ev
  23              		.syntax unified
  24              		.thumb
  25              		.thumb_func
  27              	_ZN5daisy10DaisyPetalD2Ev:
  28              	.LVL0:
  29              	.LFB3538:
  30              		.file 2 "../../libDaisy/src/daisy_petal.h"
   1:../../libDaisy/src/daisy_petal.h **** #pragma once
   2:../../libDaisy/src/daisy_petal.h **** #ifndef DSY_PETAL_H
   3:../../libDaisy/src/daisy_petal.h **** #define DSY_PETAL_H /**< & */
   4:../../libDaisy/src/daisy_petal.h **** 
   5:../../libDaisy/src/daisy_petal.h **** #include "daisy_seed.h"
   6:../../libDaisy/src/daisy_petal.h **** 
   7:../../libDaisy/src/daisy_petal.h **** namespace daisy
   8:../../libDaisy/src/daisy_petal.h **** {
   9:../../libDaisy/src/daisy_petal.h **** /**
  10:../../libDaisy/src/daisy_petal.h ****    @brief Helpers and hardware definitions for daisy petal.
  11:../../libDaisy/src/daisy_petal.h ****    @ingroup boards
  12:../../libDaisy/src/daisy_petal.h **** */
  13:../../libDaisy/src/daisy_petal.h **** class DaisyPetal
  14:../../libDaisy/src/daisy_petal.h **** {
  15:../../libDaisy/src/daisy_petal.h ****   public:
  16:../../libDaisy/src/daisy_petal.h ****     /** Switches */
  17:../../libDaisy/src/daisy_petal.h ****     enum Sw
  18:../../libDaisy/src/daisy_petal.h ****     {
  19:../../libDaisy/src/daisy_petal.h ****         SW_1,    /**< Footswitch */
  20:../../libDaisy/src/daisy_petal.h ****         SW_2,    /**< Footswitch */
  21:../../libDaisy/src/daisy_petal.h ****         SW_3,    /**< Footswitch */
  22:../../libDaisy/src/daisy_petal.h ****         SW_4,    /**< Footswitch */
  23:../../libDaisy/src/daisy_petal.h ****         SW_5,    /**< Toggle */
  24:../../libDaisy/src/daisy_petal.h ****         SW_6,    /**< Toggle */
  25:../../libDaisy/src/daisy_petal.h ****         SW_7,    /**< Toggle */
  26:../../libDaisy/src/daisy_petal.h ****         SW_LAST, /**< Last enum item */
  27:../../libDaisy/src/daisy_petal.h ****     };
  28:../../libDaisy/src/daisy_petal.h **** 
ARM GAS  /tmp/cciqVpdV.s 			page 2


  29:../../libDaisy/src/daisy_petal.h ****     /** Knobs */
  30:../../libDaisy/src/daisy_petal.h ****     enum Knob
  31:../../libDaisy/src/daisy_petal.h ****     {
  32:../../libDaisy/src/daisy_petal.h ****         KNOB_1,    /**< & */
  33:../../libDaisy/src/daisy_petal.h ****         KNOB_2,    /**< & */
  34:../../libDaisy/src/daisy_petal.h ****         KNOB_3,    /**< & */
  35:../../libDaisy/src/daisy_petal.h ****         KNOB_4,    /**< & */
  36:../../libDaisy/src/daisy_petal.h ****         KNOB_5,    /**< & */
  37:../../libDaisy/src/daisy_petal.h ****         KNOB_6,    /**< & */
  38:../../libDaisy/src/daisy_petal.h ****         KNOB_LAST, /**< & */
  39:../../libDaisy/src/daisy_petal.h ****     };
  40:../../libDaisy/src/daisy_petal.h **** 
  41:../../libDaisy/src/daisy_petal.h ****     /** Leds in ringled */
  42:../../libDaisy/src/daisy_petal.h ****     enum RingLed
  43:../../libDaisy/src/daisy_petal.h ****     {
  44:../../libDaisy/src/daisy_petal.h ****         RING_LED_1,   /**< & */
  45:../../libDaisy/src/daisy_petal.h ****         RING_LED_2,   /**< & */
  46:../../libDaisy/src/daisy_petal.h ****         RING_LED_3,   /**< & */
  47:../../libDaisy/src/daisy_petal.h ****         RING_LED_4,   /**< & */
  48:../../libDaisy/src/daisy_petal.h ****         RING_LED_5,   /**< & */
  49:../../libDaisy/src/daisy_petal.h ****         RING_LED_6,   /**< & */
  50:../../libDaisy/src/daisy_petal.h ****         RING_LED_7,   /**< & */
  51:../../libDaisy/src/daisy_petal.h ****         RING_LED_8,   /**< & */
  52:../../libDaisy/src/daisy_petal.h ****         RING_LED_LAST /**< & */
  53:../../libDaisy/src/daisy_petal.h ****     };
  54:../../libDaisy/src/daisy_petal.h **** 
  55:../../libDaisy/src/daisy_petal.h ****     /** footswitch leds */
  56:../../libDaisy/src/daisy_petal.h ****     enum FootswitchLed
  57:../../libDaisy/src/daisy_petal.h ****     {
  58:../../libDaisy/src/daisy_petal.h ****         FOOTSWITCH_LED_1,    /**< & */
  59:../../libDaisy/src/daisy_petal.h ****         FOOTSWITCH_LED_2,    /**< & */
  60:../../libDaisy/src/daisy_petal.h ****         FOOTSWITCH_LED_3,    /**< & */
  61:../../libDaisy/src/daisy_petal.h ****         FOOTSWITCH_LED_4,    /**< & */
  62:../../libDaisy/src/daisy_petal.h ****         FOOTSWITCH_LED_LAST, /**< & */
  63:../../libDaisy/src/daisy_petal.h ****     };
  64:../../libDaisy/src/daisy_petal.h **** 
  65:../../libDaisy/src/daisy_petal.h ****     /** Constructor */
  66:../../libDaisy/src/daisy_petal.h ****     DaisyPetal() {}
  67:../../libDaisy/src/daisy_petal.h ****     /** Destructor */
  68:../../libDaisy/src/daisy_petal.h ****     ~DaisyPetal() {}
  31              		.loc 2 68 5 view -0
  32              		.cfi_startproc
  33              		@ args = 0, pretend = 0, frame = 0
  34              		@ frame_needed = 0, uses_anonymous_args = 0
  35              		@ link register save eliminated.
  36              	.LBB275:
  37              	.LBB276:
  38              	.LBI276:
  39              		.file 3 "../../libDaisy/src/hid/ctrl.h"
   1:../../libDaisy/src/hid/ctrl.h **** #pragma once
   2:../../libDaisy/src/hid/ctrl.h **** #ifndef DSY_KNOB_H
   3:../../libDaisy/src/hid/ctrl.h **** #define DSY_KNOB_H /**< & */
   4:../../libDaisy/src/hid/ctrl.h **** #include <stdint.h>
   5:../../libDaisy/src/hid/ctrl.h **** 
   6:../../libDaisy/src/hid/ctrl.h **** #ifdef __cplusplus
   7:../../libDaisy/src/hid/ctrl.h **** namespace daisy
   8:../../libDaisy/src/hid/ctrl.h **** {
ARM GAS  /tmp/cciqVpdV.s 			page 3


   9:../../libDaisy/src/hid/ctrl.h **** /**
  10:../../libDaisy/src/hid/ctrl.h ****     @brief Hardware Interface for control inputs \n 
  11:../../libDaisy/src/hid/ctrl.h ****     Primarily designed for ADC input controls such as \n 
  12:../../libDaisy/src/hid/ctrl.h ****     potentiometers, and control voltage. \n 
  13:../../libDaisy/src/hid/ctrl.h ****     @author Stephen Hensley
  14:../../libDaisy/src/hid/ctrl.h ****     @date November 2019
  15:../../libDaisy/src/hid/ctrl.h ****     @ingroup controls
  16:../../libDaisy/src/hid/ctrl.h **** */
  17:../../libDaisy/src/hid/ctrl.h **** class AnalogControl
  18:../../libDaisy/src/hid/ctrl.h **** {
  19:../../libDaisy/src/hid/ctrl.h ****   public:
  20:../../libDaisy/src/hid/ctrl.h ****     /** Constructor */
  21:../../libDaisy/src/hid/ctrl.h ****     AnalogControl() {}
  22:../../libDaisy/src/hid/ctrl.h ****     /** destructor */
  23:../../libDaisy/src/hid/ctrl.h ****     ~AnalogControl() {}
  40              		.loc 3 23 5 view .LVU1
  41              		.loc 3 23 5 is_stmt 0 view .LVU2
  42              	.LBE276:
  43              	.LBB277:
  44              	.LBI277:
  45              		.file 4 "../../libDaisy/src/hid/encoder.h"
   1:../../libDaisy/src/hid/encoder.h **** #pragma once
   2:../../libDaisy/src/hid/encoder.h **** #ifndef DSY_ENCODER_H
   3:../../libDaisy/src/hid/encoder.h **** #define DSY_ENCODER_H
   4:../../libDaisy/src/hid/encoder.h **** #include "daisy_core.h"
   5:../../libDaisy/src/hid/encoder.h **** #include "per/gpio.h"
   6:../../libDaisy/src/hid/encoder.h **** #include "hid/switch.h"
   7:../../libDaisy/src/hid/encoder.h **** 
   8:../../libDaisy/src/hid/encoder.h **** namespace daisy
   9:../../libDaisy/src/hid/encoder.h **** {
  10:../../libDaisy/src/hid/encoder.h **** /** 
  11:../../libDaisy/src/hid/encoder.h ****     @brief Generic Class for handling Quadrature Encoders \n 
  12:../../libDaisy/src/hid/encoder.h ****     Inspired/influenced by Mutable Instruments (pichenettes) Encoder classes
  13:../../libDaisy/src/hid/encoder.h ****     @author Stephen Hensley
  14:../../libDaisy/src/hid/encoder.h ****     @date December 2019
  15:../../libDaisy/src/hid/encoder.h ****     @ingroup controls
  16:../../libDaisy/src/hid/encoder.h **** */
  17:../../libDaisy/src/hid/encoder.h **** class Encoder
  18:../../libDaisy/src/hid/encoder.h **** {
  19:../../libDaisy/src/hid/encoder.h ****   public:
  20:../../libDaisy/src/hid/encoder.h ****     Encoder() {}
  21:../../libDaisy/src/hid/encoder.h ****     ~Encoder() {}
  46              		.loc 4 21 5 is_stmt 1 view .LVU3
  47              	.LBB278:
  48              	.LBI278:
  49              		.file 5 "../../libDaisy/src/hid/switch.h"
   1:../../libDaisy/src/hid/switch.h **** #pragma once
   2:../../libDaisy/src/hid/switch.h **** #ifndef DSY_SWITCH_H
   3:../../libDaisy/src/hid/switch.h **** #define DSY_SWITCH_H
   4:../../libDaisy/src/hid/switch.h **** #include "daisy_core.h"
   5:../../libDaisy/src/hid/switch.h **** #include "per/gpio.h"
   6:../../libDaisy/src/hid/switch.h **** #include "sys/system.h"
   7:../../libDaisy/src/hid/switch.h **** 
   8:../../libDaisy/src/hid/switch.h **** namespace daisy
   9:../../libDaisy/src/hid/switch.h **** {
  10:../../libDaisy/src/hid/switch.h **** /** 
  11:../../libDaisy/src/hid/switch.h ****     Generic Class for handling momentary/latching switches \n 
ARM GAS  /tmp/cciqVpdV.s 			page 4


  12:../../libDaisy/src/hid/switch.h ****     Inspired/influenced by Mutable Instruments (pichenettes) Switch classes
  13:../../libDaisy/src/hid/switch.h ****     @author Stephen Hensley
  14:../../libDaisy/src/hid/switch.h ****     @date December 2019
  15:../../libDaisy/src/hid/switch.h ****     @ingroup controls
  16:../../libDaisy/src/hid/switch.h **** */
  17:../../libDaisy/src/hid/switch.h **** class Switch
  18:../../libDaisy/src/hid/switch.h **** {
  19:../../libDaisy/src/hid/switch.h ****   public:
  20:../../libDaisy/src/hid/switch.h ****     /** Specifies the expected behavior of the switch */
  21:../../libDaisy/src/hid/switch.h ****     enum Type
  22:../../libDaisy/src/hid/switch.h ****     {
  23:../../libDaisy/src/hid/switch.h ****         TYPE_TOGGLE,    /**< & */
  24:../../libDaisy/src/hid/switch.h ****         TYPE_MOMENTARY, /**< & */
  25:../../libDaisy/src/hid/switch.h ****     };
  26:../../libDaisy/src/hid/switch.h ****     /** Specifies whether the pressed is HIGH or LOW. */
  27:../../libDaisy/src/hid/switch.h ****     enum Polarity
  28:../../libDaisy/src/hid/switch.h ****     {
  29:../../libDaisy/src/hid/switch.h ****         POLARITY_NORMAL,   /**< & */
  30:../../libDaisy/src/hid/switch.h ****         POLARITY_INVERTED, /**< & */
  31:../../libDaisy/src/hid/switch.h ****     };
  32:../../libDaisy/src/hid/switch.h **** 
  33:../../libDaisy/src/hid/switch.h ****     /** Specifies whether to use built-in Pull Up/Down resistors to hold button at a given state wh
  34:../../libDaisy/src/hid/switch.h ****     enum Pull
  35:../../libDaisy/src/hid/switch.h ****     {
  36:../../libDaisy/src/hid/switch.h ****         PULL_UP,   /**< & */
  37:../../libDaisy/src/hid/switch.h ****         PULL_DOWN, /**< & */
  38:../../libDaisy/src/hid/switch.h ****         PULL_NONE, /**< & */
  39:../../libDaisy/src/hid/switch.h ****     };
  40:../../libDaisy/src/hid/switch.h **** 
  41:../../libDaisy/src/hid/switch.h ****     Switch() {}
  42:../../libDaisy/src/hid/switch.h ****     ~Switch() {}
  50              		.loc 5 42 5 view .LVU4
  51              		.loc 5 42 5 is_stmt 0 view .LVU5
  52              	.LBE278:
  53              	.LBE277:
  54              	.LBB279:
  55              	.LBI279:
  56              		.file 6 "../../libDaisy/src/daisy_seed.h"
   1:../../libDaisy/src/daisy_seed.h **** #pragma once
   2:../../libDaisy/src/daisy_seed.h **** #ifndef DSY_SEED_H
   3:../../libDaisy/src/daisy_seed.h **** #define DSY_SEED_H
   4:../../libDaisy/src/daisy_seed.h **** 
   5:../../libDaisy/src/daisy_seed.h **** #include "daisy.h"
   6:../../libDaisy/src/daisy_seed.h **** 
   7:../../libDaisy/src/daisy_seed.h **** //Uncomment this out if you're still using the rev2 hardware
   8:../../libDaisy/src/daisy_seed.h **** //#define SEED_REV2
   9:../../libDaisy/src/daisy_seed.h **** 
  10:../../libDaisy/src/daisy_seed.h **** namespace daisy
  11:../../libDaisy/src/daisy_seed.h **** {
  12:../../libDaisy/src/daisy_seed.h **** /**
  13:../../libDaisy/src/daisy_seed.h ****    @brief This is the higher-level interface for the Daisy board. \n 
  14:../../libDaisy/src/daisy_seed.h ****     All basic peripheral configuration/initialization is setup here. \n
  15:../../libDaisy/src/daisy_seed.h **** 
  16:../../libDaisy/src/daisy_seed.h ****    @ingroup boards
  17:../../libDaisy/src/daisy_seed.h **** */
  18:../../libDaisy/src/daisy_seed.h **** class DaisySeed
  19:../../libDaisy/src/daisy_seed.h **** {
ARM GAS  /tmp/cciqVpdV.s 			page 5


  20:../../libDaisy/src/daisy_seed.h ****   public:
  21:../../libDaisy/src/daisy_seed.h ****     DaisySeed() {}
  22:../../libDaisy/src/daisy_seed.h ****     ~DaisySeed() {}
  57              		.loc 6 22 5 is_stmt 1 view .LVU6
  58              	.LBB280:
  59              	.LBI280:
  60              		.file 7 "../../libDaisy/src/sys/system.h"
   1:../../libDaisy/src/sys/system.h **** #ifndef DSY_SYSTEM_H
   2:../../libDaisy/src/sys/system.h **** #define DSY_SYSTEM_H
   3:../../libDaisy/src/sys/system.h **** 
   4:../../libDaisy/src/sys/system.h **** #ifndef UNIT_TEST // for unit tests, a dummy implementation is provided below
   5:../../libDaisy/src/sys/system.h **** 
   6:../../libDaisy/src/sys/system.h **** #include <cstdint>
   7:../../libDaisy/src/sys/system.h **** #include "per/tim.h"
   8:../../libDaisy/src/sys/system.h **** 
   9:../../libDaisy/src/sys/system.h **** namespace daisy
  10:../../libDaisy/src/sys/system.h **** {
  11:../../libDaisy/src/sys/system.h **** /** A handle for interacting with the Core System.
  12:../../libDaisy/src/sys/system.h ****  ** This includes the Clock tree, MPU, global DMA initialization,
  13:../../libDaisy/src/sys/system.h ****  ** cache handling, and any other necessary global initiailzation
  14:../../libDaisy/src/sys/system.h ****  **
  15:../../libDaisy/src/sys/system.h ****  ** @author shensley
  16:../../libDaisy/src/sys/system.h ****  ** @ingroup system
  17:../../libDaisy/src/sys/system.h ****  */
  18:../../libDaisy/src/sys/system.h **** class System
  19:../../libDaisy/src/sys/system.h **** {
  20:../../libDaisy/src/sys/system.h ****   public:
  21:../../libDaisy/src/sys/system.h ****     /** Contains settings for initializing the System */
  22:../../libDaisy/src/sys/system.h ****     struct Config
  23:../../libDaisy/src/sys/system.h ****     {
  24:../../libDaisy/src/sys/system.h ****         /** Specifies the system clock frequency that feeds APB/AHB clocks, etc. */
  25:../../libDaisy/src/sys/system.h ****         enum class SysClkFreq
  26:../../libDaisy/src/sys/system.h ****         {
  27:../../libDaisy/src/sys/system.h ****             FREQ_400MHZ,
  28:../../libDaisy/src/sys/system.h ****             FREQ_480MHZ,
  29:../../libDaisy/src/sys/system.h ****         };
  30:../../libDaisy/src/sys/system.h **** 
  31:../../libDaisy/src/sys/system.h ****         /** Method to call on the struct to set to defaults
  32:../../libDaisy/src/sys/system.h ****          ** CPU Freq set to 400MHz
  33:../../libDaisy/src/sys/system.h ****          ** Cache Enabled
  34:../../libDaisy/src/sys/system.h ****          ** */
  35:../../libDaisy/src/sys/system.h ****         void Defaults()
  36:../../libDaisy/src/sys/system.h ****         {
  37:../../libDaisy/src/sys/system.h ****             cpu_freq    = SysClkFreq::FREQ_400MHZ;
  38:../../libDaisy/src/sys/system.h ****             use_dcache  = true;
  39:../../libDaisy/src/sys/system.h ****             use_icache  = true;
  40:../../libDaisy/src/sys/system.h ****             skip_clocks = false;
  41:../../libDaisy/src/sys/system.h ****         }
  42:../../libDaisy/src/sys/system.h **** 
  43:../../libDaisy/src/sys/system.h ****         /** Method to call on the struct to set to boost mode:
  44:../../libDaisy/src/sys/system.h ****          ** CPU Freq set to 480MHz
  45:../../libDaisy/src/sys/system.h ****          ** Cache Enabled
  46:../../libDaisy/src/sys/system.h ****          ** */
  47:../../libDaisy/src/sys/system.h ****         void Boost()
  48:../../libDaisy/src/sys/system.h ****         {
  49:../../libDaisy/src/sys/system.h ****             cpu_freq    = SysClkFreq::FREQ_480MHZ;
  50:../../libDaisy/src/sys/system.h ****             use_dcache  = true;
ARM GAS  /tmp/cciqVpdV.s 			page 6


  51:../../libDaisy/src/sys/system.h ****             use_icache  = true;
  52:../../libDaisy/src/sys/system.h ****             skip_clocks = false;
  53:../../libDaisy/src/sys/system.h ****         }
  54:../../libDaisy/src/sys/system.h **** 
  55:../../libDaisy/src/sys/system.h ****         SysClkFreq cpu_freq;
  56:../../libDaisy/src/sys/system.h ****         bool       use_dcache;
  57:../../libDaisy/src/sys/system.h ****         bool       use_icache;
  58:../../libDaisy/src/sys/system.h ****         bool       skip_clocks;
  59:../../libDaisy/src/sys/system.h ****     };
  60:../../libDaisy/src/sys/system.h **** 
  61:../../libDaisy/src/sys/system.h ****     /** Describes the different regions of memory available to the Daisy */
  62:../../libDaisy/src/sys/system.h ****     enum MemoryRegion
  63:../../libDaisy/src/sys/system.h ****     {
  64:../../libDaisy/src/sys/system.h ****         INTERNAL_FLASH = 0,
  65:../../libDaisy/src/sys/system.h ****         ITCMRAM,
  66:../../libDaisy/src/sys/system.h ****         DTCMRAM,
  67:../../libDaisy/src/sys/system.h ****         SRAM_D1,
  68:../../libDaisy/src/sys/system.h ****         SRAM_D2,
  69:../../libDaisy/src/sys/system.h ****         SRAM_D3,
  70:../../libDaisy/src/sys/system.h ****         SDRAM,
  71:../../libDaisy/src/sys/system.h ****         QSPI,
  72:../../libDaisy/src/sys/system.h ****         INVALID_ADDRESS,
  73:../../libDaisy/src/sys/system.h ****     };
  74:../../libDaisy/src/sys/system.h **** 
  75:../../libDaisy/src/sys/system.h ****     /** Bootloader struct for controlling bootloading parameters */
  76:../../libDaisy/src/sys/system.h ****     struct BootInfo
  77:../../libDaisy/src/sys/system.h ****     {
  78:../../libDaisy/src/sys/system.h ****         enum class Type : uint32_t
  79:../../libDaisy/src/sys/system.h ****         {
  80:../../libDaisy/src/sys/system.h ****             INVALID      = 0x00000000,
  81:../../libDaisy/src/sys/system.h ****             JUMP         = 0xDEADBEEF,
  82:../../libDaisy/src/sys/system.h ****             SKIP_TIMEOUT = 0x5AFEB007,
  83:../../libDaisy/src/sys/system.h ****             INF_TIMEOUT  = 0xB0074EFA,
  84:../../libDaisy/src/sys/system.h ****         } status;
  85:../../libDaisy/src/sys/system.h ****         uint32_t data;
  86:../../libDaisy/src/sys/system.h ****         enum class Version : uint32_t
  87:../../libDaisy/src/sys/system.h ****         {
  88:../../libDaisy/src/sys/system.h ****             LT_v6_0 = 0, // Less than v6.0
  89:../../libDaisy/src/sys/system.h ****             NONE,        // No bootloader present
  90:../../libDaisy/src/sys/system.h ****             v6_0,        // v6.0
  91:../../libDaisy/src/sys/system.h ****             v6_1,        // v6.1 or greater
  92:../../libDaisy/src/sys/system.h ****             LAST
  93:../../libDaisy/src/sys/system.h ****         } version;
  94:../../libDaisy/src/sys/system.h ****     };
  95:../../libDaisy/src/sys/system.h **** 
  96:../../libDaisy/src/sys/system.h ****     System() {}
  97:../../libDaisy/src/sys/system.h ****     ~System() {}
  61              		.loc 7 97 5 view .LVU7
  62              		.loc 7 97 5 is_stmt 0 view .LVU8
  63              	.LBE280:
  64              	.LBB281:
  65              	.LBI281:
  66              		.file 8 "../../libDaisy/src/hid/usb.h"
   1:../../libDaisy/src/hid/usb.h **** #pragma once
   2:../../libDaisy/src/hid/usb.h **** #ifndef DSY_HID_USB_H
   3:../../libDaisy/src/hid/usb.h **** #define DSY_HID_USB_H
   4:../../libDaisy/src/hid/usb.h **** #include <stdint.h>
ARM GAS  /tmp/cciqVpdV.s 			page 7


   5:../../libDaisy/src/hid/usb.h **** #include <stdlib.h>
   6:../../libDaisy/src/hid/usb.h **** 
   7:../../libDaisy/src/hid/usb.h **** namespace daisy
   8:../../libDaisy/src/hid/usb.h **** /** @addtogroup human_interface
   9:../../libDaisy/src/hid/usb.h ****     @{
  10:../../libDaisy/src/hid/usb.h **** */
  11:../../libDaisy/src/hid/usb.h **** 
  12:../../libDaisy/src/hid/usb.h **** {
  13:../../libDaisy/src/hid/usb.h **** /** 
  14:../../libDaisy/src/hid/usb.h ****     @brief Interface for initializing and using the USB Peripherals on the daisy
  15:../../libDaisy/src/hid/usb.h ****     @author Stephen Hensley
  16:../../libDaisy/src/hid/usb.h ****     @date December 2019
  17:../../libDaisy/src/hid/usb.h **** */
  18:../../libDaisy/src/hid/usb.h **** class UsbHandle
  19:../../libDaisy/src/hid/usb.h **** {
  20:../../libDaisy/src/hid/usb.h ****   public:
  21:../../libDaisy/src/hid/usb.h ****     /** Return values for USBHandle Functions */
  22:../../libDaisy/src/hid/usb.h ****     enum class Result
  23:../../libDaisy/src/hid/usb.h ****     {
  24:../../libDaisy/src/hid/usb.h ****         OK,
  25:../../libDaisy/src/hid/usb.h ****         ERR,
  26:../../libDaisy/src/hid/usb.h ****     };
  27:../../libDaisy/src/hid/usb.h **** 
  28:../../libDaisy/src/hid/usb.h ****     /** Specified which of the two USB Peripherals to initialize. */
  29:../../libDaisy/src/hid/usb.h ****     enum UsbPeriph
  30:../../libDaisy/src/hid/usb.h ****     {
  31:../../libDaisy/src/hid/usb.h ****         FS_INTERNAL, /**< Internal pin */
  32:../../libDaisy/src/hid/usb.h ****         FS_EXTERNAL, /**< FS External D+ pin is Pin 38 (GPIO32). FS External D- pin is Pin 37 (GPIO
  33:../../libDaisy/src/hid/usb.h ****         FS_BOTH,     /**< Both */
  34:../../libDaisy/src/hid/usb.h ****     };
  35:../../libDaisy/src/hid/usb.h **** 
  36:../../libDaisy/src/hid/usb.h **** 
  37:../../libDaisy/src/hid/usb.h ****     /** Function called upon reception of a buffer */
  38:../../libDaisy/src/hid/usb.h ****     typedef void (*ReceiveCallback)(uint8_t* buff, uint32_t* len);
  39:../../libDaisy/src/hid/usb.h **** 
  40:../../libDaisy/src/hid/usb.h ****     UsbHandle() {}
  41:../../libDaisy/src/hid/usb.h **** 
  42:../../libDaisy/src/hid/usb.h ****     ~UsbHandle() {}
  67              		.loc 8 42 5 is_stmt 1 view .LVU9
  68              		.loc 8 42 5 is_stmt 0 view .LVU10
  69              	.LBE281:
  70              	.LBB282:
  71              	.LBI282:
  72              		.file 9 "../../libDaisy/src/per/adc.h"
   1:../../libDaisy/src/per/adc.h **** #pragma once
   2:../../libDaisy/src/per/adc.h **** #ifndef DSY_ADC_H
   3:../../libDaisy/src/per/adc.h **** #define DSY_ADC_H /**< Macro */
   4:../../libDaisy/src/per/adc.h **** #include <stdint.h>
   5:../../libDaisy/src/per/adc.h **** #include <stdlib.h>
   6:../../libDaisy/src/per/adc.h **** #include "daisy_core.h"
   7:../../libDaisy/src/per/adc.h **** #include "per/gpio.h"
   8:../../libDaisy/src/per/adc.h **** 
   9:../../libDaisy/src/per/adc.h **** #define DSY_ADC_MAX_CHANNELS 16 /**< Maximum number of ADC channels */
  10:../../libDaisy/src/per/adc.h **** 
  11:../../libDaisy/src/per/adc.h **** namespace daisy
  12:../../libDaisy/src/per/adc.h **** {
  13:../../libDaisy/src/per/adc.h **** /** @addtogroup per_analog
ARM GAS  /tmp/cciqVpdV.s 			page 8


  14:../../libDaisy/src/per/adc.h ****     @{
  15:../../libDaisy/src/per/adc.h **** */
  16:../../libDaisy/src/per/adc.h **** 
  17:../../libDaisy/src/per/adc.h **** /* While there may not be many configuration options here,
  18:../../libDaisy/src/per/adc.h **** using a struct like this allows us to add more configuration
  19:../../libDaisy/src/per/adc.h **** later without breaking existing functionality.
  20:../../libDaisy/src/per/adc.h **** */
  21:../../libDaisy/src/per/adc.h **** 
  22:../../libDaisy/src/per/adc.h **** /** @brief   Configuration Structure for an ADC Channel 
  23:../../libDaisy/src/per/adc.h ****  *  @details This can be used to configure a a single input, 
  24:../../libDaisy/src/per/adc.h ****  *           or a multiplexed input, allowing up to 8 inputs on 
  25:../../libDaisy/src/per/adc.h ****  *           one channel.
  26:../../libDaisy/src/per/adc.h ****  *  @note    Sharing data lines to multiple muxes _is_ possible, but
  27:../../libDaisy/src/per/adc.h ****  *           each channel sharing data lines must be set to the maximum
  28:../../libDaisy/src/per/adc.h ****  *           number of channels, even if some multiplexers have fewer
  29:../../libDaisy/src/per/adc.h ****  *           inputs connected.
  30:../../libDaisy/src/per/adc.h **** */
  31:../../libDaisy/src/per/adc.h **** struct AdcChannelConfig
  32:../../libDaisy/src/per/adc.h **** {
  33:../../libDaisy/src/per/adc.h ****     /** Which pin to use for multiplexing */
  34:../../libDaisy/src/per/adc.h ****     enum MuxPin
  35:../../libDaisy/src/per/adc.h ****     {
  36:../../libDaisy/src/per/adc.h ****         MUX_SEL_0,    /**< & */
  37:../../libDaisy/src/per/adc.h ****         MUX_SEL_1,    /**< & */
  38:../../libDaisy/src/per/adc.h ****         MUX_SEL_2,    /**< & */
  39:../../libDaisy/src/per/adc.h ****         MUX_SEL_LAST, /**< & */
  40:../../libDaisy/src/per/adc.h ****     };
  41:../../libDaisy/src/per/adc.h **** 
  42:../../libDaisy/src/per/adc.h ****     /** \brief per channel conversion speed added to fixed time based on bitdepth, etc. */
  43:../../libDaisy/src/per/adc.h ****     enum ConversionSpeed
  44:../../libDaisy/src/per/adc.h ****     {
  45:../../libDaisy/src/per/adc.h ****         SPEED_1CYCLES_5,
  46:../../libDaisy/src/per/adc.h ****         SPEED_2CYCLES_5,
  47:../../libDaisy/src/per/adc.h ****         SPEED_8CYCLES_5,
  48:../../libDaisy/src/per/adc.h ****         SPEED_16CYCLES_5,
  49:../../libDaisy/src/per/adc.h ****         SPEED_32CYCLES_5,
  50:../../libDaisy/src/per/adc.h ****         SPEED_64CYCLES_5,
  51:../../libDaisy/src/per/adc.h ****         SPEED_387CYCLES_5,
  52:../../libDaisy/src/per/adc.h ****         SPEED_810CYCLES_5,
  53:../../libDaisy/src/per/adc.h ****     };
  54:../../libDaisy/src/per/adc.h **** 
  55:../../libDaisy/src/per/adc.h ****     /** Initializes a single ADC pin as an ADC. 
  56:../../libDaisy/src/per/adc.h ****     \param pin Pin to init.
  57:../../libDaisy/src/per/adc.h ****     \param speed conversion speed for this pin defaults to 8.5 cycles
  58:../../libDaisy/src/per/adc.h ****      */
  59:../../libDaisy/src/per/adc.h ****     void InitSingle(dsy_gpio_pin pin, ConversionSpeed speed = SPEED_8CYCLES_5);
  60:../../libDaisy/src/per/adc.h **** 
  61:../../libDaisy/src/per/adc.h ****     /** 
  62:../../libDaisy/src/per/adc.h ****     Initializes a single ADC pin as a Multiplexed ADC.
  63:../../libDaisy/src/per/adc.h ****     Requires a CD405X Multiplexer connected to the pin.
  64:../../libDaisy/src/per/adc.h ****     You only need to supply the mux pins that are required,
  65:../../libDaisy/src/per/adc.h ****     e.g. a 4052 mux would only require mux_0 and mux_1.
  66:../../libDaisy/src/per/adc.h ****     Internal Callbacks handle the pin addressing.
  67:../../libDaisy/src/per/adc.h ****     \param adc_pin &
  68:../../libDaisy/src/per/adc.h ****     \param mux_channels must be 1-8
  69:../../libDaisy/src/per/adc.h ****     \param mux_0 First mux pin
  70:../../libDaisy/src/per/adc.h ****     \param mux_1 Second mux pin
ARM GAS  /tmp/cciqVpdV.s 			page 9


  71:../../libDaisy/src/per/adc.h ****     \param mux_2 Third mux pin
  72:../../libDaisy/src/per/adc.h ****     \param speed conversion speed for this pin defaults to 8.5 cycles
  73:../../libDaisy/src/per/adc.h ****     */
  74:../../libDaisy/src/per/adc.h ****     void InitMux(dsy_gpio_pin    adc_pin,
  75:../../libDaisy/src/per/adc.h ****                  size_t          mux_channels,
  76:../../libDaisy/src/per/adc.h ****                  dsy_gpio_pin    mux_0,
  77:../../libDaisy/src/per/adc.h ****                  dsy_gpio_pin    mux_1 = {DSY_GPIOX, 0},
  78:../../libDaisy/src/per/adc.h ****                  dsy_gpio_pin    mux_2 = {DSY_GPIOX, 0},
  79:../../libDaisy/src/per/adc.h ****                  ConversionSpeed speed = SPEED_8CYCLES_5);
  80:../../libDaisy/src/per/adc.h **** 
  81:../../libDaisy/src/per/adc.h ****     dsy_gpio        pin_;                   /**< & */
  82:../../libDaisy/src/per/adc.h ****     dsy_gpio        mux_pin_[MUX_SEL_LAST]; /**< & */
  83:../../libDaisy/src/per/adc.h ****     uint8_t         mux_channels_;          /**< & */
  84:../../libDaisy/src/per/adc.h ****     ConversionSpeed speed_;
  85:../../libDaisy/src/per/adc.h **** };
  86:../../libDaisy/src/per/adc.h **** 
  87:../../libDaisy/src/per/adc.h **** /**
  88:../../libDaisy/src/per/adc.h ****    @brief Handler for analog to digital conversion
  89:../../libDaisy/src/per/adc.h **** */
  90:../../libDaisy/src/per/adc.h **** class AdcHandle
  91:../../libDaisy/src/per/adc.h **** {
  92:../../libDaisy/src/per/adc.h ****   public:
  93:../../libDaisy/src/per/adc.h ****     /** Supported oversampling amounts */
  94:../../libDaisy/src/per/adc.h ****     enum OverSampling
  95:../../libDaisy/src/per/adc.h ****     {
  96:../../libDaisy/src/per/adc.h ****         OVS_NONE, /**< & */
  97:../../libDaisy/src/per/adc.h ****         OVS_4,    /**< & */
  98:../../libDaisy/src/per/adc.h ****         OVS_8,    /**< & */
  99:../../libDaisy/src/per/adc.h ****         OVS_16,   /**< & */
 100:../../libDaisy/src/per/adc.h ****         OVS_32,   /**< & */
 101:../../libDaisy/src/per/adc.h ****         OVS_64,   /**< & */
 102:../../libDaisy/src/per/adc.h ****         OVS_128,  /**< & */
 103:../../libDaisy/src/per/adc.h ****         OVS_256,  /**< & */
 104:../../libDaisy/src/per/adc.h ****         OVS_512,  /**< & */
 105:../../libDaisy/src/per/adc.h ****         OVS_1024, /**< & */
 106:../../libDaisy/src/per/adc.h ****         OVS_LAST, /**< & */
 107:../../libDaisy/src/per/adc.h ****     };
 108:../../libDaisy/src/per/adc.h **** 
 109:../../libDaisy/src/per/adc.h ****     AdcHandle() {}
 110:../../libDaisy/src/per/adc.h ****     ~AdcHandle() {}
  73              		.loc 9 110 5 is_stmt 1 view .LVU11
  74              		.loc 9 110 5 is_stmt 0 view .LVU12
  75              	.LBE282:
  76              	.LBB283:
  77              	.LBI283:
  78              		.file 10 "../../libDaisy/src/hid/audio.h"
   1:../../libDaisy/src/hid/audio.h **** #ifndef DSY_AUDIO_H
   2:../../libDaisy/src/hid/audio.h **** #define DSY_AUDIO_H /**< & */
   3:../../libDaisy/src/hid/audio.h **** 
   4:../../libDaisy/src/hid/audio.h **** #include "per/sai.h"
   5:../../libDaisy/src/hid/audio.h **** 
   6:../../libDaisy/src/hid/audio.h **** namespace daisy
   7:../../libDaisy/src/hid/audio.h **** {
   8:../../libDaisy/src/hid/audio.h **** /** @brief Audio Engine Handle
   9:../../libDaisy/src/hid/audio.h ****  *  @ingroup audio 
  10:../../libDaisy/src/hid/audio.h ****  *  @details This class allows for higher level access to an audio engine.
  11:../../libDaisy/src/hid/audio.h ****  *           If you're using a SOM like the DaisySeed or DaisyPatchSM (or any 
ARM GAS  /tmp/cciqVpdV.s 			page 10


  12:../../libDaisy/src/hid/audio.h ****  *            board that includes one of those objects) then the intialization
  13:../../libDaisy/src/hid/audio.h ****  *            is already taken  care of.
  14:../../libDaisy/src/hid/audio.h ****  *           If you're setting up your own custom hardware, or need to make changes
  15:../../libDaisy/src/hid/audio.h ****  *           you will have to take the following steps:
  16:../../libDaisy/src/hid/audio.h ****  *             1. Create and Initialize an SaiHandle or two depending on your requirements
  17:../../libDaisy/src/hid/audio.h ****  *             2. Initialize the Audio Handle with the desired settings and the Initialized SaiHand
  18:../../libDaisy/src/hid/audio.h ****  *             3. If the connected codec requires special configuration or initialization, do so
  19:../../libDaisy/src/hid/audio.h ****  *             4. Write a callback method using either the AudioCallback or the InterleavingAudioCa
  20:../../libDaisy/src/hid/audio.h ****  *             5. Start the Audio using one of the StartAudio function
  21:../../libDaisy/src/hid/audio.h ****  */
  22:../../libDaisy/src/hid/audio.h **** class AudioHandle
  23:../../libDaisy/src/hid/audio.h **** {
  24:../../libDaisy/src/hid/audio.h ****   public:
  25:../../libDaisy/src/hid/audio.h ****     /** Manually configurable details about the Audio Engine */
  26:../../libDaisy/src/hid/audio.h ****     /** TODO: Figure out how to get samplerate in here. */
  27:../../libDaisy/src/hid/audio.h ****     struct Config
  28:../../libDaisy/src/hid/audio.h ****     {
  29:../../libDaisy/src/hid/audio.h ****         /** number of samples to process per callback */
  30:../../libDaisy/src/hid/audio.h ****         size_t blocksize;
  31:../../libDaisy/src/hid/audio.h **** 
  32:../../libDaisy/src/hid/audio.h ****         /**< Sample rate of audio */
  33:../../libDaisy/src/hid/audio.h ****         SaiHandle::Config::SampleRate samplerate;
  34:../../libDaisy/src/hid/audio.h **** 
  35:../../libDaisy/src/hid/audio.h ****         /** factor for adjustment before and after callback for hardware that may have extra headro
  36:../../libDaisy/src/hid/audio.h ****         float postgain;
  37:../../libDaisy/src/hid/audio.h **** 
  38:../../libDaisy/src/hid/audio.h ****         /** factor for additional one-sided compensation to audio path for hardware that may
  39:../../libDaisy/src/hid/audio.h ****          *  have unequal input/output ranges
  40:../../libDaisy/src/hid/audio.h ****          */
  41:../../libDaisy/src/hid/audio.h ****         float output_compensation;
  42:../../libDaisy/src/hid/audio.h **** 
  43:../../libDaisy/src/hid/audio.h ****         /** Sets default values for config struct */
  44:../../libDaisy/src/hid/audio.h ****         Config()
  45:../../libDaisy/src/hid/audio.h ****         : blocksize(48),
  46:../../libDaisy/src/hid/audio.h ****           samplerate(SaiHandle::Config::SampleRate::SAI_48KHZ),
  47:../../libDaisy/src/hid/audio.h ****           postgain(1.f),
  48:../../libDaisy/src/hid/audio.h ****           output_compensation(1.f)
  49:../../libDaisy/src/hid/audio.h ****         {
  50:../../libDaisy/src/hid/audio.h ****         }
  51:../../libDaisy/src/hid/audio.h ****     };
  52:../../libDaisy/src/hid/audio.h **** 
  53:../../libDaisy/src/hid/audio.h ****     enum class Result
  54:../../libDaisy/src/hid/audio.h ****     {
  55:../../libDaisy/src/hid/audio.h ****         OK,
  56:../../libDaisy/src/hid/audio.h ****         ERR,
  57:../../libDaisy/src/hid/audio.h ****     };
  58:../../libDaisy/src/hid/audio.h **** 
  59:../../libDaisy/src/hid/audio.h ****     /** Non-Interleaving input buffer
  60:../../libDaisy/src/hid/audio.h ****      * Buffer arranged by float[chn][sample] 
  61:../../libDaisy/src/hid/audio.h ****      * const so that the user can't modify the input
  62:../../libDaisy/src/hid/audio.h ****      */
  63:../../libDaisy/src/hid/audio.h ****     typedef const float* const* InputBuffer;
  64:../../libDaisy/src/hid/audio.h **** 
  65:../../libDaisy/src/hid/audio.h ****     /** Non-Interleaving output buffer
  66:../../libDaisy/src/hid/audio.h ****      * Arranged by float[chn][sample] 
  67:../../libDaisy/src/hid/audio.h ****      */
  68:../../libDaisy/src/hid/audio.h ****     typedef float** OutputBuffer;
ARM GAS  /tmp/cciqVpdV.s 			page 11


  69:../../libDaisy/src/hid/audio.h **** 
  70:../../libDaisy/src/hid/audio.h ****     /** Type for a Non-Interleaving audio callback 
  71:../../libDaisy/src/hid/audio.h ****      * Non-Interleaving audio callbacks in daisy will be of this type
  72:../../libDaisy/src/hid/audio.h ****      */
  73:../../libDaisy/src/hid/audio.h ****     typedef void (*AudioCallback)(InputBuffer  in,
  74:../../libDaisy/src/hid/audio.h ****                                   OutputBuffer out,
  75:../../libDaisy/src/hid/audio.h ****                                   size_t       size);
  76:../../libDaisy/src/hid/audio.h **** 
  77:../../libDaisy/src/hid/audio.h ****     /** Interleaving Input buffer
  78:../../libDaisy/src/hid/audio.h ****      ** audio is prepared as { L0, R0, L1, R1, . . . LN, RN }]
  79:../../libDaisy/src/hid/audio.h ****      ** this is const, as the user shouldn't modify it
  80:../../libDaisy/src/hid/audio.h ****     */
  81:../../libDaisy/src/hid/audio.h ****     typedef const float* InterleavingInputBuffer;
  82:../../libDaisy/src/hid/audio.h **** 
  83:../../libDaisy/src/hid/audio.h ****     /** Interleaving Output buffer 
  84:../../libDaisy/src/hid/audio.h ****      ** audio is prepared as { L0, R0, L1, R1, . . . LN, RN }
  85:../../libDaisy/src/hid/audio.h ****     */
  86:../../libDaisy/src/hid/audio.h ****     typedef float* InterleavingOutputBuffer;
  87:../../libDaisy/src/hid/audio.h **** 
  88:../../libDaisy/src/hid/audio.h ****     /** Interleaving Audio Callback 
  89:../../libDaisy/src/hid/audio.h ****      * Interleaving audio callbacks in daisy must be of this type
  90:../../libDaisy/src/hid/audio.h ****      */
  91:../../libDaisy/src/hid/audio.h ****     typedef void (*InterleavingAudioCallback)(InterleavingInputBuffer  in,
  92:../../libDaisy/src/hid/audio.h ****                                               InterleavingOutputBuffer out,
  93:../../libDaisy/src/hid/audio.h ****                                               size_t                   size);
  94:../../libDaisy/src/hid/audio.h **** 
  95:../../libDaisy/src/hid/audio.h ****     AudioHandle() : pimpl_(nullptr) {}
  96:../../libDaisy/src/hid/audio.h ****     ~AudioHandle() {}
  79              		.loc 10 96 5 is_stmt 1 view .LVU13
  80              		.loc 10 96 5 is_stmt 0 view .LVU14
  81              	.LBE283:
  82              	.LBE279:
  83              	.LBE275:
  84              		.loc 2 68 20 view .LVU15
  85 0000 7047     		bx	lr
  86              		.cfi_endproc
  87              	.LFE3538:
  89              		.weak	_ZN5daisy10DaisyPetalD1Ev
  90              		.thumb_set _ZN5daisy10DaisyPetalD1Ev,_ZN5daisy10DaisyPetalD2Ev
  91 0002 00BF     		.section	.text._ZN7daisysp4ToneD2Ev,"axG",%progbits,_ZN7daisysp4ToneD5Ev,comdat
  92              		.align	1
  93              		.p2align 2,,3
  94              		.weak	_ZN7daisysp4ToneD2Ev
  95              		.syntax unified
  96              		.thumb
  97              		.thumb_func
  99              	_ZN7daisysp4ToneD2Ev:
 100              	.LVL1:
 101              	.LFB5923:
 102              		.file 11 "../../DaisySP/DaisySP-LGPL/Source/Filters/tone.h"
   1:../../DaisySP/DaisySP-LGPL/Source/Filters/tone.h **** /*
   2:../../DaisySP/DaisySP-LGPL/Source/Filters/tone.h **** Copyright (c) 2023 Electrosmith, Corp, Barry Vercoe, John FFitch, Gabriel Maldonado
   3:../../DaisySP/DaisySP-LGPL/Source/Filters/tone.h **** 
   4:../../DaisySP/DaisySP-LGPL/Source/Filters/tone.h **** Use of this source code is governed by the LGPL V2.1
   5:../../DaisySP/DaisySP-LGPL/Source/Filters/tone.h **** license that can be found in the LICENSE file or at
   6:../../DaisySP/DaisySP-LGPL/Source/Filters/tone.h **** https://opensource.org/license/lgpl-2-1/
   7:../../DaisySP/DaisySP-LGPL/Source/Filters/tone.h **** */
ARM GAS  /tmp/cciqVpdV.s 			page 12


   8:../../DaisySP/DaisySP-LGPL/Source/Filters/tone.h **** 
   9:../../DaisySP/DaisySP-LGPL/Source/Filters/tone.h **** #pragma once
  10:../../DaisySP/DaisySP-LGPL/Source/Filters/tone.h **** #ifndef DSY_TONE_H
  11:../../DaisySP/DaisySP-LGPL/Source/Filters/tone.h **** #define DSY_TONE_H
  12:../../DaisySP/DaisySP-LGPL/Source/Filters/tone.h **** 
  13:../../DaisySP/DaisySP-LGPL/Source/Filters/tone.h **** #include <stdint.h>
  14:../../DaisySP/DaisySP-LGPL/Source/Filters/tone.h **** #ifdef __cplusplus
  15:../../DaisySP/DaisySP-LGPL/Source/Filters/tone.h **** 
  16:../../DaisySP/DaisySP-LGPL/Source/Filters/tone.h **** namespace daisysp
  17:../../DaisySP/DaisySP-LGPL/Source/Filters/tone.h **** {
  18:../../DaisySP/DaisySP-LGPL/Source/Filters/tone.h **** /** A first-order recursive low-pass filter with variable frequency response. */
  19:../../DaisySP/DaisySP-LGPL/Source/Filters/tone.h **** class Tone
  20:../../DaisySP/DaisySP-LGPL/Source/Filters/tone.h **** {
  21:../../DaisySP/DaisySP-LGPL/Source/Filters/tone.h ****   public:
  22:../../DaisySP/DaisySP-LGPL/Source/Filters/tone.h ****     Tone() {}
  23:../../DaisySP/DaisySP-LGPL/Source/Filters/tone.h ****     ~Tone() {}
 103              		.loc 11 23 5 is_stmt 1 view -0
 104              		.cfi_startproc
 105              		@ args = 0, pretend = 0, frame = 0
 106              		@ frame_needed = 0, uses_anonymous_args = 0
 107              		@ link register save eliminated.
 108              		.loc 11 23 14 is_stmt 0 view .LVU17
 109 0000 7047     		bx	lr
 110              		.cfi_endproc
 111              	.LFE5923:
 113              		.weak	_ZN7daisysp4ToneD1Ev
 114              		.thumb_set _ZN7daisysp4ToneD1Ev,_ZN7daisysp4ToneD2Ev
 115 0002 00BF     		.section	.text._ZN12DelayLineOctIfLj192000EED2Ev,"axG",%progbits,_ZN12DelayLineOctIfLj192000EED5Ev
 116              		.align	1
 117              		.p2align 2,,3
 118              		.weak	_ZN12DelayLineOctIfLj192000EED2Ev
 119              		.syntax unified
 120              		.thumb
 121              		.thumb_func
 123              	_ZN12DelayLineOctIfLj192000EED2Ev:
 124              	.LVL2:
 125              	.LFB6696:
 126              		.file 12 "delayline_oct.h"
   1:delayline_oct.h **** #pragma once
   2:delayline_oct.h **** #ifndef DELAYLINE_OCT_H
   3:delayline_oct.h **** #define DELAYLINE_OCT_H
   4:delayline_oct.h **** #include <stdlib.h>
   5:delayline_oct.h **** #include <stdint.h>
   6:delayline_oct.h **** //namespace daisysp
   7:delayline_oct.h **** //{
   8:delayline_oct.h **** /** Simple Delay line.
   9:delayline_oct.h **** November 2019
  10:delayline_oct.h **** 
  11:delayline_oct.h **** Converted to Template December 2019
  12:delayline_oct.h **** 
  13:delayline_oct.h **** declaration example: (1 second of floats)
  14:delayline_oct.h **** 
  15:delayline_oct.h **** DelayLine<float, SAMPLE_RATE> del;
  16:delayline_oct.h **** 
  17:delayline_oct.h **** By: shensley
  18:delayline_oct.h **** */
  19:delayline_oct.h **** template <typename T, size_t max_size>
ARM GAS  /tmp/cciqVpdV.s 			page 13


  20:delayline_oct.h **** class DelayLineOct
  21:delayline_oct.h **** {
  22:delayline_oct.h ****   public:
  23:delayline_oct.h ****     DelayLineOct() {}
  24:delayline_oct.h ****     ~DelayLineOct() {}
 127              		.loc 12 24 5 is_stmt 1 view -0
 128              		.cfi_startproc
 129              		@ args = 0, pretend = 0, frame = 0
 130              		@ frame_needed = 0, uses_anonymous_args = 0
 131              		@ link register save eliminated.
 132              		.loc 12 24 22 is_stmt 0 view .LVU19
 133 0000 7047     		bx	lr
 134              		.cfi_endproc
 135              	.LFE6696:
 137              		.weak	_ZN12DelayLineOctIfLj192000EED1Ev
 138              		.thumb_set _ZN12DelayLineOctIfLj192000EED1Ev,_ZN12DelayLineOctIfLj192000EED2Ev
 139 0002 00BF     		.section	.text._ZL13AudioCallbackPKPKfPPfj,"ax",%progbits
 140              		.align	1
 141              		.p2align 2,,3
 142              		.syntax unified
 143              		.thumb
 144              		.thumb_func
 146              	_ZL13AudioCallbackPKPKfPPfj:
 147              	.LVL3:
 148              	.LFB5931:
   1:Neptune.cpp   **** 
   2:Neptune.cpp   **** #include "daisy_petal.h"
   3:Neptune.cpp   **** #include "daisysp.h"
   4:Neptune.cpp   **** #include "delayline_reverse.h"
   5:Neptune.cpp   **** #include "delayline_oct.h"
   6:Neptune.cpp   **** 
   7:Neptune.cpp   **** // #include "CloudSeed/Default.h"
   8:Neptune.cpp   **** // #include "CloudSeed/ReverbController.h"
   9:Neptune.cpp   **** // #include "CloudSeed/FastSin.h"
  10:Neptune.cpp   **** // #include "CloudSeed/AudioLib/ValueTables.h"
  11:Neptune.cpp   **** // #include "CloudSeed/AudioLib/MathDefs.h"
  12:Neptune.cpp   **** 
  13:Neptune.cpp   **** #include "../../DaisySP/DaisySP-LGPL/Source/Filters/tone.h"
  14:Neptune.cpp   **** 
  15:Neptune.cpp   **** 
  16:Neptune.cpp   **** using namespace daisy;
  17:Neptune.cpp   **** using namespace daisysp;
  18:Neptune.cpp   **** 
  19:Neptune.cpp   **** // Accès au matériel Daisy
  20:Neptune.cpp   **** DaisyPetal hw;
  21:Neptune.cpp   **** 
  22:Neptune.cpp   **** // Filtre passe-bas pour le delay
  23:Neptune.cpp   **** Tone toneOctLP;
  24:Neptune.cpp   **** float dryMix;
  25:Neptune.cpp   **** float wetMix;
  26:Neptune.cpp   **** 
  27:Neptune.cpp   **** // Constantes pour le Delay
  28:Neptune.cpp   **** #define MAX_DELAY static_cast<size_t>(48000 * 4.0f) // 4 secondes de delay max
  29:Neptune.cpp   **** 
  30:Neptune.cpp   **** // Lignes de delay pour les canaux gauche et droit
  31:Neptune.cpp   **** DelayLineOct<float, MAX_DELAY> DSY_SDRAM_BSS delayLineOctLeft;
  32:Neptune.cpp   **** DelayLineOct<float, MAX_DELAY> DSY_SDRAM_BSS delayLineOctRight;
ARM GAS  /tmp/cciqVpdV.s 			page 14


  33:Neptune.cpp   **** 
  34:Neptune.cpp   **** // Structure pour gérer un canal de delay
  35:Neptune.cpp   **** struct delay
  36:Neptune.cpp   **** {
  37:Neptune.cpp   ****     DelayLineOct<float, MAX_DELAY> *del;
  38:Neptune.cpp   ****     float                        currentDelay;
  39:Neptune.cpp   ****     float                        delayTarget;
  40:Neptune.cpp   ****     float                        feedback = 0.0;
  41:Neptune.cpp   ****     float                        active = false;
  42:Neptune.cpp   ****     
  43:Neptune.cpp   ****     float Process(float in)
  44:Neptune.cpp   ****     {
  45:Neptune.cpp   ****         // Lissage du temps de delay pour éviter les clics
  46:Neptune.cpp   ****         fonepole(currentDelay, delayTarget, .0002f);    // Va de CurrentDelay à delayTarget avec u
  47:Neptune.cpp   ****         del->SetDelay(currentDelay);
  48:Neptune.cpp   **** 
  49:Neptune.cpp   ****         // Lecture du son retardé
  50:Neptune.cpp   ****         float del_read = del->Read();                   // Recupere le sample au delay demandé
  51:Neptune.cpp   **** 
  52:Neptune.cpp   ****         // Application du filtre passe-bas
  53:Neptune.cpp   ****         float read = toneOctLP.Process(del_read);       // Filtre Tone pour que ça sonne moins agg
  54:Neptune.cpp   **** 
  55:Neptune.cpp   ****         // Écriture dans la ligne de delay (avec feedback)
  56:Neptune.cpp   ****         if (active) {
  57:Neptune.cpp   ****             del->Write((feedback * read) + in);
  58:Neptune.cpp   ****         } else {
  59:Neptune.cpp   ****             del->Write(feedback * read);                // Si inactif, seul le feedback est réinje
  60:Neptune.cpp   ****         }
  61:Neptune.cpp   **** 
  62:Neptune.cpp   ****         return read;
  63:Neptune.cpp   ****     }
  64:Neptune.cpp   **** };
  65:Neptune.cpp   **** 
  66:Neptune.cpp   **** // Instances de delay pour les canaux gauche et droit
  67:Neptune.cpp   **** delay delayL;
  68:Neptune.cpp   **** delay delayR;  
  69:Neptune.cpp   **** 
  70:Neptune.cpp   **** // Callback audio, exécuté pour chaque bloc d'échantillons
  71:Neptune.cpp   **** static void AudioCallback(AudioHandle::InputBuffer  in,
  72:Neptune.cpp   ****                           AudioHandle::OutputBuffer out,
  73:Neptune.cpp   ****                           size_t                    size)
  74:Neptune.cpp   **** {
 149              		.loc 1 74 1 is_stmt 1 view -0
 150              		.cfi_startproc
 151              		@ args = 0, pretend = 0, frame = 16
 152              		@ frame_needed = 0, uses_anonymous_args = 0
  75:Neptune.cpp   ****     // ===============================================================
  76:Neptune.cpp   ****     // === RÉGLAGES FIXES POUR LE DELAY (MODIFIEZ CES VALEURS) ===
  77:Neptune.cpp   ****     // ===============================================================
  78:Neptune.cpp   ****     float vmix = 0.5f;       // Mix Dry/Wet (0.0 à 1.0)
 153              		.loc 1 78 5 view .LVU21
  79:Neptune.cpp   ****     float vdelayTime = 0.5f; // Temps de delay (0.0 à 1.0)
 154              		.loc 1 79 5 view .LVU22
  80:Neptune.cpp   ****     float vdelayFDBK = 0.7f; // Feedback (0.0 à ~0.99)
 155              		.loc 1 80 5 view .LVU23
  81:Neptune.cpp   ****     // ===============================================================
  82:Neptune.cpp   **** 
ARM GAS  /tmp/cciqVpdV.s 			page 15


  83:Neptune.cpp   ****     // Calcul des niveaux dry et wet
  84:Neptune.cpp   ****     wetMix = vmix;
 156              		.loc 1 84 5 view .LVU24
  74:Neptune.cpp   ****     // ===============================================================
 157              		.loc 1 74 1 is_stmt 0 view .LVU25
 158 0000 2DE9F04F 		push	{r4, r5, r6, r7, r8, r9, r10, fp, lr}
 159              		.cfi_def_cfa_offset 36
 160              		.cfi_offset 4, -36
 161              		.cfi_offset 5, -32
 162              		.cfi_offset 6, -28
 163              		.cfi_offset 7, -24
 164              		.cfi_offset 8, -20
 165              		.cfi_offset 9, -16
 166              		.cfi_offset 10, -12
 167              		.cfi_offset 11, -8
 168              		.cfi_offset 14, -4
 169              		.loc 1 84 12 view .LVU26
 170 0004 4FF07C53 		mov	r3, #1056964608
 171 0008 A54C     		ldr	r4, .L15
  85:Neptune.cpp   ****     dryMix = 1.0f - vmix;
  86:Neptune.cpp   **** 
  87:Neptune.cpp   ****     // Activation/désactivation du delay en fonction du temps
  88:Neptune.cpp   ****     if (vdelayTime <= 0.01f) {
  89:Neptune.cpp   ****         delayL.active = false;
  90:Neptune.cpp   ****         delayR.active = false;
  91:Neptune.cpp   ****     } else {
  92:Neptune.cpp   ****         delayL.active = true;
 172              		.loc 1 92 23 view .LVU27
 173 000a A64F     		ldr	r7, .L15+4
  93:Neptune.cpp   ****         delayR.active = true;
 174              		.loc 1 93 23 view .LVU28
 175 000c A64D     		ldr	r5, .L15+8
  85:Neptune.cpp   ****     dryMix = 1.0f - vmix;
 176              		.loc 1 85 12 view .LVU29
 177 000e DFF8B892 		ldr	r9, .L15+40
 178              	.LBB371:
 179              	.LBB372:
 180              	.LBB373:
 181              	.LBB374:
 182              	.LBB375:
 183              	.LBB376:
 184              		.file 13 "../../DaisySP/Source/Utility/dsp.h"
   1:../../DaisySP/Source/Utility/dsp.h **** /*
   2:../../DaisySP/Source/Utility/dsp.h **** Copyright (c) 2020 Electrosmith, Corp, Emilie Gillet
   3:../../DaisySP/Source/Utility/dsp.h **** 
   4:../../DaisySP/Source/Utility/dsp.h **** Use of this source code is governed by an MIT-style
   5:../../DaisySP/Source/Utility/dsp.h **** license that can be found in the LICENSE file or at
   6:../../DaisySP/Source/Utility/dsp.h **** https://opensource.org/licenses/MIT.
   7:../../DaisySP/Source/Utility/dsp.h **** */
   8:../../DaisySP/Source/Utility/dsp.h **** 
   9:../../DaisySP/Source/Utility/dsp.h **** /** Helpful defines, functions, and other utilities for use in/with daisysp modules.
  10:../../DaisySP/Source/Utility/dsp.h **** */
  11:../../DaisySP/Source/Utility/dsp.h **** #pragma once
  12:../../DaisySP/Source/Utility/dsp.h **** #ifndef DSY_CORE_DSP
  13:../../DaisySP/Source/Utility/dsp.h **** #define DSY_CORE_DSP
  14:../../DaisySP/Source/Utility/dsp.h **** #include <cassert>
  15:../../DaisySP/Source/Utility/dsp.h **** #include <cstdint>
ARM GAS  /tmp/cciqVpdV.s 			page 16


  16:../../DaisySP/Source/Utility/dsp.h **** #include <random>
  17:../../DaisySP/Source/Utility/dsp.h **** #include <cmath>
  18:../../DaisySP/Source/Utility/dsp.h **** 
  19:../../DaisySP/Source/Utility/dsp.h **** /** PIs
  20:../../DaisySP/Source/Utility/dsp.h **** */
  21:../../DaisySP/Source/Utility/dsp.h **** #define PI_F 3.1415927410125732421875f
  22:../../DaisySP/Source/Utility/dsp.h **** #define TWOPI_F (2.0f * PI_F)
  23:../../DaisySP/Source/Utility/dsp.h **** #define HALFPI_F (PI_F * 0.5f)
  24:../../DaisySP/Source/Utility/dsp.h **** #define DSY_MIN(in, mn) (in < mn ? in : mn)
  25:../../DaisySP/Source/Utility/dsp.h **** #define DSY_MAX(in, mx) (in > mx ? in : mx)
  26:../../DaisySP/Source/Utility/dsp.h **** #define DSY_CLAMP(in, mn, mx) (DSY_MIN(DSY_MAX(in, mn), mx))
  27:../../DaisySP/Source/Utility/dsp.h **** #define DSY_COUNTOF(_arr) (sizeof(_arr) / sizeof(_arr[0]))
  28:../../DaisySP/Source/Utility/dsp.h **** 
  29:../../DaisySP/Source/Utility/dsp.h **** namespace daisysp
  30:../../DaisySP/Source/Utility/dsp.h **** {
  31:../../DaisySP/Source/Utility/dsp.h **** //Avoids division for random floats. e.g. rand() * kRandFrac
  32:../../DaisySP/Source/Utility/dsp.h **** static constexpr float kRandFrac = 1.f / (float)RAND_MAX;
  33:../../DaisySP/Source/Utility/dsp.h **** 
  34:../../DaisySP/Source/Utility/dsp.h **** //Convert from semitones to other units. e.g. 2 ^ (kOneTwelfth * x)
  35:../../DaisySP/Source/Utility/dsp.h **** static constexpr float kOneTwelfth = 1.f / 12.f;
  36:../../DaisySP/Source/Utility/dsp.h **** 
  37:../../DaisySP/Source/Utility/dsp.h **** /** efficient floating point min/max
  38:../../DaisySP/Source/Utility/dsp.h **** c/o stephen mccaul
  39:../../DaisySP/Source/Utility/dsp.h **** */
  40:../../DaisySP/Source/Utility/dsp.h **** inline float fmax(float a, float b)
  41:../../DaisySP/Source/Utility/dsp.h **** {
  42:../../DaisySP/Source/Utility/dsp.h ****     float r;
  43:../../DaisySP/Source/Utility/dsp.h **** #ifdef __arm__
  44:../../DaisySP/Source/Utility/dsp.h ****     asm("vmaxnm.f32 %[d], %[n], %[m]" : [d] "=t"(r) : [n] "t"(a), [m] "t"(b) :);
 185              		.loc 13 44 5 view .LVU30
 186 0012 9FEDA67A 		vldr.32	s14, .L15+12
 187 0016 DFEDA66A 		vldr.32	s13, .L15+16
 188              	.LBE376:
 189              	.LBE375:
 190              	.LBB379:
 191              	.LBB380:
  45:../../DaisySP/Source/Utility/dsp.h **** #else
  46:../../DaisySP/Source/Utility/dsp.h ****     r = (a > b) ? a : b;
  47:../../DaisySP/Source/Utility/dsp.h **** #endif // __arm__
  48:../../DaisySP/Source/Utility/dsp.h ****     return r;
  49:../../DaisySP/Source/Utility/dsp.h **** }
  50:../../DaisySP/Source/Utility/dsp.h **** 
  51:../../DaisySP/Source/Utility/dsp.h **** inline float fmin(float a, float b)
  52:../../DaisySP/Source/Utility/dsp.h **** {
  53:../../DaisySP/Source/Utility/dsp.h ****     float r;
  54:../../DaisySP/Source/Utility/dsp.h **** #ifdef __arm__
  55:../../DaisySP/Source/Utility/dsp.h ****     asm("vminnm.f32 %[d], %[n], %[m]" : [d] "=t"(r) : [n] "t"(a), [m] "t"(b) :);
 192              		.loc 13 55 5 view .LVU31
 193 001a DFEDA67A 		vldr.32	s15, .L15+20
 194              	.LBE380:
 195              	.LBE379:
 196              	.LBB383:
 197              	.LBB377:
  44:../../DaisySP/Source/Utility/dsp.h **** #else
 198              		.loc 13 44 5 view .LVU32
 199              		.syntax unified
 200              	@ 44 "../../DaisySP/Source/Utility/dsp.h" 1
ARM GAS  /tmp/cciqVpdV.s 			page 17


 201 001e 87FE267A 		vmaxnm.f32 s14, s14, s13
 202              	@ 0 "" 2
 203              		.thumb
 204              		.syntax unified
 205              	.LBE377:
 206              	.LBE383:
 207              	.LBE374:
 208              	.LBE373:
 209              	.LBE372:
 210              	.LBE371:
  74:Neptune.cpp   ****     // ===============================================================
 211              		.loc 1 74 1 view .LVU33
 212 0022 2DED048B 		vpush.64	{d8, d9}
 213              		.cfi_def_cfa_offset 52
 214              		.cfi_offset 80, -52
 215              		.cfi_offset 81, -48
 216              		.cfi_offset 82, -44
 217              		.cfi_offset 83, -40
 218 0026 85B0     		sub	sp, sp, #20
 219              		.cfi_def_cfa_offset 72
  84:Neptune.cpp   ****     dryMix = 1.0f - vmix;
 220              		.loc 1 84 12 view .LVU34
 221 0028 2360     		str	r3, [r4]	@ float
  85:Neptune.cpp   **** 
 222              		.loc 1 85 5 is_stmt 1 view .LVU35
  92:Neptune.cpp   ****         delayR.active = true;
 223              		.loc 1 92 23 is_stmt 0 view .LVU36
 224 002a 4FF07E54 		mov	r4, #1065353216
  85:Neptune.cpp   **** 
 225              		.loc 1 85 12 view .LVU37
 226 002e C9F80030 		str	r3, [r9]	@ float
  88:Neptune.cpp   ****         delayL.active = false;
 227              		.loc 1 88 5 is_stmt 1 view .LVU38
  92:Neptune.cpp   ****         delayR.active = true;
 228              		.loc 1 92 9 view .LVU39
 229              		.loc 1 93 9 view .LVU40
  94:Neptune.cpp   ****     }
  95:Neptune.cpp   **** 
  96:Neptune.cpp   ****     // Application des paramètres aux instances de delay
  97:Neptune.cpp   ****     // Modifie le parametre pour simuler un potar logarithmique
  98:Neptune.cpp   ****     delayL.delayTarget = fmap(vdelayTime, 2400.0f, static_cast<float>(MAX_DELAY), Mapping::LOG);
 230              		.loc 1 98 5 view .LVU41
 231              	.LVL4:
 232              	.LBB393:
 233              	.LBI371:
  56:../../DaisySP/Source/Utility/dsp.h **** #else
  57:../../DaisySP/Source/Utility/dsp.h ****     r = (a < b) ? a : b;
  58:../../DaisySP/Source/Utility/dsp.h **** #endif // __arm__
  59:../../DaisySP/Source/Utility/dsp.h ****     return r;
  60:../../DaisySP/Source/Utility/dsp.h **** }
  61:../../DaisySP/Source/Utility/dsp.h **** 
  62:../../DaisySP/Source/Utility/dsp.h **** /** quick fp clamp
  63:../../DaisySP/Source/Utility/dsp.h **** */
  64:../../DaisySP/Source/Utility/dsp.h **** inline float fclamp(float in, float min, float max)
  65:../../DaisySP/Source/Utility/dsp.h **** {
  66:../../DaisySP/Source/Utility/dsp.h ****     return fmin(fmax(in, min), max);
  67:../../DaisySP/Source/Utility/dsp.h **** }
ARM GAS  /tmp/cciqVpdV.s 			page 18


  68:../../DaisySP/Source/Utility/dsp.h **** 
  69:../../DaisySP/Source/Utility/dsp.h **** /** From Musicdsp.org "Fast power and root estimates for 32bit floats)
  70:../../DaisySP/Source/Utility/dsp.h **** Original code by Stefan Stenzel
  71:../../DaisySP/Source/Utility/dsp.h **** These are approximations
  72:../../DaisySP/Source/Utility/dsp.h **** */
  73:../../DaisySP/Source/Utility/dsp.h **** inline float fastpower(float f, int n)
  74:../../DaisySP/Source/Utility/dsp.h **** {
  75:../../DaisySP/Source/Utility/dsp.h ****     long *lp, l;
  76:../../DaisySP/Source/Utility/dsp.h ****     lp = (long *)(&f);
  77:../../DaisySP/Source/Utility/dsp.h ****     l  = *lp;
  78:../../DaisySP/Source/Utility/dsp.h ****     l -= 0x3F800000;
  79:../../DaisySP/Source/Utility/dsp.h ****     l <<= (n - 1);
  80:../../DaisySP/Source/Utility/dsp.h ****     l += 0x3F800000;
  81:../../DaisySP/Source/Utility/dsp.h ****     *lp = l;
  82:../../DaisySP/Source/Utility/dsp.h ****     return f;
  83:../../DaisySP/Source/Utility/dsp.h **** }
  84:../../DaisySP/Source/Utility/dsp.h **** 
  85:../../DaisySP/Source/Utility/dsp.h **** inline float fastroot(float f, int n)
  86:../../DaisySP/Source/Utility/dsp.h **** {
  87:../../DaisySP/Source/Utility/dsp.h ****     long *lp, l;
  88:../../DaisySP/Source/Utility/dsp.h ****     lp = (long *)(&f);
  89:../../DaisySP/Source/Utility/dsp.h ****     l  = *lp;
  90:../../DaisySP/Source/Utility/dsp.h ****     l -= 0x3F800000;
  91:../../DaisySP/Source/Utility/dsp.h ****     l >>= (n - 1);
  92:../../DaisySP/Source/Utility/dsp.h ****     l += 0x3F800000;
  93:../../DaisySP/Source/Utility/dsp.h ****     *lp = l;
  94:../../DaisySP/Source/Utility/dsp.h ****     return f;
  95:../../DaisySP/Source/Utility/dsp.h **** }
  96:../../DaisySP/Source/Utility/dsp.h **** 
  97:../../DaisySP/Source/Utility/dsp.h **** /** Significantly more efficient than fmodf(x, 1.0f) for calculating
  98:../../DaisySP/Source/Utility/dsp.h ****  *  the decimal part of a floating point value.
  99:../../DaisySP/Source/Utility/dsp.h ****  */
 100:../../DaisySP/Source/Utility/dsp.h **** inline float fastmod1f(float x)
 101:../../DaisySP/Source/Utility/dsp.h **** {
 102:../../DaisySP/Source/Utility/dsp.h ****     return x - static_cast<int>(x);
 103:../../DaisySP/Source/Utility/dsp.h **** }
 104:../../DaisySP/Source/Utility/dsp.h **** 
 105:../../DaisySP/Source/Utility/dsp.h **** /** From http://openaudio.blogspot.com/2017/02/faster-log10-and-pow.html
 106:../../DaisySP/Source/Utility/dsp.h **** No approximation, pow10f(x) gives a 90% speed increase over powf(10.f, x)
 107:../../DaisySP/Source/Utility/dsp.h **** */
 108:../../DaisySP/Source/Utility/dsp.h **** inline float pow10f(float f)
 109:../../DaisySP/Source/Utility/dsp.h **** {
 110:../../DaisySP/Source/Utility/dsp.h ****     return expf(2.302585092994046f * f);
 111:../../DaisySP/Source/Utility/dsp.h **** }
 112:../../DaisySP/Source/Utility/dsp.h **** 
 113:../../DaisySP/Source/Utility/dsp.h **** /* Original code for fastlog2f by Dr. Paul Beckmann from the ARM community forum, adapted from the 
 114:../../DaisySP/Source/Utility/dsp.h **** About 25% performance increase over std::log10f
 115:../../DaisySP/Source/Utility/dsp.h **** */
 116:../../DaisySP/Source/Utility/dsp.h **** inline float fastlog2f(float f)
 117:../../DaisySP/Source/Utility/dsp.h **** {
 118:../../DaisySP/Source/Utility/dsp.h ****     float frac;
 119:../../DaisySP/Source/Utility/dsp.h ****     int   exp;
 120:../../DaisySP/Source/Utility/dsp.h ****     frac = frexpf(fabsf(f), &exp);
 121:../../DaisySP/Source/Utility/dsp.h ****     f    = 1.23149591368684f;
 122:../../DaisySP/Source/Utility/dsp.h ****     f *= frac;
 123:../../DaisySP/Source/Utility/dsp.h ****     f += -4.11852516267426f;
 124:../../DaisySP/Source/Utility/dsp.h ****     f *= frac;
ARM GAS  /tmp/cciqVpdV.s 			page 19


 125:../../DaisySP/Source/Utility/dsp.h ****     f += 6.02197014179219f;
 126:../../DaisySP/Source/Utility/dsp.h ****     f *= frac;
 127:../../DaisySP/Source/Utility/dsp.h ****     f += -3.13396450166353f;
 128:../../DaisySP/Source/Utility/dsp.h ****     f += exp;
 129:../../DaisySP/Source/Utility/dsp.h ****     return (f);
 130:../../DaisySP/Source/Utility/dsp.h **** }
 131:../../DaisySP/Source/Utility/dsp.h **** 
 132:../../DaisySP/Source/Utility/dsp.h **** inline float fastlog10f(float f)
 133:../../DaisySP/Source/Utility/dsp.h **** {
 134:../../DaisySP/Source/Utility/dsp.h ****     return fastlog2f(f) * 0.3010299956639812f;
 135:../../DaisySP/Source/Utility/dsp.h **** }
 136:../../DaisySP/Source/Utility/dsp.h **** 
 137:../../DaisySP/Source/Utility/dsp.h **** /** Midi to frequency helper
 138:../../DaisySP/Source/Utility/dsp.h **** */
 139:../../DaisySP/Source/Utility/dsp.h **** inline float mtof(float m)
 140:../../DaisySP/Source/Utility/dsp.h **** {
 141:../../DaisySP/Source/Utility/dsp.h ****     return powf(2, (m - 69.0f) / 12.0f) * 440.0f;
 142:../../DaisySP/Source/Utility/dsp.h **** }
 143:../../DaisySP/Source/Utility/dsp.h **** 
 144:../../DaisySP/Source/Utility/dsp.h **** 
 145:../../DaisySP/Source/Utility/dsp.h **** /** one pole lpf
 146:../../DaisySP/Source/Utility/dsp.h **** out is passed by reference, and must be retained between
 147:../../DaisySP/Source/Utility/dsp.h **** calls to properly filter the signal
 148:../../DaisySP/Source/Utility/dsp.h **** coeff can be calculated:
 149:../../DaisySP/Source/Utility/dsp.h **** coeff = 1.0 / (time * sample_rate) ; where time is in seconds
 150:../../DaisySP/Source/Utility/dsp.h **** */
 151:../../DaisySP/Source/Utility/dsp.h **** inline void fonepole(float &out, float in, float coeff)
 152:../../DaisySP/Source/Utility/dsp.h **** {
 153:../../DaisySP/Source/Utility/dsp.h ****     out += coeff * (in - out);
 154:../../DaisySP/Source/Utility/dsp.h **** }
 155:../../DaisySP/Source/Utility/dsp.h **** 
 156:../../DaisySP/Source/Utility/dsp.h **** /** Curves to use with the fmap function */
 157:../../DaisySP/Source/Utility/dsp.h **** enum class Mapping
 158:../../DaisySP/Source/Utility/dsp.h **** {
 159:../../DaisySP/Source/Utility/dsp.h ****     LINEAR,
 160:../../DaisySP/Source/Utility/dsp.h ****     EXP,
 161:../../DaisySP/Source/Utility/dsp.h ****     LOG,
 162:../../DaisySP/Source/Utility/dsp.h **** };
 163:../../DaisySP/Source/Utility/dsp.h **** 
 164:../../DaisySP/Source/Utility/dsp.h **** /** Maps a float between a specified range, using a specified curve.
 165:../../DaisySP/Source/Utility/dsp.h ****  *
 166:../../DaisySP/Source/Utility/dsp.h ****  *  \param in a value between 0 to 1 that will be mapped to the new range.
 167:../../DaisySP/Source/Utility/dsp.h ****  *  \param min the new minimum value
 168:../../DaisySP/Source/Utility/dsp.h ****  *  \param max the new maxmimum value
 169:../../DaisySP/Source/Utility/dsp.h ****  *  \param curve a Mapping Value to adjust the response curve of the transformation
 170:../../DaisySP/Source/Utility/dsp.h ****  *               defaults to Linear. @see Mapping
 171:../../DaisySP/Source/Utility/dsp.h ****  *
 172:../../DaisySP/Source/Utility/dsp.h ****  *  When using the log curve min and max, must be greater than zero.
 173:../../DaisySP/Source/Utility/dsp.h ****  *
 174:../../DaisySP/Source/Utility/dsp.h ****  *  \retval returns the transformed float within the new range.
 175:../../DaisySP/Source/Utility/dsp.h **** */
 176:../../DaisySP/Source/Utility/dsp.h **** inline float
 177:../../DaisySP/Source/Utility/dsp.h **** fmap(float in, float min, float max, Mapping curve = Mapping::LINEAR)
 234              		.loc 13 177 1 view .LVU42
 178:../../DaisySP/Source/Utility/dsp.h **** {
 179:../../DaisySP/Source/Utility/dsp.h ****     switch(curve)
 235              		.loc 13 179 5 view .LVU43
ARM GAS  /tmp/cciqVpdV.s 			page 20


 236              	.LBB391:
 237              	.LBI372:
 177:../../DaisySP/Source/Utility/dsp.h **** {
 238              		.loc 13 177 1 view .LVU44
 180:../../DaisySP/Source/Utility/dsp.h ****     {
 181:../../DaisySP/Source/Utility/dsp.h ****         case Mapping::EXP:
 182:../../DaisySP/Source/Utility/dsp.h ****             return fclamp(min + (in * in) * (max - min), min, max);
 183:../../DaisySP/Source/Utility/dsp.h ****         case Mapping::LOG:
 239              		.loc 13 183 9 view .LVU45
 184:../../DaisySP/Source/Utility/dsp.h ****         {
 240              		.loc 13 184 9 view .LVU46
 241              	.LBB389:
 185:../../DaisySP/Source/Utility/dsp.h ****             const float a = 1.f / log10f(max / min);
 242              		.loc 13 185 13 view .LVU47
 186:../../DaisySP/Source/Utility/dsp.h ****             return fclamp(min * powf(10, in / a), min, max);
 243              		.loc 13 186 13 view .LVU48
 244              	.LBB387:
 245              	.LBI374:
  64:../../DaisySP/Source/Utility/dsp.h **** {
 246              		.loc 13 64 14 view .LVU49
  66:../../DaisySP/Source/Utility/dsp.h **** }
 247              		.loc 13 66 5 view .LVU50
 248              	.LBB384:
 249              	.LBI375:
  40:../../DaisySP/Source/Utility/dsp.h **** {
 250              		.loc 13 40 14 view .LVU51
 251              	.LBB378:
  42:../../DaisySP/Source/Utility/dsp.h **** #ifdef __arm__
 252              		.loc 13 42 5 view .LVU52
  44:../../DaisySP/Source/Utility/dsp.h **** #else
 253              		.loc 13 44 5 view .LVU53
  48:../../DaisySP/Source/Utility/dsp.h **** }
 254              		.loc 13 48 5 view .LVU54
  48:../../DaisySP/Source/Utility/dsp.h **** }
 255              		.loc 13 48 5 is_stmt 0 view .LVU55
 256              	.LBE378:
 257              	.LBE384:
 258              	.LBB385:
 259              	.LBI379:
  51:../../DaisySP/Source/Utility/dsp.h **** {
 260              		.loc 13 51 14 is_stmt 1 view .LVU56
 261              	.LBB381:
  53:../../DaisySP/Source/Utility/dsp.h **** #ifdef __arm__
 262              		.loc 13 53 5 view .LVU57
  55:../../DaisySP/Source/Utility/dsp.h **** #else
 263              		.loc 13 55 5 view .LVU58
  59:../../DaisySP/Source/Utility/dsp.h **** }
 264              		.loc 13 59 5 view .LVU59
  59:../../DaisySP/Source/Utility/dsp.h **** }
 265              		.loc 13 59 5 is_stmt 0 view .LVU60
 266              	.LBE381:
 267              	.LBE385:
 268              	.LBE387:
 269              	.LBE389:
 270              	.LBE391:
 271              	.LBE393:
  99:Neptune.cpp   ****     delayR.delayTarget = fmap(vdelayTime, 2400.0f, static_cast<float>(MAX_DELAY), Mapping::LOG);
ARM GAS  /tmp/cciqVpdV.s 			page 21


 272              		.loc 1 99 5 is_stmt 1 view .LVU61
 273              	.LBB394:
 274              	.LBI394:
 177:../../DaisySP/Source/Utility/dsp.h **** {
 275              		.loc 13 177 1 view .LVU62
 179:../../DaisySP/Source/Utility/dsp.h ****     {
 276              		.loc 13 179 5 view .LVU63
 277              	.LBB395:
 278              	.LBI395:
 177:../../DaisySP/Source/Utility/dsp.h **** {
 279              		.loc 13 177 1 view .LVU64
 183:../../DaisySP/Source/Utility/dsp.h ****         {
 280              		.loc 13 183 9 view .LVU65
 184:../../DaisySP/Source/Utility/dsp.h ****             const float a = 1.f / log10f(max / min);
 281              		.loc 13 184 9 view .LVU66
 282              	.LBB396:
 185:../../DaisySP/Source/Utility/dsp.h ****             return fclamp(min * powf(10, in / a), min, max);
 283              		.loc 13 185 13 view .LVU67
 284              		.loc 13 186 13 view .LVU68
 285              	.LBB397:
 286              	.LBI397:
  64:../../DaisySP/Source/Utility/dsp.h **** {
 287              		.loc 13 64 14 view .LVU69
  66:../../DaisySP/Source/Utility/dsp.h **** }
 288              		.loc 13 66 5 view .LVU70
 289              	.LBB398:
 290              	.LBI398:
  40:../../DaisySP/Source/Utility/dsp.h **** {
 291              		.loc 13 40 14 view .LVU71
 292              	.LBB399:
  42:../../DaisySP/Source/Utility/dsp.h **** #ifdef __arm__
 293              		.loc 13 42 5 view .LVU72
  44:../../DaisySP/Source/Utility/dsp.h **** #else
 294              		.loc 13 44 5 view .LVU73
  48:../../DaisySP/Source/Utility/dsp.h **** }
 295              		.loc 13 48 5 view .LVU74
  48:../../DaisySP/Source/Utility/dsp.h **** }
 296              		.loc 13 48 5 is_stmt 0 view .LVU75
 297              	.LBE399:
 298              	.LBE398:
 299              	.LBB400:
 300              	.LBI400:
  51:../../DaisySP/Source/Utility/dsp.h **** {
 301              		.loc 13 51 14 is_stmt 1 view .LVU76
 302              	.LBB401:
  53:../../DaisySP/Source/Utility/dsp.h **** #ifdef __arm__
 303              		.loc 13 53 5 view .LVU77
  55:../../DaisySP/Source/Utility/dsp.h **** #else
 304              		.loc 13 55 5 view .LVU78
  59:../../DaisySP/Source/Utility/dsp.h **** }
 305              		.loc 13 59 5 view .LVU79
  59:../../DaisySP/Source/Utility/dsp.h **** }
 306              		.loc 13 59 5 is_stmt 0 view .LVU80
 307              	.LBE401:
 308              	.LBE400:
 309              	.LBE397:
 310              	.LBE396:
ARM GAS  /tmp/cciqVpdV.s 			page 22


 311              	.LBE395:
 312              	.LBE394:
 100:Neptune.cpp   **** 
 101:Neptune.cpp   ****     delayL.feedback = vdelayFDBK;
 313              		.loc 1 101 5 is_stmt 1 view .LVU81
 102:Neptune.cpp   ****     delayR.feedback = vdelayFDBK;
 314              		.loc 1 102 5 view .LVU82
 103:Neptune.cpp   **** 
 104:Neptune.cpp   ****     float inputL, inputR;
 315              		.loc 1 104 5 view .LVU83
 105:Neptune.cpp   ****     float delay_outL, delay_outR;
 316              		.loc 1 105 5 view .LVU84
 106:Neptune.cpp   **** 
 107:Neptune.cpp   ****     // Boucle de traitement audio (échantillon par échantillon)
 108:Neptune.cpp   ****     for (size_t i = 0; i < size; i++)
 317              		.loc 1 108 5 view .LVU85
 318              	.LBB402:
 319              		.loc 1 108 26 discriminator 1 view .LVU86
 320              	.LBE402:
 321              	.LBB618:
 322              	.LBB392:
 323              	.LBB390:
 324              	.LBB388:
 325              	.LBB386:
 326              	.LBB382:
  55:../../DaisySP/Source/Utility/dsp.h **** #else
 327              		.loc 13 55 5 is_stmt 0 view .LVU87
 328              		.syntax unified
 329              	@ 55 "../../DaisySP/Source/Utility/dsp.h" 1
 330 0032 87FE677A 		vminnm.f32 s14, s14, s15
 331              	@ 0 "" 2
 332              		.thumb
 333              		.syntax unified
 334              	.LBE382:
 335              	.LBE386:
 336              	.LBE388:
 337              	.LBE390:
 338              	.LBE392:
 339              	.LBE618:
  92:Neptune.cpp   ****         delayR.active = true;
 340              		.loc 1 92 23 view .LVU88
 341 0036 3C61     		str	r4, [r7, #16]	@ float
  93:Neptune.cpp   ****     }
 342              		.loc 1 93 23 view .LVU89
 343 0038 2C61     		str	r4, [r5, #16]	@ float
 101:Neptune.cpp   ****     delayR.feedback = vdelayFDBK;
 344              		.loc 1 101 21 view .LVU90
 345 003a 9F4C     		ldr	r4, .L15+24
  98:Neptune.cpp   ****     delayR.delayTarget = fmap(vdelayTime, 2400.0f, static_cast<float>(MAX_DELAY), Mapping::LOG);
 346              		.loc 1 98 24 discriminator 1 view .LVU91
 347 003c 87ED027A 		vstr.32	s14, [r7, #8]
  99:Neptune.cpp   **** 
 348              		.loc 1 99 24 discriminator 1 view .LVU92
 349 0040 85ED027A 		vstr.32	s14, [r5, #8]
 101:Neptune.cpp   ****     delayR.feedback = vdelayFDBK;
 350              		.loc 1 101 21 view .LVU93
 351 0044 FC60     		str	r4, [r7, #12]	@ float
ARM GAS  /tmp/cciqVpdV.s 			page 23


 102:Neptune.cpp   **** 
 352              		.loc 1 102 21 view .LVU94
 353 0046 EC60     		str	r4, [r5, #12]	@ float
 354              	.LBB619:
 355              		.loc 1 108 26 discriminator 1 view .LVU95
 356 0048 002A     		cmp	r2, #0
 357 004a 00F02381 		beq	.L5
 358              		.loc 1 108 17 view .LVU96
 359 004e 4FF00008 		mov	r8, #0
 360 0052 0192     		str	r2, [sp, #4]
 361 0054 CDE90201 		strd	r0, r1, [sp, #8]
 362 0058 01E0     		b	.L9
 363              	.LVL5:
 364              	.L14:
 365              	.LBB403:
 366              	.LBB404:
  46:Neptune.cpp   ****         del->SetDelay(currentDelay);
 367              		.loc 1 46 17 view .LVU97
 368 005a 97ED027A 		vldr.32	s14, [r7, #8]
 369              	.LVL6:
 370              	.L9:
  46:Neptune.cpp   ****         del->SetDelay(currentDelay);
 371              		.loc 1 46 17 view .LVU98
 372              	.LBE404:
 373              	.LBE403:
 109:Neptune.cpp   ****     {
 110:Neptune.cpp   ****         inputL = in[0][i];
 374              		.loc 1 110 9 is_stmt 1 view .LVU99
 375              	.LBB487:
 376              	.LBB472:
 377              	.LBB405:
 378              	.LBB406:
 153:../../DaisySP/Source/Utility/dsp.h **** }
 379              		.loc 13 153 5 is_stmt 0 view .LVU100
 380 005e D7ED017A 		vldr.32	s15, [r7, #4]
 381 0062 4FEA8806 		lsl	r6, r8, #2
 153:../../DaisySP/Source/Utility/dsp.h **** }
 382              		.loc 13 153 9 view .LVU101
 383 0066 DFED956A 		vldr.32	s13, .L15+28
 153:../../DaisySP/Source/Utility/dsp.h **** }
 384              		.loc 13 153 24 view .LVU102
 385 006a 37EE677A 		vsub.f32	s14, s14, s15
 386              	.LBE406:
 387              	.LBE405:
 388              	.LBE472:
 389              	.LBE487:
 390              		.loc 1 110 16 view .LVU103
 391 006e 029B     		ldr	r3, [sp, #8]
 392              	.LBB488:
 393              	.LBB473:
  47:Neptune.cpp   **** 
 394              		.loc 1 47 9 view .LVU104
 395 0070 3A68     		ldr	r2, [r7]
 396              	.LBE473:
 397              	.LBE488:
 398              		.loc 1 110 16 view .LVU105
 399 0072 1968     		ldr	r1, [r3]
ARM GAS  /tmp/cciqVpdV.s 			page 24


 400              	.LBB489:
 401              	.LBB474:
 402              	.LBB410:
 403              	.LBB407:
 153:../../DaisySP/Source/Utility/dsp.h **** }
 404              		.loc 13 153 9 view .LVU106
 405 0074 E7EE267A 		vfma.f32	s15, s14, s13
 406              	.LBE407:
 407              	.LBE410:
 408              	.LBE474:
 409              	.LBE489:
 111:Neptune.cpp   ****         inputR = in[1][i];
 410              		.loc 1 111 16 view .LVU107
 411 0078 5B68     		ldr	r3, [r3, #4]
 412              	.LBB490:
 413              	.LBB475:
 414              	.LBB411:
 415              	.LBB412:
  25:delayline_oct.h ****     /** initializes the delay line by clearing the values within, and setting delay to 1 sample.
  26:delayline_oct.h ****     */
  27:delayline_oct.h ****     void Init() { Reset(); }
  28:delayline_oct.h ****     /** clears buffer, sets write ptr to 0, and delay to 1 sample.
  29:delayline_oct.h ****     */
  30:delayline_oct.h ****     void Reset()
  31:delayline_oct.h ****     {
  32:delayline_oct.h ****         for(size_t i = 0; i < max_size; i++)
  33:delayline_oct.h ****         {
  34:delayline_oct.h ****             line_[i] = T(0);
  35:delayline_oct.h ****         }
  36:delayline_oct.h ****         write_ptr_ = 0;
  37:delayline_oct.h ****         delay_     = 1;
  38:delayline_oct.h ****         speed      = 1;
  39:delayline_oct.h ****         delay_secondTap = 1;
  40:delayline_oct.h ****         delay_float = 1.0;
  41:delayline_oct.h ****         secondTapFraction = 0.0;
  42:delayline_oct.h ****     }
  43:delayline_oct.h **** 
  44:delayline_oct.h ****     inline void setOctave(bool isOctave)
  45:delayline_oct.h ****     {
  46:delayline_oct.h ****         if (isOctave) {
  47:delayline_oct.h ****             speed = 2;
  48:delayline_oct.h ****         } else {
  49:delayline_oct.h ****             speed = 1;
  50:delayline_oct.h ****         }
  51:delayline_oct.h ****     }
  52:delayline_oct.h **** 
  53:delayline_oct.h ****     // Sets the fractional length of the 2nd tap 
  54:delayline_oct.h ****     //   2/3 (0.66667) = Triplett
  55:delayline_oct.h ****     //   3/4 (0.75) = Dotted Eighth
  56:delayline_oct.h ****     inline void set2ndTapFraction(float tapFraction)
  57:delayline_oct.h ****     {
  58:delayline_oct.h ****         secondTapFraction = tapFraction;
  59:delayline_oct.h **** 
  60:delayline_oct.h ****         // For secondTap (if this changes we want to recalculate the second tap based on current de
  61:delayline_oct.h ****         int32_t int_delay_secondTap = static_cast<int32_t>(delay_float * secondTapFraction);
  62:delayline_oct.h ****         frac_secondTap             = delay_float * secondTapFraction - static_cast<float>(int_delay
  63:delayline_oct.h ****         delay_secondTap = static_cast<size_t>(int_delay_secondTap) < max_size ? int_delay_secondTap
ARM GAS  /tmp/cciqVpdV.s 			page 25


  64:delayline_oct.h ****                                                            : max_size - 1;
  65:delayline_oct.h ****     }
  66:delayline_oct.h **** 
  67:delayline_oct.h **** 
  68:delayline_oct.h **** 
  69:delayline_oct.h ****     /** sets the delay time in samples
  70:delayline_oct.h ****         If a float is passed in, a fractional component will be calculated for interpolating the de
  71:delayline_oct.h ****     */
  72:delayline_oct.h ****     inline void SetDelay(size_t delay)
  73:delayline_oct.h ****     {
  74:delayline_oct.h ****         frac_  = 0.0f;
  75:delayline_oct.h ****         delay_ = delay < max_size ? delay : max_size - 1;
  76:delayline_oct.h ****     }
  77:delayline_oct.h **** 
  78:delayline_oct.h ****     /** sets the delay time in samples
  79:delayline_oct.h ****         If a float is passed in, a fractional component will be calculated for interpolating the de
  80:delayline_oct.h ****     */
  81:delayline_oct.h ****     inline void SetDelay(float delay)
  82:delayline_oct.h ****     {
  83:delayline_oct.h ****         int32_t int_delay = static_cast<int32_t>(delay);
  84:delayline_oct.h ****         frac_             = delay - static_cast<float>(int_delay);
  85:delayline_oct.h ****         delay_ = static_cast<size_t>(int_delay) < max_size ? int_delay
 416              		.loc 12 85 60 view .LVU108
 417 007a DFF850A2 		ldr	r10, .L15+44
  86:delayline_oct.h ****                                                            : max_size - 1;
  87:delayline_oct.h **** 
  88:delayline_oct.h ****         // For secondTap
  89:delayline_oct.h ****         delay_float = delay;
 418              		.loc 12 89 21 view .LVU109
 419 007e 02F53B2C 		add	ip, r2, #765952
 420              	.LBE412:
 421              	.LBE411:
 422              	.LBE475:
 423              	.LBE490:
 424              		.loc 1 111 16 view .LVU110
 425 0082 03EB8803 		add	r3, r3, r8, lsl #2
 426              	.LBB491:
 427              	.LBB476:
 428              	.LBB424:
 429              	.LBB425:
  90:delayline_oct.h ****         int32_t int_delay_secondTap = static_cast<int32_t>(delay_float * secondTapFraction);
  91:delayline_oct.h ****         frac_secondTap             = delay_float * secondTapFraction - static_cast<float>(int_delay
  92:delayline_oct.h ****         delay_secondTap = static_cast<size_t>(int_delay_secondTap) < max_size ? int_delay_secondTap
  93:delayline_oct.h ****                                                            : max_size - 1;
  94:delayline_oct.h ****     }
  95:delayline_oct.h **** 
  96:delayline_oct.h ****     /** writes the sample of type T to the delay line, and advances the write ptr
  97:delayline_oct.h ****     */
  98:delayline_oct.h ****     inline void Write(const T sample)
  99:delayline_oct.h ****     {
 100:delayline_oct.h ****         line_[write_ptr_] = sample;
 101:delayline_oct.h ****         write_ptr_        = (write_ptr_ - 1 + max_size) % max_size;
 102:delayline_oct.h ****     }
 103:delayline_oct.h **** 
 104:delayline_oct.h ****     /** returns the next sample of type T in the delay line, interpolated if necessary.
 105:delayline_oct.h ****     */
 106:delayline_oct.h ****     inline const T Read() const
ARM GAS  /tmp/cciqVpdV.s 			page 26


 107:delayline_oct.h ****     {
 108:delayline_oct.h ****         T a = line_[(write_ptr_ * speed + delay_) % max_size];
 430              		.loc 12 108 51 view .LVU111
 431 0086 8E4C     		ldr	r4, .L15+32
 432              	.LBE425:
 433              	.LBE424:
 434              	.LBE476:
 435              	.LBE491:
 110:Neptune.cpp   ****         inputR = in[1][i];
 436              		.loc 1 110 16 view .LVU112
 437 0088 01EB8801 		add	r1, r1, r8, lsl #2
 438              	.LBB492:
 439              	.LBB477:
 440              	.LBB436:
 441              	.LBB426:
 442              		.loc 12 108 33 view .LVU113
 443 008c DCF80C08 		ldr	r0, [ip, #2060]
 444              	.LBE426:
 445              	.LBE436:
 446              	.LBE477:
 447              	.LBE492:
 448              		.loc 1 111 16 view .LVU114
 449 0090 D3ED008A 		vldr.32	s17, [r3]
 108:Neptune.cpp   ****     {
 450              		.loc 1 108 5 discriminator 3 view .LVU115
 451 0094 08F10108 		add	r8, r8, #1
 452              	.LVL7:
 110:Neptune.cpp   ****         inputR = in[1][i];
 453              		.loc 1 110 16 view .LVU116
 454 0098 91ED009A 		vldr.32	s18, [r1]
 455              	.LVL8:
 456              		.loc 1 111 9 is_stmt 1 view .LVU117
 112:Neptune.cpp   **** 
 113:Neptune.cpp   ****         // Traitement du son par les lignes de delay
 114:Neptune.cpp   ****         delay_outL = delayL.Process(inputL);
 457              		.loc 1 114 9 view .LVU118
 458              	.LBB493:
 459              	.LBI403:
  43:Neptune.cpp   ****     {
 460              		.loc 1 43 11 view .LVU119
 461              	.LBB478:
  46:Neptune.cpp   ****         del->SetDelay(currentDelay);
 462              		.loc 1 46 9 view .LVU120
 463              	.LBB437:
 464              	.LBI405:
 151:../../DaisySP/Source/Utility/dsp.h **** {
 465              		.loc 13 151 13 view .LVU121
 466              	.LBB408:
 153:../../DaisySP/Source/Utility/dsp.h **** }
 467              		.loc 13 153 5 view .LVU122
 468              	.LBE408:
 469              	.LBE437:
 470              	.LBB438:
 471              	.LBB413:
  83:delayline_oct.h ****         frac_             = delay - static_cast<float>(int_delay);
 472              		.loc 12 83 17 is_stmt 0 view .LVU123
 473 009c BDEEE77A 		vcvt.s32.f32	s14, s15
ARM GAS  /tmp/cciqVpdV.s 			page 27


 474              	.LBE413:
 475              	.LBE438:
 476              	.LBB439:
 477              	.LBB427:
 478              		.loc 12 108 33 view .LVU124
 479 00a0 5168     		ldr	r1, [r2, #4]
 480              		.loc 12 108 51 view .LVU125
 481 00a2 DFF82CB2 		ldr	fp, .L15+48
 482              	.LBE427:
 483              	.LBE439:
 484              	.LBB440:
 485              	.LBB409:
 153:../../DaisySP/Source/Utility/dsp.h **** }
 486              		.loc 13 153 9 view .LVU126
 487 00a6 C7ED017A 		vstr.32	s15, [r7, #4]
 488              	.LVL9:
 153:../../DaisySP/Source/Utility/dsp.h **** }
 489              		.loc 13 153 9 view .LVU127
 490              	.LBE409:
 491              	.LBE440:
  47:Neptune.cpp   **** 
 492              		.loc 1 47 9 is_stmt 1 view .LVU128
 493              	.LBB441:
 494              	.LBI411:
  81:delayline_oct.h ****     {
 495              		.loc 12 81 17 view .LVU129
 496              	.LBB414:
  85:delayline_oct.h ****                                                            : max_size - 1;
 497              		.loc 12 85 60 is_stmt 0 view .LVU130
 498 00aa 17EE103A 		vmov	r3, s14	@ int
  84:delayline_oct.h ****         delay_ = static_cast<size_t>(int_delay) < max_size ? int_delay
 499              		.loc 12 84 37 view .LVU131
 500 00ae B8EEC77A 		vcvt.f32.s32	s14, s14
 501              	.LVL10:
  85:delayline_oct.h ****                                                            : max_size - 1;
 502              		.loc 12 85 60 view .LVU132
 503 00b2 5345     		cmp	r3, r10
  84:delayline_oct.h ****         delay_ = static_cast<size_t>(int_delay) < max_size ? int_delay
 504              		.loc 12 84 35 view .LVU133
 505 00b4 37EEC77A 		vsub.f32	s14, s15, s14
  85:delayline_oct.h ****                                                            : max_size - 1;
 506              		.loc 12 85 60 view .LVU134
 507 00b8 28BF     		it	cs
 508 00ba 5346     		movcs	r3, r10
 509              	.LVL11:
  85:delayline_oct.h ****                                                            : max_size - 1;
 510              		.loc 12 85 16 view .LVU135
 511 00bc 9360     		str	r3, [r2, #8]
 512              	.LBE414:
 513              	.LBE441:
 514              	.LBB442:
 515              	.LBB428:
 516              		.loc 12 108 41 view .LVU136
 517 00be 00FB0133 		mla	r3, r0, r1, r3
 518              	.LBE428:
 519              	.LBE442:
 520              	.LBB443:
ARM GAS  /tmp/cciqVpdV.s 			page 28


 521              	.LBB415:
  90:delayline_oct.h ****         frac_secondTap             = delay_float * secondTapFraction - static_cast<float>(int_delay
 522              		.loc 12 90 74 view .LVU137
 523 00c2 0CF61C01 		addw	r1, ip, #2076
  84:delayline_oct.h ****         delay_ = static_cast<size_t>(int_delay) < max_size ? int_delay
 524              		.loc 12 84 27 view .LVU138
 525 00c6 82ED007A 		vstr.32	s14, [r2]
 526              	.LBE415:
 527              	.LBE443:
 528              	.LBB444:
 529              	.LBB429:
 530              		.loc 12 108 51 view .LVU139
 531 00ca A4FB03E0 		umull	lr, r0, r4, r3
 532              	.LBE429:
 533              	.LBE444:
 534              	.LBB445:
 535              	.LBB416:
  90:delayline_oct.h ****         frac_secondTap             = delay_float * secondTapFraction - static_cast<float>(int_delay
 536              		.loc 12 90 72 view .LVU140
 537 00ce D1ED006A 		vldr.32	s13, [r1]
 538              	.LBE416:
 539              	.LBE445:
 540              	.LBB446:
 541              	.LBB430:
 109:delayline_oct.h ****         T b = line_[(write_ptr_ * speed + delay_ + 1) % max_size];
 542              		.loc 12 109 50 view .LVU141
 543 00d2 591C     		adds	r1, r3, #1
 108:delayline_oct.h ****         T b = line_[(write_ptr_ * speed + delay_ + 1) % max_size];
 544              		.loc 12 108 51 view .LVU142
 545 00d4 000B     		lsrs	r0, r0, #12
 546              	.LBE430:
 547              	.LBE446:
 548              	.LBB447:
 549              	.LBB417:
  90:delayline_oct.h ****         frac_secondTap             = delay_float * secondTapFraction - static_cast<float>(int_delay
 550              		.loc 12 90 72 view .LVU143
 551 00d6 67EEA66A 		vmul.f32	s13, s15, s13
 552              	.LBE417:
 553              	.LBE447:
 554              	.LBB448:
 555              	.LBB431:
 108:delayline_oct.h ****         T b = line_[(write_ptr_ * speed + delay_ + 1) % max_size];
 556              		.loc 12 108 51 view .LVU144
 557 00da 0BFB1033 		mls	r3, fp, r0, r3
 558              	.LBE431:
 559              	.LBE448:
 560              	.LBB449:
 561              	.LBB418:
  90:delayline_oct.h ****         frac_secondTap             = delay_float * secondTapFraction - static_cast<float>(int_delay
 562              		.loc 12 90 17 view .LVU145
 563 00de BDEEE66A 		vcvt.s32.f32	s12, s13
 564              	.LVL12:
  90:delayline_oct.h ****         frac_secondTap             = delay_float * secondTapFraction - static_cast<float>(int_delay
 565              		.loc 12 90 17 view .LVU146
 566              	.LBE418:
 567              	.LBE449:
 568              	.LBB450:
ARM GAS  /tmp/cciqVpdV.s 			page 29


 569              	.LBB432:
 108:delayline_oct.h ****         T b = line_[(write_ptr_ * speed + delay_ + 1) % max_size];
 570              		.loc 12 108 11 view .LVU147
 571 00e2 02EB8303 		add	r3, r2, r3, lsl #2
 572 00e6 93ED030A 		vldr.32	s0, [r3, #12]
 573              		.loc 12 109 55 view .LVU148
 574 00ea A4FB0103 		umull	r0, r3, r4, r1
 575              	.LBE432:
 576              	.LBE450:
 577              	.LBB451:
 578              	.LBB419:
  91:delayline_oct.h ****         delay_secondTap = static_cast<size_t>(int_delay_secondTap) < max_size ? int_delay_secondTap
 579              		.loc 12 91 72 view .LVU149
 580 00ee F8EEC65A 		vcvt.f32.s32	s11, s12
 581              	.LBE419:
 582              	.LBE451:
  53:Neptune.cpp   **** 
 583              		.loc 1 53 39 view .LVU150
 584 00f2 7448     		ldr	r0, .L15+36
 585              	.LBB452:
 586              	.LBB433:
 587              		.loc 12 109 55 view .LVU151
 588 00f4 1B0B     		lsrs	r3, r3, #12
 589 00f6 0BFB1311 		mls	r1, fp, r3, r1
 590              	.LBE433:
 591              	.LBE452:
 592              	.LBB453:
 593              	.LBB420:
  89:delayline_oct.h ****         int32_t int_delay_secondTap = static_cast<int32_t>(delay_float * secondTapFraction);
 594              		.loc 12 89 21 view .LVU152
 595 00fa 0CF61803 		addw	r3, ip, #2072
  91:delayline_oct.h ****         delay_secondTap = static_cast<size_t>(int_delay_secondTap) < max_size ? int_delay_secondTap
 596              		.loc 12 91 70 view .LVU153
 597 00fe 76EEE56A 		vsub.f32	s13, s13, s11
 598              	.LBE420:
 599              	.LBE453:
 600              	.LBB454:
 601              	.LBB434:
 602              		.loc 12 109 11 view .LVU154
 603 0102 02EB8102 		add	r2, r2, r1, lsl #2
 604              	.LVL13:
 110:delayline_oct.h ****         return a + (b - a) * frac_;
 605              		.loc 12 110 23 view .LVU155
 606 0106 D2ED035A 		vldr.32	s11, [r2, #12]
 607              	.LBE434:
 608              	.LBE454:
 609              	.LBB455:
 610              	.LBB421:
  89:delayline_oct.h ****         int32_t int_delay_secondTap = static_cast<int32_t>(delay_float * secondTapFraction);
 611              		.loc 12 89 21 view .LVU156
 612 010a C3ED007A 		vstr.32	s15, [r3]
  91:delayline_oct.h ****         delay_secondTap = static_cast<size_t>(int_delay_secondTap) < max_size ? int_delay_secondTap
 613              		.loc 12 91 36 view .LVU157
 614 010e 0CF50163 		add	r3, ip, #2064
 615              	.LBE421:
 616              	.LBE455:
 617              	.LBB456:
ARM GAS  /tmp/cciqVpdV.s 			page 30


 618              	.LBB435:
 619              		.loc 12 110 23 view .LVU158
 620 0112 75EEC05A 		vsub.f32	s11, s11, s0
 621              	.LBE435:
 622              	.LBE456:
 623              	.LBB457:
 624              	.LBB422:
  91:delayline_oct.h ****         delay_secondTap = static_cast<size_t>(int_delay_secondTap) < max_size ? int_delay_secondTap
 625              		.loc 12 91 36 view .LVU159
 626 0116 C3ED006A 		vstr.32	s13, [r3]
  92:delayline_oct.h ****                                                            : max_size - 1;
 627              		.loc 12 92 79 view .LVU160
 628 011a 16EE103A 		vmov	r3, s12	@ int
 629 011e 5345     		cmp	r3, r10
 630              	.LBE422:
 631              	.LBE457:
  53:Neptune.cpp   **** 
 632              		.loc 1 53 39 view .LVU161
 633 0120 A5EE870A 		vfma.f32	s0, s11, s14
 634              	.LBB458:
 635              	.LBB423:
  92:delayline_oct.h ****                                                            : max_size - 1;
 636              		.loc 12 92 79 view .LVU162
 637 0124 28BF     		it	cs
 638 0126 5346     		movcs	r3, r10
  92:delayline_oct.h ****                                                            : max_size - 1;
 639              		.loc 12 92 25 view .LVU163
 640 0128 CCF81438 		str	r3, [ip, #2068]
 641              	.LVL14:
  92:delayline_oct.h ****                                                            : max_size - 1;
 642              		.loc 12 92 25 view .LVU164
 643              	.LBE423:
 644              	.LBE458:
  50:Neptune.cpp   **** 
 645              		.loc 1 50 9 is_stmt 1 view .LVU165
 646              	.LBB459:
 647              	.LBI424:
 106:delayline_oct.h ****     {
 648              		.loc 12 106 20 view .LVU166
 106:delayline_oct.h ****     {
 649              		.loc 12 106 20 is_stmt 0 view .LVU167
 650              	.LBE459:
  53:Neptune.cpp   **** 
 651              		.loc 1 53 9 is_stmt 1 view .LVU168
  53:Neptune.cpp   **** 
 652              		.loc 1 53 39 is_stmt 0 view .LVU169
 653 012c FFF7FEFF 		bl	_ZN7daisysp4Tone7ProcessEf
 654              	.LVL15:
  56:Neptune.cpp   ****             del->Write((feedback * read) + in);
 655              		.loc 1 56 9 view .LVU170
 656 0130 D7ED047A 		vldr.32	s15, [r7, #16]
 657              	.LBE478:
 658              	.LBE493:
 659              	.LBB494:
 660              	.LBB495:
 661              	.LBB496:
 662              	.LBB497:
ARM GAS  /tmp/cciqVpdV.s 			page 31


 153:../../DaisySP/Source/Utility/dsp.h **** }
 663              		.loc 13 153 24 view .LVU171
 664 0134 D5ED026A 		vldr.32	s13, [r5, #8]
 665              	.LBE497:
 666              	.LBE496:
 667              	.LBE495:
 668              	.LBE494:
 669              	.LBB595:
 670              	.LBB479:
  53:Neptune.cpp   **** 
 671              		.loc 1 53 39 view .LVU172
 672 0138 B0EE408A 		vmov.f32	s16, s0
 673              	.LVL16:
  56:Neptune.cpp   ****             del->Write((feedback * read) + in);
 674              		.loc 1 56 9 is_stmt 1 view .LVU173
 675 013c F5EE407A 		vcmp.f32	s15, #0
 676              	.LBE479:
 677              	.LBE595:
 678              	.LBB596:
 679              	.LBB580:
 680              	.LBB503:
 681              	.LBB498:
 153:../../DaisySP/Source/Utility/dsp.h **** }
 682              		.loc 13 153 5 is_stmt 0 view .LVU174
 683 0140 D5ED017A 		vldr.32	s15, [r5, #4]
 684              	.LBE498:
 685              	.LBE503:
 686              	.LBE580:
 687              	.LBE596:
 688              	.LBB597:
 689              	.LBB480:
  57:Neptune.cpp   ****         } else {
 690              		.loc 1 57 34 view .LVU175
 691 0144 97ED037A 		vldr.32	s14, [r7, #12]
 692              	.LBE480:
 693              	.LBE597:
 694              	.LBB598:
 695              	.LBB581:
 696              	.LBB504:
 697              	.LBB499:
 153:../../DaisySP/Source/Utility/dsp.h **** }
 698              		.loc 13 153 24 view .LVU176
 699 0148 76EEE76A 		vsub.f32	s13, s13, s15
 153:../../DaisySP/Source/Utility/dsp.h **** }
 700              		.loc 13 153 9 view .LVU177
 701 014c 9FED5B6A 		vldr.32	s12, .L15+28
 702              	.LBE499:
 703              	.LBE504:
 704              	.LBE581:
 705              	.LBE598:
 706              	.LBB599:
 707              	.LBB481:
  57:Neptune.cpp   ****         } else {
 708              		.loc 1 57 13 view .LVU178
 709 0150 3968     		ldr	r1, [r7]
  57:Neptune.cpp   ****         } else {
 710              		.loc 1 57 34 view .LVU179
ARM GAS  /tmp/cciqVpdV.s 			page 32


 711 0152 20EE077A 		vmul.f32	s14, s0, s14
  56:Neptune.cpp   ****             del->Write((feedback * read) + in);
 712              		.loc 1 56 9 view .LVU180
 713 0156 F1EE10FA 		vmrs	APSR_nzcv, FPSCR
  57:Neptune.cpp   ****         } else {
 714              		.loc 1 57 13 is_stmt 1 view .LVU181
 715              	.LBE481:
 716              	.LBE599:
 717              	.LBB600:
 718              	.LBB582:
 719              	.LBB505:
 720              	.LBB500:
 153:../../DaisySP/Source/Utility/dsp.h **** }
 721              		.loc 13 153 9 is_stmt 0 view .LVU182
 722 015a E6EE867A 		vfma.f32	s15, s13, s12
 723              	.LBE500:
 724              	.LBE505:
 725              	.LBE582:
 726              	.LBE600:
 727              	.LBB601:
 728              	.LBB482:
 729              	.LBB460:
 730              	.LBB461:
 100:delayline_oct.h ****         write_ptr_        = (write_ptr_ - 1 + max_size) % max_size;
 731              		.loc 12 100 15 view .LVU183
 732 015e 4B68     		ldr	r3, [r1, #4]
 733              	.LBE461:
 734              	.LBE460:
  57:Neptune.cpp   ****         } else {
 735              		.loc 1 57 23 view .LVU184
 736 0160 18BF     		it	ne
 737 0162 37EE097A 		vaddne.f32	s14, s14, s18
 738              	.LVL17:
 739              	.LBB467:
 740              	.LBI460:
  98:delayline_oct.h ****     {
 741              		.loc 12 98 17 is_stmt 1 view .LVU185
 742              	.LBB462:
 101:delayline_oct.h ****     }
 743              		.loc 12 101 45 is_stmt 0 view .LVU186
 744 0166 9A44     		add	r10, r10, r3
 100:delayline_oct.h ****         write_ptr_        = (write_ptr_ - 1 + max_size) % max_size;
 745              		.loc 12 100 27 view .LVU187
 746 0168 01EB8303 		add	r3, r1, r3, lsl #2
 101:delayline_oct.h ****     }
 747              		.loc 12 101 57 view .LVU188
 748 016c A4FB0A24 		umull	r2, r4, r4, r10
 749              	.LBE462:
 750              	.LBE467:
 751              	.LBE482:
 752              	.LBE601:
 753              	.LBB602:
 754              	.LBB583:
  47:Neptune.cpp   **** 
 755              		.loc 1 47 9 view .LVU189
 756 0170 2A68     		ldr	r2, [r5]
 757              	.LBE583:
ARM GAS  /tmp/cciqVpdV.s 			page 33


 758              	.LBE602:
 759              	.LBB603:
 760              	.LBB483:
 761              	.LBB468:
 762              	.LBB463:
 100:delayline_oct.h ****         write_ptr_        = (write_ptr_ - 1 + max_size) % max_size;
 763              		.loc 12 100 27 view .LVU190
 764 0172 83ED037A 		vstr.32	s14, [r3, #12]
 765              	.LBE463:
 766              	.LBE468:
 767              	.LBE483:
 768              	.LBE603:
 769              	.LBB604:
 770              	.LBB584:
 771              	.LBB506:
 772              	.LBB507:
  83:delayline_oct.h ****         frac_             = delay - static_cast<float>(int_delay);
 773              		.loc 12 83 17 view .LVU191
 774 0176 BDEEE77A 		vcvt.s32.f32	s14, s15
 775              	.LBE507:
 776              	.LBE506:
 777              	.LBE584:
 778              	.LBE604:
 779              	.LBB605:
 780              	.LBB484:
 781              	.LBB469:
 782              	.LBB464:
 101:delayline_oct.h ****     }
 783              		.loc 12 101 57 view .LVU192
 784 017a 240B     		lsrs	r4, r4, #12
 785              	.LBE464:
 786              	.LBE469:
 787              	.LBE484:
 788              	.LBE605:
 789              	.LBB606:
 790              	.LBB585:
 791              	.LBB523:
 792              	.LBB508:
  89:delayline_oct.h ****         int32_t int_delay_secondTap = static_cast<int32_t>(delay_float * secondTapFraction);
 793              		.loc 12 89 21 view .LVU193
 794 017c 02F53B2C 		add	ip, r2, #765952
 795              	.LBE508:
 796              	.LBE523:
 797              	.LBE585:
 798              	.LBE606:
 799              	.LBB607:
 800              	.LBB485:
 801              	.LBB470:
 802              	.LBB465:
 101:delayline_oct.h ****     }
 803              		.loc 12 101 57 view .LVU194
 804 0180 0BFB14A4 		mls	r4, fp, r4, r10
 805              	.LBE465:
 806              	.LBE470:
 807              	.LBE485:
 808              	.LBE607:
 809              	.LBB608:
ARM GAS  /tmp/cciqVpdV.s 			page 34


 810              	.LBB586:
 811              	.LBB524:
 812              	.LBB509:
  85:delayline_oct.h ****                                                            : max_size - 1;
 813              		.loc 12 85 60 view .LVU195
 814 0184 DFF844A1 		ldr	r10, .L15+44
 815 0188 17EE103A 		vmov	r3, s14	@ int
 816              	.LBE509:
 817              	.LBE524:
 818              	.LBB525:
 819              	.LBB526:
 108:delayline_oct.h ****         T b = line_[(write_ptr_ * speed + delay_ + 1) % max_size];
 820              		.loc 12 108 33 view .LVU196
 821 018c DCF80C08 		ldr	r0, [ip, #2060]
 822              	.LBE526:
 823              	.LBE525:
 824              	.LBE586:
 825              	.LBE608:
 826              	.LBB609:
 827              	.LBB486:
 828              	.LBB471:
 829              	.LBB466:
 101:delayline_oct.h ****     }
 830              		.loc 12 101 27 view .LVU197
 831 0190 4C60     		str	r4, [r1, #4]
 832              	.LBE466:
 833              	.LBE471:
  62:Neptune.cpp   ****     }
 834              		.loc 1 62 9 is_stmt 1 view .LVU198
 835              	.LVL18:
  62:Neptune.cpp   ****     }
 836              		.loc 1 62 9 is_stmt 0 view .LVU199
 837              	.LBE486:
 838              	.LBE609:
 115:Neptune.cpp   ****         delay_outR = delayR.Process(inputR);
 839              		.loc 1 115 9 is_stmt 1 view .LVU200
 840              	.LBB610:
 841              	.LBI494:
  43:Neptune.cpp   ****     {
 842              		.loc 1 43 11 view .LVU201
 843              	.LBB587:
  46:Neptune.cpp   ****         del->SetDelay(currentDelay);
 844              		.loc 1 46 9 view .LVU202
 845              	.LBB537:
 846              	.LBI496:
 151:../../DaisySP/Source/Utility/dsp.h **** {
 847              		.loc 13 151 13 view .LVU203
 848              	.LBB501:
 153:../../DaisySP/Source/Utility/dsp.h **** }
 849              		.loc 13 153 5 view .LVU204
 850              	.LBE501:
 851              	.LBE537:
 852              	.LBB538:
 853              	.LBB510:
  84:delayline_oct.h ****         delay_ = static_cast<size_t>(int_delay) < max_size ? int_delay
 854              		.loc 12 84 37 is_stmt 0 view .LVU205
 855 0192 B8EEC77A 		vcvt.f32.s32	s14, s14
ARM GAS  /tmp/cciqVpdV.s 			page 35


  85:delayline_oct.h ****                                                            : max_size - 1;
 856              		.loc 12 85 60 view .LVU206
 857 0196 5345     		cmp	r3, r10
 858              	.LBE510:
 859              	.LBE538:
 860              	.LBB539:
 861              	.LBB527:
 108:delayline_oct.h ****         T b = line_[(write_ptr_ * speed + delay_ + 1) % max_size];
 862              		.loc 12 108 33 view .LVU207
 863 0198 5168     		ldr	r1, [r2, #4]
 108:delayline_oct.h ****         T b = line_[(write_ptr_ * speed + delay_ + 1) % max_size];
 864              		.loc 12 108 51 view .LVU208
 865 019a 494C     		ldr	r4, .L15+32
 866              	.LBE527:
 867              	.LBE539:
 868              	.LBB540:
 869              	.LBB511:
  85:delayline_oct.h ****                                                            : max_size - 1;
 870              		.loc 12 85 60 view .LVU209
 871 019c 28BF     		it	cs
 872 019e 5346     		movcs	r3, r10
 873              	.LBE511:
 874              	.LBE540:
 875              	.LBB541:
 876              	.LBB528:
 108:delayline_oct.h ****         T b = line_[(write_ptr_ * speed + delay_ + 1) % max_size];
 877              		.loc 12 108 51 view .LVU210
 878 01a0 DFF82CB1 		ldr	fp, .L15+48
 879              	.LBE528:
 880              	.LBE541:
 881              	.LBB542:
 882              	.LBB512:
  84:delayline_oct.h ****         delay_ = static_cast<size_t>(int_delay) < max_size ? int_delay
 883              		.loc 12 84 35 view .LVU211
 884 01a4 37EEC77A 		vsub.f32	s14, s15, s14
 885              	.LBE512:
 886              	.LBE542:
 887              	.LBB543:
 888              	.LBB502:
 153:../../DaisySP/Source/Utility/dsp.h **** }
 889              		.loc 13 153 9 view .LVU212
 890 01a8 C5ED017A 		vstr.32	s15, [r5, #4]
 891              	.LVL19:
 153:../../DaisySP/Source/Utility/dsp.h **** }
 892              		.loc 13 153 9 view .LVU213
 893              	.LBE502:
 894              	.LBE543:
  47:Neptune.cpp   **** 
 895              		.loc 1 47 9 is_stmt 1 view .LVU214
 896              	.LBB544:
 897              	.LBI506:
  81:delayline_oct.h ****     {
 898              		.loc 12 81 17 view .LVU215
 899              	.LBB513:
  85:delayline_oct.h ****                                                            : max_size - 1;
 900              		.loc 12 85 16 is_stmt 0 view .LVU216
 901 01ac 9360     		str	r3, [r2, #8]
ARM GAS  /tmp/cciqVpdV.s 			page 36


 902              	.LBE513:
 903              	.LBE544:
 904              	.LBB545:
 905              	.LBB529:
 108:delayline_oct.h ****         T b = line_[(write_ptr_ * speed + delay_ + 1) % max_size];
 906              		.loc 12 108 41 view .LVU217
 907 01ae 00FB0133 		mla	r3, r0, r1, r3
 908              	.LBE529:
 909              	.LBE545:
 910              	.LBB546:
 911              	.LBB514:
  90:delayline_oct.h ****         frac_secondTap             = delay_float * secondTapFraction - static_cast<float>(int_delay
 912              		.loc 12 90 74 view .LVU218
 913 01b2 0CF61C01 		addw	r1, ip, #2076
  84:delayline_oct.h ****         delay_ = static_cast<size_t>(int_delay) < max_size ? int_delay
 914              		.loc 12 84 27 view .LVU219
 915 01b6 82ED007A 		vstr.32	s14, [r2]
 916              	.LBE514:
 917              	.LBE546:
 918              	.LBB547:
 919              	.LBB530:
 108:delayline_oct.h ****         T b = line_[(write_ptr_ * speed + delay_ + 1) % max_size];
 920              		.loc 12 108 51 view .LVU220
 921 01ba A4FB03E0 		umull	lr, r0, r4, r3
 922              	.LBE530:
 923              	.LBE547:
 924              	.LBB548:
 925              	.LBB515:
  90:delayline_oct.h ****         frac_secondTap             = delay_float * secondTapFraction - static_cast<float>(int_delay
 926              		.loc 12 90 72 view .LVU221
 927 01be D1ED006A 		vldr.32	s13, [r1]
 928              	.LBE515:
 929              	.LBE548:
 930              	.LBB549:
 931              	.LBB531:
 109:delayline_oct.h ****         return a + (b - a) * frac_;
 932              		.loc 12 109 50 view .LVU222
 933 01c2 591C     		adds	r1, r3, #1
 108:delayline_oct.h ****         T b = line_[(write_ptr_ * speed + delay_ + 1) % max_size];
 934              		.loc 12 108 51 view .LVU223
 935 01c4 000B     		lsrs	r0, r0, #12
 936              	.LBE531:
 937              	.LBE549:
 938              	.LBB550:
 939              	.LBB516:
  90:delayline_oct.h ****         frac_secondTap             = delay_float * secondTapFraction - static_cast<float>(int_delay
 940              		.loc 12 90 72 view .LVU224
 941 01c6 67EEA66A 		vmul.f32	s13, s15, s13
 942              	.LBE516:
 943              	.LBE550:
 944              	.LBB551:
 945              	.LBB532:
 108:delayline_oct.h ****         T b = line_[(write_ptr_ * speed + delay_ + 1) % max_size];
 946              		.loc 12 108 51 view .LVU225
 947 01ca 0BFB1033 		mls	r3, fp, r0, r3
 948              	.LBE532:
 949              	.LBE551:
ARM GAS  /tmp/cciqVpdV.s 			page 37


 950              	.LBB552:
 951              	.LBB517:
  90:delayline_oct.h ****         frac_secondTap             = delay_float * secondTapFraction - static_cast<float>(int_delay
 952              		.loc 12 90 17 view .LVU226
 953 01ce BDEEE66A 		vcvt.s32.f32	s12, s13
 954              	.LVL20:
  90:delayline_oct.h ****         frac_secondTap             = delay_float * secondTapFraction - static_cast<float>(int_delay
 955              		.loc 12 90 17 view .LVU227
 956              	.LBE517:
 957              	.LBE552:
 958              	.LBB553:
 959              	.LBB533:
 108:delayline_oct.h ****         T b = line_[(write_ptr_ * speed + delay_ + 1) % max_size];
 960              		.loc 12 108 11 view .LVU228
 961 01d2 02EB8303 		add	r3, r2, r3, lsl #2
 962 01d6 93ED030A 		vldr.32	s0, [r3, #12]
 963              	.LVL21:
 109:delayline_oct.h ****         return a + (b - a) * frac_;
 964              		.loc 12 109 55 view .LVU229
 965 01da A4FB0103 		umull	r0, r3, r4, r1
 966              	.LBE533:
 967              	.LBE553:
 968              	.LBB554:
 969              	.LBB518:
  91:delayline_oct.h ****         delay_secondTap = static_cast<size_t>(int_delay_secondTap) < max_size ? int_delay_secondTap
 970              		.loc 12 91 72 view .LVU230
 971 01de F8EEC65A 		vcvt.f32.s32	s11, s12
 972              	.LBE518:
 973              	.LBE554:
  53:Neptune.cpp   **** 
 974              		.loc 1 53 39 view .LVU231
 975 01e2 3848     		ldr	r0, .L15+36
 976              	.LBB555:
 977              	.LBB534:
 109:delayline_oct.h ****         return a + (b - a) * frac_;
 978              		.loc 12 109 55 view .LVU232
 979 01e4 1B0B     		lsrs	r3, r3, #12
 980 01e6 0BFB1311 		mls	r1, fp, r3, r1
 981              	.LBE534:
 982              	.LBE555:
 983              	.LBB556:
 984              	.LBB519:
  89:delayline_oct.h ****         int32_t int_delay_secondTap = static_cast<int32_t>(delay_float * secondTapFraction);
 985              		.loc 12 89 21 view .LVU233
 986 01ea 0CF61803 		addw	r3, ip, #2072
  91:delayline_oct.h ****         delay_secondTap = static_cast<size_t>(int_delay_secondTap) < max_size ? int_delay_secondTap
 987              		.loc 12 91 70 view .LVU234
 988 01ee 76EEE56A 		vsub.f32	s13, s13, s11
 989              	.LBE519:
 990              	.LBE556:
 991              	.LBB557:
 992              	.LBB535:
 109:delayline_oct.h ****         return a + (b - a) * frac_;
 993              		.loc 12 109 11 view .LVU235
 994 01f2 02EB8102 		add	r2, r2, r1, lsl #2
 995              	.LVL22:
 996              		.loc 12 110 23 view .LVU236
ARM GAS  /tmp/cciqVpdV.s 			page 38


 997 01f6 D2ED035A 		vldr.32	s11, [r2, #12]
 998              	.LBE535:
 999              	.LBE557:
 1000              	.LBB558:
 1001              	.LBB520:
  89:delayline_oct.h ****         int32_t int_delay_secondTap = static_cast<int32_t>(delay_float * secondTapFraction);
 1002              		.loc 12 89 21 view .LVU237
 1003 01fa C3ED007A 		vstr.32	s15, [r3]
  91:delayline_oct.h ****         delay_secondTap = static_cast<size_t>(int_delay_secondTap) < max_size ? int_delay_secondTap
 1004              		.loc 12 91 36 view .LVU238
 1005 01fe 0CF50163 		add	r3, ip, #2064
 1006              	.LBE520:
 1007              	.LBE558:
 1008              	.LBB559:
 1009              	.LBB536:
 1010              		.loc 12 110 23 view .LVU239
 1011 0202 75EEC05A 		vsub.f32	s11, s11, s0
 1012              	.LBE536:
 1013              	.LBE559:
 1014              	.LBB560:
 1015              	.LBB521:
  91:delayline_oct.h ****         delay_secondTap = static_cast<size_t>(int_delay_secondTap) < max_size ? int_delay_secondTap
 1016              		.loc 12 91 36 view .LVU240
 1017 0206 C3ED006A 		vstr.32	s13, [r3]
  92:delayline_oct.h ****                                                            : max_size - 1;
 1018              		.loc 12 92 79 view .LVU241
 1019 020a 16EE103A 		vmov	r3, s12	@ int
 1020 020e 5345     		cmp	r3, r10
 1021              	.LBE521:
 1022              	.LBE560:
  53:Neptune.cpp   **** 
 1023              		.loc 1 53 39 view .LVU242
 1024 0210 A5EE870A 		vfma.f32	s0, s11, s14
 1025              	.LBB561:
 1026              	.LBB522:
  92:delayline_oct.h ****                                                            : max_size - 1;
 1027              		.loc 12 92 79 view .LVU243
 1028 0214 28BF     		it	cs
 1029 0216 5346     		movcs	r3, r10
  92:delayline_oct.h ****                                                            : max_size - 1;
 1030              		.loc 12 92 25 view .LVU244
 1031 0218 CCF81438 		str	r3, [ip, #2068]
 1032              	.LVL23:
  92:delayline_oct.h ****                                                            : max_size - 1;
 1033              		.loc 12 92 25 view .LVU245
 1034              	.LBE522:
 1035              	.LBE561:
  50:Neptune.cpp   **** 
 1036              		.loc 1 50 9 is_stmt 1 view .LVU246
 1037              	.LBB562:
 1038              	.LBI525:
 106:delayline_oct.h ****     {
 1039              		.loc 12 106 20 view .LVU247
 106:delayline_oct.h ****     {
 1040              		.loc 12 106 20 is_stmt 0 view .LVU248
 1041              	.LBE562:
  53:Neptune.cpp   **** 
ARM GAS  /tmp/cciqVpdV.s 			page 39


 1042              		.loc 1 53 9 is_stmt 1 view .LVU249
  53:Neptune.cpp   **** 
 1043              		.loc 1 53 39 is_stmt 0 view .LVU250
 1044 021c FFF7FEFF 		bl	_ZN7daisysp4Tone7ProcessEf
 1045              	.LVL24:
  56:Neptune.cpp   ****             del->Write((feedback * read) + in);
 1046              		.loc 1 56 9 is_stmt 1 view .LVU251
  57:Neptune.cpp   ****         } else {
 1047              		.loc 1 57 13 is_stmt 0 view .LVU252
 1048 0220 2968     		ldr	r1, [r5]
  56:Neptune.cpp   ****             del->Write((feedback * read) + in);
 1049              		.loc 1 56 9 view .LVU253
 1050 0222 95ED047A 		vldr.32	s14, [r5, #16]
 1051              	.LBB563:
 1052              	.LBB564:
 100:delayline_oct.h ****         write_ptr_        = (write_ptr_ - 1 + max_size) % max_size;
 1053              		.loc 12 100 15 view .LVU254
 1054 0226 4B68     		ldr	r3, [r1, #4]
 1055              	.LBE564:
 1056              	.LBE563:
  56:Neptune.cpp   ****             del->Write((feedback * read) + in);
 1057              		.loc 1 56 9 view .LVU255
 1058 0228 B5EE407A 		vcmp.f32	s14, #0
  57:Neptune.cpp   ****         } else {
 1059              		.loc 1 57 34 view .LVU256
 1060 022c D5ED037A 		vldr.32	s15, [r5, #12]
 1061              	.LBB572:
 1062              	.LBB565:
 101:delayline_oct.h ****     }
 1063              		.loc 12 101 45 view .LVU257
 1064 0230 9A44     		add	r10, r10, r3
 1065              	.LBE565:
 1066              	.LBE572:
 1067              	.LBE587:
 1068              	.LBE610:
 116:Neptune.cpp   **** 
 117:Neptune.cpp   ****         // Mixage du son original (dry) et du son traité (wet)
 118:Neptune.cpp   ****         out[0][i] = inputL * dryMix + delay_outL * wetMix;
 1069              		.loc 1 118 19 view .LVU258
 1070 0232 99ED007A 		vldr.32	s14, [r9]
 1071              	.LBB611:
 1072              	.LBB588:
  57:Neptune.cpp   ****         } else {
 1073              		.loc 1 57 34 view .LVU259
 1074 0236 60EE277A 		vmul.f32	s15, s0, s15
 1075              	.LBE588:
 1076              	.LBE611:
 1077              		.loc 1 118 17 view .LVU260
 1078 023a 0398     		ldr	r0, [sp, #12]
 1079              	.LBB612:
 1080              	.LBB589:
 1081              	.LBB573:
 1082              	.LBB566:
 101:delayline_oct.h ****     }
 1083              		.loc 12 101 57 view .LVU261
 1084 023c A4FB0A24 		umull	r2, r4, r4, r10
 1085              	.LBE566:
ARM GAS  /tmp/cciqVpdV.s 			page 40


 1086              	.LBE573:
 1087              	.LBE589:
 1088              	.LBE612:
 1089              		.loc 1 118 50 view .LVU262
 1090 0240 174A     		ldr	r2, .L15
 1091              	.LBB613:
 1092              	.LBB590:
  56:Neptune.cpp   ****             del->Write((feedback * read) + in);
 1093              		.loc 1 56 9 view .LVU263
 1094 0242 F1EE10FA 		vmrs	APSR_nzcv, FPSCR
  57:Neptune.cpp   ****         } else {
 1095              		.loc 1 57 13 is_stmt 1 view .LVU264
 1096              	.LBB574:
 1097              	.LBB567:
 100:delayline_oct.h ****         write_ptr_        = (write_ptr_ - 1 + max_size) % max_size;
 1098              		.loc 12 100 27 is_stmt 0 view .LVU265
 1099 0246 01EB8303 		add	r3, r1, r3, lsl #2
 1100              	.LBE567:
 1101              	.LBE574:
 1102              	.LBE590:
 1103              	.LBE613:
 1104              		.loc 1 118 50 view .LVU266
 1105 024a D2ED006A 		vldr.32	s13, [r2]
 1106              	.LBB614:
 1107              	.LBB591:
 1108              	.LBB575:
 1109              	.LBB568:
 101:delayline_oct.h ****     }
 1110              		.loc 12 101 57 view .LVU267
 1111 024e 4FEA1434 		lsr	r4, r4, #12
 1112              	.LBE568:
 1113              	.LBE575:
 1114              	.LBE591:
 1115              	.LBE614:
 1116              		.loc 1 118 17 view .LVU268
 1117 0252 0268     		ldr	r2, [r0]
 1118              		.loc 1 118 50 view .LVU269
 1119 0254 28EE268A 		vmul.f32	s16, s16, s13
 1120              	.LVL25:
 1121              	.LBB615:
 1122              	.LBB592:
 1123              	.LBB576:
 1124              	.LBB569:
 101:delayline_oct.h ****     }
 1125              		.loc 12 101 57 view .LVU270
 1126 0258 0BFB14A4 		mls	r4, fp, r4, r10
 1127              	.LBE569:
 1128              	.LBE576:
  57:Neptune.cpp   ****         } else {
 1129              		.loc 1 57 23 view .LVU271
 1130 025c 18BF     		it	ne
 1131 025e 77EEA87A 		vaddne.f32	s15, s15, s17
 1132              	.LVL26:
 1133              	.LBB577:
 1134              	.LBI563:
  98:delayline_oct.h ****     {
 1135              		.loc 12 98 17 is_stmt 1 view .LVU272
ARM GAS  /tmp/cciqVpdV.s 			page 41


  98:delayline_oct.h ****     {
 1136              		.loc 12 98 17 is_stmt 0 view .LVU273
 1137              	.LBE577:
 1138              	.LBE592:
 1139              	.LBE615:
 1140              		.loc 1 118 17 view .LVU274
 1141 0262 3244     		add	r2, r2, r6
 1142              		.loc 1 118 19 view .LVU275
 1143 0264 A7EE098A 		vfma.f32	s16, s14, s18
 1144              	.LBB616:
 1145              	.LBB593:
 1146              	.LBB578:
 1147              	.LBB570:
 100:delayline_oct.h ****         write_ptr_        = (write_ptr_ - 1 + max_size) % max_size;
 1148              		.loc 12 100 27 view .LVU276
 1149 0268 C3ED037A 		vstr.32	s15, [r3, #12]
 1150              	.LBE570:
 1151              	.LBE578:
 1152              	.LBE593:
 1153              	.LBE616:
 119:Neptune.cpp   ****         out[1][i] = inputR * dryMix + delay_outR * wetMix;
 1154              		.loc 1 119 17 view .LVU277
 1155 026c 4368     		ldr	r3, [r0, #4]
 1156              	.LBB617:
 1157              	.LBB594:
 1158              	.LBB579:
 1159              	.LBB571:
 101:delayline_oct.h ****     }
 1160              		.loc 12 101 27 view .LVU278
 1161 026e 4C60     		str	r4, [r1, #4]
 1162              	.LBE571:
 1163              	.LBE579:
  62:Neptune.cpp   ****     }
 1164              		.loc 1 62 9 is_stmt 1 view .LVU279
 1165              	.LVL27:
  62:Neptune.cpp   ****     }
 1166              		.loc 1 62 9 is_stmt 0 view .LVU280
 1167              	.LBE594:
 1168              	.LBE617:
 118:Neptune.cpp   ****         out[1][i] = inputR * dryMix + delay_outR * wetMix;
 1169              		.loc 1 118 9 is_stmt 1 view .LVU281
 1170              		.loc 1 119 17 is_stmt 0 view .LVU282
 1171 0270 3344     		add	r3, r3, r6
 118:Neptune.cpp   ****         out[1][i] = inputR * dryMix + delay_outR * wetMix;
 1172              		.loc 1 118 19 view .LVU283
 1173 0272 82ED008A 		vstr.32	s16, [r2]
 1174              		.loc 1 119 9 is_stmt 1 view .LVU284
 1175              		.loc 1 119 50 is_stmt 0 view .LVU285
 1176 0276 0A4A     		ldr	r2, .L15
 1177              		.loc 1 119 19 view .LVU286
 1178 0278 D9ED007A 		vldr.32	s15, [r9]
 1179              		.loc 1 119 50 view .LVU287
 1180 027c 92ED007A 		vldr.32	s14, [r2]
 1181 0280 20EE070A 		vmul.f32	s0, s0, s14
 1182              	.LVL28:
 1183              		.loc 1 119 19 view .LVU288
 1184 0284 A7EEA80A 		vfma.f32	s0, s15, s17
ARM GAS  /tmp/cciqVpdV.s 			page 42


 1185 0288 83ED000A 		vstr.32	s0, [r3]
 108:Neptune.cpp   ****     {
 1186              		.loc 1 108 5 is_stmt 1 discriminator 3 view .LVU289
 1187              	.LVL29:
 108:Neptune.cpp   ****     {
 1188              		.loc 1 108 26 discriminator 1 view .LVU290
 1189 028c 019B     		ldr	r3, [sp, #4]
 1190 028e 4345     		cmp	r3, r8
 1191 0290 7FF4E3AE 		bne	.L14
 1192              	.LVL30:
 1193              	.L5:
 108:Neptune.cpp   ****     {
 1194              		.loc 1 108 26 is_stmt 0 discriminator 1 view .LVU291
 1195              	.LBE619:
 120:Neptune.cpp   ****     }
 121:Neptune.cpp   **** }
 1196              		.loc 1 121 1 view .LVU292
 1197 0294 05B0     		add	sp, sp, #20
 1198              		.cfi_def_cfa_offset 52
 1199              		@ sp needed
 1200 0296 BDEC048B 		vldm	sp!, {d8-d9}
 1201              		.cfi_restore 82
 1202              		.cfi_restore 83
 1203              		.cfi_restore 80
 1204              		.cfi_restore 81
 1205              		.cfi_def_cfa_offset 36
 1206 029a BDE8F08F 		pop	{r4, r5, r6, r7, r8, r9, r10, fp, pc}
 1207              	.L16:
 1208 029e 00BF     		.align	2
 1209              	.L15:
 1210 02a0 00000000 		.word	wetMix
 1211 02a4 00000000 		.word	delayL
 1212 02a8 00000000 		.word	delayR
 1213 02ac 83B4A746 		.word	1185395843
 1214 02b0 00001645 		.word	1159069696
 1215 02b4 00803B48 		.word	1211858944
 1216 02b8 3333333F 		.word	1060320051
 1217 02bc 17B75139 		.word	961656599
 1218 02c0 F1197605 		.word	91625969
 1219 02c4 00000000 		.word	toneOctLP
 1220 02c8 00000000 		.word	dryMix
 1221 02cc FFED0200 		.word	191999
 1222 02d0 00EE0200 		.word	192000
 1223              		.cfi_endproc
 1224              	.LFE5931:
 1226              		.section	.text.startup.main,"ax",%progbits
 1227              		.align	1
 1228              		.p2align 2,,3
 1229              		.global	main
 1230              		.syntax unified
 1231              		.thumb
 1232              		.thumb_func
 1234              	main:
 1235              	.LFB5932:
 122:Neptune.cpp   **** 
 123:Neptune.cpp   **** 
 124:Neptune.cpp   **** int main(void)
ARM GAS  /tmp/cciqVpdV.s 			page 43


 125:Neptune.cpp   **** {
 1236              		.loc 1 125 1 is_stmt 1 view -0
 1237              		.cfi_startproc
 1238              		@ args = 0, pretend = 0, frame = 0
 1239              		@ frame_needed = 0, uses_anonymous_args = 0
 126:Neptune.cpp   ****     float samplerate;
 1240              		.loc 1 126 5 view .LVU294
 127:Neptune.cpp   **** 
 128:Neptune.cpp   ****     // Initialisation du matériel Daisy
 129:Neptune.cpp   ****     hw.Init();
 1241              		.loc 1 129 5 view .LVU295
 125:Neptune.cpp   ****     float samplerate;
 1242              		.loc 1 125 1 is_stmt 0 view .LVU296
 1243 0000 2DE9F843 		push	{r3, r4, r5, r6, r7, r8, r9, lr}
 1244              		.cfi_def_cfa_offset 32
 1245              		.cfi_offset 3, -32
 1246              		.cfi_offset 4, -28
 1247              		.cfi_offset 5, -24
 1248              		.cfi_offset 6, -20
 1249              		.cfi_offset 7, -16
 1250              		.cfi_offset 8, -12
 1251              		.cfi_offset 9, -8
 1252              		.cfi_offset 14, -4
 1253              		.loc 1 129 12 view .LVU297
 1254 0004 0021     		movs	r1, #0
 1255 0006 2E48     		ldr	r0, .L20
 1256              	.LBB620:
 1257              	.LBB621:
 1258              	.LBB622:
  40:delayline_oct.h ****         secondTapFraction = 0.0;
 1259              		.loc 12 40 21 view .LVU298
 1260 0008 4FF07E55 		mov	r5, #1065353216
  36:delayline_oct.h ****         delay_     = 1;
 1261              		.loc 12 36 20 view .LVU299
 1262 000c 0124     		movs	r4, #1
 1263 000e 0026     		movs	r6, #0
 1264              	.LBE622:
 1265              	.LBE621:
 1266              	.LBE620:
 130:Neptune.cpp   ****     samplerate = hw.AudioSampleRate();
 131:Neptune.cpp   ****     hw.SetAudioBlockSize(48);
 132:Neptune.cpp   **** 
 133:Neptune.cpp   ****     // Initialisation des lignes de delay
 134:Neptune.cpp   ****     delayLineOctLeft.Init();
 135:Neptune.cpp   ****     delayL.del = &delayLineOctLeft;
 136:Neptune.cpp   ****     delayL.delayTarget = 2400;
 137:Neptune.cpp   ****     delayL.feedback = 0.5;
 1267              		.loc 1 137 21 view .LVU300
 1268 0010 4FF07C58 		mov	r8, #1056964608
 136:Neptune.cpp   ****     delayL.feedback = 0.5;
 1269              		.loc 1 136 24 view .LVU301
 1270 0014 DFF8D490 		ldr	r9, .L20+44
 1271              	.LBB634:
 1272              	.LBB629:
 1273              	.LBB624:
  41:delayline_oct.h ****     }
 1274              		.loc 12 41 27 view .LVU302
ARM GAS  /tmp/cciqVpdV.s 			page 44


 1275 0018 0027     		movs	r7, #0
 1276              	.LBE624:
 1277              	.LBE629:
 1278              	.LBE634:
 125:Neptune.cpp   ****     float samplerate;
 1279              		.loc 1 125 1 view .LVU303
 1280 001a 2DED028B 		vpush.64	{d8}
 1281              		.cfi_def_cfa_offset 40
 1282              		.cfi_offset 80, -40
 1283              		.cfi_offset 81, -36
 129:Neptune.cpp   ****     samplerate = hw.AudioSampleRate();
 1284              		.loc 1 129 12 view .LVU304
 1285 001e FFF7FEFF 		bl	_ZN5daisy10DaisyPetal4InitEb
 1286              	.LVL31:
 130:Neptune.cpp   ****     hw.SetAudioBlockSize(48);
 1287              		.loc 1 130 5 is_stmt 1 view .LVU305
 130:Neptune.cpp   ****     hw.SetAudioBlockSize(48);
 1288              		.loc 1 130 36 is_stmt 0 view .LVU306
 1289 0022 2748     		ldr	r0, .L20
 1290 0024 FFF7FEFF 		bl	_ZN5daisy10DaisyPetal15AudioSampleRateEv
 1291              	.LVL32:
 131:Neptune.cpp   **** 
 1292              		.loc 1 131 25 view .LVU307
 1293 0028 3021     		movs	r1, #48
 1294 002a 2548     		ldr	r0, .L20
 130:Neptune.cpp   ****     hw.SetAudioBlockSize(48);
 1295              		.loc 1 130 36 view .LVU308
 1296 002c B0EE408A 		vmov.f32	s16, s0
 1297              	.LVL33:
 131:Neptune.cpp   **** 
 1298              		.loc 1 131 5 is_stmt 1 view .LVU309
 131:Neptune.cpp   **** 
 1299              		.loc 1 131 25 is_stmt 0 view .LVU310
 1300 0030 FFF7FEFF 		bl	_ZN5daisy10DaisyPetal17SetAudioBlockSizeEj
 1301              	.LVL34:
 134:Neptune.cpp   ****     delayL.del = &delayLineOctLeft;
 1302              		.loc 1 134 5 is_stmt 1 view .LVU311
 1303              	.LBB635:
 1304              	.LBI620:
  27:delayline_oct.h ****     /** clears buffer, sets write ptr to 0, and delay to 1 sample.
 1305              		.loc 12 27 10 view .LVU312
 1306              	.LBB630:
 1307              	.LBI621:
  30:delayline_oct.h ****     {
 1308              		.loc 12 30 10 view .LVU313
 1309              	.LBB625:
 1310              	.LBB623:
  32:delayline_oct.h ****         {
 1311              		.loc 12 32 29 discriminator 1 view .LVU314
  34:delayline_oct.h ****         }
 1312              		.loc 12 34 22 is_stmt 0 view .LVU315
 1313 0034 234A     		ldr	r2, .L20+4
 1314 0036 0021     		movs	r1, #0
 1315 0038 2348     		ldr	r0, .L20+8
 1316 003a FFF7FEFF 		bl	memset
 1317              	.LVL35:
  34:delayline_oct.h ****         }
ARM GAS  /tmp/cciqVpdV.s 			page 45


 1318              		.loc 12 34 22 view .LVU316
 1319              	.LBE623:
  36:delayline_oct.h ****         delay_     = 1;
 1320              		.loc 12 36 20 view .LVU317
 1321 003e 2348     		ldr	r0, .L20+12
 1322              	.LBE625:
 1323              	.LBE630:
 1324              	.LBE635:
 1325              	.LBB636:
 1326              	.LBB637:
 1327              	.LBB638:
 1328              	.LBB639:
  34:delayline_oct.h ****         }
 1329              		.loc 12 34 22 view .LVU318
 1330 0040 3146     		mov	r1, r6
 1331              	.LBE639:
 1332              	.LBE638:
 1333              	.LBE637:
 1334              	.LBE636:
 1335              	.LBB654:
 1336              	.LBB631:
 1337              	.LBB626:
  38:delayline_oct.h ****         delay_secondTap = 1;
 1338              		.loc 12 38 20 view .LVU319
 1339 0042 00F53B23 		add	r3, r0, #765952
  40:delayline_oct.h ****         secondTapFraction = 0.0;
 1340              		.loc 12 40 21 view .LVU320
 1341 0046 03F61802 		addw	r2, r3, #2072
  38:delayline_oct.h ****         delay_secondTap = 1;
 1342              		.loc 12 38 20 view .LVU321
 1343 004a C3F80C48 		str	r4, [r3, #2060]
  39:delayline_oct.h ****         delay_float = 1.0;
 1344              		.loc 12 39 25 view .LVU322
 1345 004e C3F81448 		str	r4, [r3, #2068]
  41:delayline_oct.h ****     }
 1346              		.loc 12 41 27 view .LVU323
 1347 0052 03F61C03 		addw	r3, r3, #2076
  40:delayline_oct.h ****         secondTapFraction = 0.0;
 1348              		.loc 12 40 21 view .LVU324
 1349 0056 1560     		str	r5, [r2]	@ float
 1350              	.LBE626:
 1351              	.LBE631:
 1352              	.LBE654:
 135:Neptune.cpp   ****     delayL.delayTarget = 2400;
 1353              		.loc 1 135 16 view .LVU325
 1354 0058 1D4A     		ldr	r2, .L20+16
 1355              	.LBB655:
 1356              	.LBB632:
 1357              	.LBB627:
  41:delayline_oct.h ****     }
 1358              		.loc 12 41 27 view .LVU326
 1359 005a 1F60     		str	r7, [r3]	@ float
 1360              	.LVL36:
  41:delayline_oct.h ****     }
 1361              		.loc 12 41 27 view .LVU327
 1362              	.LBE627:
 1363              	.LBE632:
ARM GAS  /tmp/cciqVpdV.s 			page 46


 1364              	.LBE655:
 135:Neptune.cpp   ****     delayL.delayTarget = 2400;
 1365              		.loc 1 135 5 is_stmt 1 view .LVU328
 136:Neptune.cpp   ****     delayL.feedback = 0.5;
 1366              		.loc 1 136 5 view .LVU329
 135:Neptune.cpp   ****     delayL.delayTarget = 2400;
 1367              		.loc 1 135 16 is_stmt 0 view .LVU330
 1368 005c 1060     		str	r0, [r2]
 1369              		.loc 1 137 21 view .LVU331
 1370 005e C2F80C80 		str	r8, [r2, #12]	@ float
 138:Neptune.cpp   ****     delayL.active = true;
 1371              		.loc 1 138 19 view .LVU332
 1372 0062 1561     		str	r5, [r2, #16]	@ float
 136:Neptune.cpp   ****     delayL.feedback = 0.5;
 1373              		.loc 1 136 24 view .LVU333
 1374 0064 C2F80890 		str	r9, [r2, #8]	@ float
 137:Neptune.cpp   ****     delayL.active = true;
 1375              		.loc 1 137 5 is_stmt 1 view .LVU334
 1376              		.loc 1 138 5 view .LVU335
 139:Neptune.cpp   ****     delayL.del->setOctave(false); 
 1377              		.loc 1 139 5 view .LVU336
 140:Neptune.cpp   **** 
 141:Neptune.cpp   ****     delayLineOctRight.Init();
 1378              		.loc 1 141 5 view .LVU337
 1379              	.LVL37:
 1380              	.LBB656:
 1381              	.LBI636:
  27:delayline_oct.h ****     /** clears buffer, sets write ptr to 0, and delay to 1 sample.
 1382              		.loc 12 27 10 view .LVU338
 1383              	.LBB648:
 1384              	.LBI637:
  30:delayline_oct.h ****     {
 1385              		.loc 12 30 10 view .LVU339
 1386              	.LBB642:
 1387              	.LBB640:
  32:delayline_oct.h ****         {
 1388              		.loc 12 32 29 discriminator 1 view .LVU340
  34:delayline_oct.h ****         }
 1389              		.loc 12 34 22 is_stmt 0 view .LVU341
 1390 0068 164A     		ldr	r2, .L20+4
 1391              	.LBE640:
 1392              	.LBE642:
 1393              	.LBE648:
 1394              	.LBE656:
 1395              	.LBB657:
 1396              	.LBB633:
 1397              	.LBB628:
  36:delayline_oct.h ****         delay_     = 1;
 1398              		.loc 12 36 20 view .LVU342
 1399 006a C0E90164 		strd	r6, r4, [r0, #4]
 1400              	.LBE628:
 1401              	.LBE633:
 1402              	.LBE657:
 1403              	.LBB658:
 1404              	.LBB649:
 1405              	.LBB643:
 1406              	.LBB641:
ARM GAS  /tmp/cciqVpdV.s 			page 47


  34:delayline_oct.h ****         }
 1407              		.loc 12 34 22 view .LVU343
 1408 006e 1948     		ldr	r0, .L20+20
 1409 0070 FFF7FEFF 		bl	memset
 1410              	.LVL38:
  34:delayline_oct.h ****         }
 1411              		.loc 12 34 22 view .LVU344
 1412              	.LBE641:
  36:delayline_oct.h ****         delay_     = 1;
 1413              		.loc 12 36 20 view .LVU345
 1414 0074 1848     		ldr	r0, .L20+24
 1415              	.LBE643:
 1416              	.LBE649:
 1417              	.LBE658:
 142:Neptune.cpp   ****     delayR.del = &delayLineOctRight;
 1418              		.loc 1 142 16 view .LVU346
 1419 0076 194A     		ldr	r2, .L20+28
 143:Neptune.cpp   ****     delayR.delayTarget = 2400;
 144:Neptune.cpp   ****     delayR.feedback = 0.5;
 145:Neptune.cpp   ****     delayR.active = true;
 146:Neptune.cpp   ****     delayR.del->setOctave(false); 
 147:Neptune.cpp   **** 
 148:Neptune.cpp   ****     // Initialisation du filtre passe-bas
 149:Neptune.cpp   ****     toneOctLP.Init(samplerate);
 1420              		.loc 1 149 19 view .LVU347
 1421 0078 B0EE480A 		vmov.f32	s0, s16
 1422              	.LBB659:
 1423              	.LBB650:
 1424              	.LBB644:
  38:delayline_oct.h ****         delay_secondTap = 1;
 1425              		.loc 12 38 20 view .LVU348
 1426 007c 00F53B23 		add	r3, r0, #765952
 1427              	.LBE644:
 1428              	.LBE650:
 1429              	.LBE659:
 142:Neptune.cpp   ****     delayR.del = &delayLineOctRight;
 1430              		.loc 1 142 16 view .LVU349
 1431 0080 1060     		str	r0, [r2]
 1432              	.LBB660:
 1433              	.LBB651:
 1434              	.LBB645:
  38:delayline_oct.h ****         delay_secondTap = 1;
 1435              		.loc 12 38 20 view .LVU350
 1436 0082 C3F80C48 		str	r4, [r3, #2060]
  39:delayline_oct.h ****         delay_float = 1.0;
 1437              		.loc 12 39 25 view .LVU351
 1438 0086 C3F81448 		str	r4, [r3, #2068]
 1439              	.LBE645:
 1440              	.LBE651:
 1441              	.LBE660:
 143:Neptune.cpp   ****     delayR.delayTarget = 2400;
 1442              		.loc 1 143 24 view .LVU352
 1443 008a C2F80890 		str	r9, [r2, #8]	@ float
 144:Neptune.cpp   ****     delayR.active = true;
 1444              		.loc 1 144 21 view .LVU353
 1445 008e C2F80C80 		str	r8, [r2, #12]	@ float
 145:Neptune.cpp   ****     delayR.del->setOctave(false); 
ARM GAS  /tmp/cciqVpdV.s 			page 48


 1446              		.loc 1 145 19 view .LVU354
 1447 0092 1561     		str	r5, [r2, #16]	@ float
 1448              	.LBB661:
 1449              	.LBB652:
 1450              	.LBB646:
  40:delayline_oct.h ****         secondTapFraction = 0.0;
 1451              		.loc 12 40 21 view .LVU355
 1452 0094 03F61802 		addw	r2, r3, #2072
  41:delayline_oct.h ****     }
 1453              		.loc 12 41 27 view .LVU356
 1454 0098 03F61C03 		addw	r3, r3, #2076
  40:delayline_oct.h ****         secondTapFraction = 0.0;
 1455              		.loc 12 40 21 view .LVU357
 1456 009c 1560     		str	r5, [r2]	@ float
  41:delayline_oct.h ****     }
 1457              		.loc 12 41 27 view .LVU358
 1458 009e 1F60     		str	r7, [r3]	@ float
 1459              	.LVL39:
  41:delayline_oct.h ****     }
 1460              		.loc 12 41 27 view .LVU359
 1461              	.LBE646:
 1462              	.LBE652:
 1463              	.LBE661:
 142:Neptune.cpp   ****     delayR.delayTarget = 2400;
 1464              		.loc 1 142 5 is_stmt 1 view .LVU360
 143:Neptune.cpp   ****     delayR.feedback = 0.5;
 1465              		.loc 1 143 5 view .LVU361
 144:Neptune.cpp   ****     delayR.active = true;
 1466              		.loc 1 144 5 view .LVU362
 145:Neptune.cpp   ****     delayR.del->setOctave(false); 
 1467              		.loc 1 145 5 view .LVU363
 146:Neptune.cpp   **** 
 1468              		.loc 1 146 5 view .LVU364
 1469              		.loc 1 149 5 view .LVU365
 1470              	.LBB662:
 1471              	.LBB653:
 1472              	.LBB647:
  36:delayline_oct.h ****         delay_     = 1;
 1473              		.loc 12 36 20 is_stmt 0 view .LVU366
 1474 00a0 C0E90164 		strd	r6, r4, [r0, #4]
 1475              	.LBE647:
 1476              	.LBE653:
 1477              	.LBE662:
 1478              		.loc 1 149 19 view .LVU367
 1479 00a4 0E48     		ldr	r0, .L20+32
 1480 00a6 FFF7FEFF 		bl	_ZN7daisysp4Tone4InitEf
 1481              	.LVL40:
 150:Neptune.cpp   ****     toneOctLP.SetFreq(3000.0);
 1482              		.loc 1 150 5 is_stmt 1 view .LVU368
 1483              	.LBB663:
 1484              	.LBI663:
  24:../../DaisySP/DaisySP-LGPL/Source/Filters/tone.h ****     /** Initializes the Tone module.
  25:../../DaisySP/DaisySP-LGPL/Source/Filters/tone.h ****         sample_rate - The sample rate of the audio engine being run. 
  26:../../DaisySP/DaisySP-LGPL/Source/Filters/tone.h ****     */
  27:../../DaisySP/DaisySP-LGPL/Source/Filters/tone.h ****     void Init(float sample_rate);
  28:../../DaisySP/DaisySP-LGPL/Source/Filters/tone.h **** 
  29:../../DaisySP/DaisySP-LGPL/Source/Filters/tone.h **** 
ARM GAS  /tmp/cciqVpdV.s 			page 49


  30:../../DaisySP/DaisySP-LGPL/Source/Filters/tone.h ****     /** Processes one sample through the filter and returns one sample.
  31:../../DaisySP/DaisySP-LGPL/Source/Filters/tone.h ****         in - input signal 
  32:../../DaisySP/DaisySP-LGPL/Source/Filters/tone.h ****     */
  33:../../DaisySP/DaisySP-LGPL/Source/Filters/tone.h ****     float Process(float in);
  34:../../DaisySP/DaisySP-LGPL/Source/Filters/tone.h **** 
  35:../../DaisySP/DaisySP-LGPL/Source/Filters/tone.h ****     /** Sets the cutoff frequency or half-way point of the filter.
  36:../../DaisySP/DaisySP-LGPL/Source/Filters/tone.h **** 
  37:../../DaisySP/DaisySP-LGPL/Source/Filters/tone.h ****         \param freq - frequency value in Hz. Range: Any positive value.
  38:../../DaisySP/DaisySP-LGPL/Source/Filters/tone.h ****     */
  39:../../DaisySP/DaisySP-LGPL/Source/Filters/tone.h ****     inline void SetFreq(float freq)
 1485              		.loc 11 39 17 view .LVU369
 1486              	.LBB664:
  40:../../DaisySP/DaisySP-LGPL/Source/Filters/tone.h ****     {
  41:../../DaisySP/DaisySP-LGPL/Source/Filters/tone.h ****         freq_ = freq;
 1487              		.loc 11 41 9 view .LVU370
  42:../../DaisySP/DaisySP-LGPL/Source/Filters/tone.h ****         CalculateCoefficients();
 1488              		.loc 11 42 30 is_stmt 0 view .LVU371
 1489 00aa 0D48     		ldr	r0, .L20+32
  41:../../DaisySP/DaisySP-LGPL/Source/Filters/tone.h ****         CalculateCoefficients();
 1490              		.loc 11 41 15 view .LVU372
 1491 00ac 0D4B     		ldr	r3, .L20+36
 1492 00ae C360     		str	r3, [r0, #12]	@ float
 1493              		.loc 11 42 9 is_stmt 1 view .LVU373
 1494              		.loc 11 42 30 is_stmt 0 view .LVU374
 1495 00b0 FFF7FEFF 		bl	_ZN7daisysp4Tone21CalculateCoefficientsEv
 1496              	.LVL41:
 1497              		.loc 11 42 30 view .LVU375
 1498              	.LBE664:
 1499              	.LBE663:
 151:Neptune.cpp   **** 
 152:Neptune.cpp   ****     // Démarrage du callback audio
 153:Neptune.cpp   ****     hw.StartAudio(AudioCallback);
 1500              		.loc 1 153 5 is_stmt 1 view .LVU376
 1501              		.loc 1 153 18 is_stmt 0 view .LVU377
 1502 00b4 0C49     		ldr	r1, .L20+40
 1503 00b6 0248     		ldr	r0, .L20
 1504 00b8 FFF7FEFF 		bl	_ZN5daisy10DaisyPetal10StartAudioEPFvPKPKfPPfjE
 1505              	.LVL42:
 1506              	.L18:
 154:Neptune.cpp   **** 
 155:Neptune.cpp   ****     // Boucle infinie
 156:Neptune.cpp   ****     while(1) {
 1507              		.loc 1 156 5 is_stmt 1 view .LVU378
 1508              		.loc 1 156 5 view .LVU379
 1509 00bc FEE7     		b	.L18
 1510              	.L21:
 1511 00be 00BF     		.align	2
 1512              	.L20:
 1513 00c0 00000000 		.word	hw
 1514 00c4 00B80B00 		.word	768000
 1515 00c8 0C000000 		.word	delayLineOctLeft+12
 1516 00cc 00000000 		.word	delayLineOctLeft
 1517 00d0 00000000 		.word	delayL
 1518 00d4 0C000000 		.word	delayLineOctRight+12
 1519 00d8 00000000 		.word	delayLineOctRight
 1520 00dc 00000000 		.word	delayR
 1521 00e0 00000000 		.word	toneOctLP
ARM GAS  /tmp/cciqVpdV.s 			page 50


 1522 00e4 00803B45 		.word	1161527296
 1523 00e8 00000000 		.word	_ZL13AudioCallbackPKPKfPPfj
 1524 00ec 00001645 		.word	1159069696
 1525              		.cfi_endproc
 1526              	.LFE5932:
 1528              		.section	.text.startup._GLOBAL__sub_I_hw,"ax",%progbits
 1529              		.align	1
 1530              		.p2align 2,,3
 1531              		.syntax unified
 1532              		.thumb
 1533              		.thumb_func
 1535              	_GLOBAL__sub_I_hw:
 1536              	.LFB6698:
 157:Neptune.cpp   **** 
 158:Neptune.cpp   **** 
 159:Neptune.cpp   **** 
 160:Neptune.cpp   **** 
 161:Neptune.cpp   **** 
 162:Neptune.cpp   **** 
 163:Neptune.cpp   ****     }
 164:Neptune.cpp   **** }
 1537              		.loc 1 164 1 view -0
 1538              		.cfi_startproc
 1539              		@ args = 0, pretend = 0, frame = 0
 1540              		@ frame_needed = 0, uses_anonymous_args = 0
 1541              	.LBB718:
 1542              	.LBI718:
 1543              		.loc 1 164 1 view .LVU381
 1544              	.LVL43:
 1545              	.LBB719:
 1546              	.LBB720:
 1547              	.LBI720:
  66:../../libDaisy/src/daisy_petal.h ****     /** Destructor */
 1548              		.loc 2 66 5 view .LVU382
 1549              	.LBB721:
 1550              	.LBB722:
 1551              	.LBI722:
  21:../../libDaisy/src/daisy_seed.h ****     ~DaisySeed() {}
 1552              		.loc 6 21 5 view .LVU383
 1553              	.LBB723:
 1554              	.LBB724:
 1555              	.LBI724:
 1556              		.file 14 "../../libDaisy/src/per/qspi.h"
   1:../../libDaisy/src/per/qspi.h **** #ifndef DSY_QSPI
   2:../../libDaisy/src/per/qspi.h **** #define DSY_QSPI /**< Macro */
   3:../../libDaisy/src/per/qspi.h **** 
   4:../../libDaisy/src/per/qspi.h **** #ifndef UNIT_TEST // for unit tests, a dummy implementation
   5:../../libDaisy/src/per/qspi.h **** 
   6:../../libDaisy/src/per/qspi.h **** #include <cstdint>
   7:../../libDaisy/src/per/qspi.h **** #include "daisy_core.h" // Added for dsy_gpio_pin typedef
   8:../../libDaisy/src/per/qspi.h **** 
   9:../../libDaisy/src/per/qspi.h **** #define DSY_QSPI_TEXT       \
  10:../../libDaisy/src/per/qspi.h ****     __attribute__((section( \
  11:../../libDaisy/src/per/qspi.h ****         ".qspiflash_text"))) /**< used for reading memory in memory_mapped mode. */
  12:../../libDaisy/src/per/qspi.h **** #define DSY_QSPI_DATA       \
  13:../../libDaisy/src/per/qspi.h ****     __attribute__((section( \
  14:../../libDaisy/src/per/qspi.h ****         ".qspiflash_data"))) /**< used for reading memory in memory_mapped mode. */
ARM GAS  /tmp/cciqVpdV.s 			page 51


  15:../../libDaisy/src/per/qspi.h **** #define DSY_QSPI_BSS        \
  16:../../libDaisy/src/per/qspi.h ****     __attribute__((section( \
  17:../../libDaisy/src/per/qspi.h ****         ".qspiflash_bss"))) /**< used for reading memory in memory_mapped mode. */
  18:../../libDaisy/src/per/qspi.h **** 
  19:../../libDaisy/src/per/qspi.h **** namespace daisy
  20:../../libDaisy/src/per/qspi.h **** {
  21:../../libDaisy/src/per/qspi.h **** /** @addtogroup serial
  22:../../libDaisy/src/per/qspi.h **** @{
  23:../../libDaisy/src/per/qspi.h **** */
  24:../../libDaisy/src/per/qspi.h **** 
  25:../../libDaisy/src/per/qspi.h **** /** 
  26:../../libDaisy/src/per/qspi.h ****  Driver for QSPI peripheral to interface with external flash memory. \n 
  27:../../libDaisy/src/per/qspi.h ****     Currently supported QSPI Devices: \n 
  28:../../libDaisy/src/per/qspi.h ****     * IS25LP080D
  29:../../libDaisy/src/per/qspi.h **** */
  30:../../libDaisy/src/per/qspi.h **** class QSPIHandle
  31:../../libDaisy/src/per/qspi.h **** {
  32:../../libDaisy/src/per/qspi.h ****   public:
  33:../../libDaisy/src/per/qspi.h ****     enum Result
  34:../../libDaisy/src/per/qspi.h ****     {
  35:../../libDaisy/src/per/qspi.h ****         OK = 0,
  36:../../libDaisy/src/per/qspi.h ****         ERR
  37:../../libDaisy/src/per/qspi.h ****     };
  38:../../libDaisy/src/per/qspi.h **** 
  39:../../libDaisy/src/per/qspi.h ****     /** Indicates the current status of the module. 
  40:../../libDaisy/src/per/qspi.h ****          *  Warnings are indicated by a leading W.
  41:../../libDaisy/src/per/qspi.h ****          *  Errors are indicated by a leading E and cause an immediate exit.
  42:../../libDaisy/src/per/qspi.h ****          * 
  43:../../libDaisy/src/per/qspi.h ****          *  \param GOOD - No errors have been reported.
  44:../../libDaisy/src/per/qspi.h ****          *  \param E_HAL_ERROR - HAL code did not return HAL_OK.
  45:../../libDaisy/src/per/qspi.h ****          *  \param E_SWITCHING_MODES - An error was encountered while switching QSPI peripheral mod
  46:../../libDaisy/src/per/qspi.h ****          *  \param E_INVALID_MODE - QSPI should not be written to while the program is executing fr
  47:../../libDaisy/src/per/qspi.h ****          */
  48:../../libDaisy/src/per/qspi.h ****     enum Status
  49:../../libDaisy/src/per/qspi.h ****     {
  50:../../libDaisy/src/per/qspi.h ****         GOOD = 0,
  51:../../libDaisy/src/per/qspi.h ****         E_HAL_ERROR,
  52:../../libDaisy/src/per/qspi.h ****         E_SWITCHING_MODES,
  53:../../libDaisy/src/per/qspi.h ****         E_INVALID_MODE,
  54:../../libDaisy/src/per/qspi.h ****     };
  55:../../libDaisy/src/per/qspi.h **** 
  56:../../libDaisy/src/per/qspi.h ****     /** Configuration structure for interfacing with QSPI Driver */
  57:../../libDaisy/src/per/qspi.h ****     struct Config
  58:../../libDaisy/src/per/qspi.h ****     {
  59:../../libDaisy/src/per/qspi.h ****         /** Flash Devices supported. (Both of these are more-or-less the same, just different sizes
  60:../../libDaisy/src/per/qspi.h ****         enum Device
  61:../../libDaisy/src/per/qspi.h ****         {
  62:../../libDaisy/src/per/qspi.h ****             IS25LP080D,  /**< & */
  63:../../libDaisy/src/per/qspi.h ****             IS25LP064A,  /**< & */
  64:../../libDaisy/src/per/qspi.h ****             DEVICE_LAST, /**< & */
  65:../../libDaisy/src/per/qspi.h ****         };
  66:../../libDaisy/src/per/qspi.h **** 
  67:../../libDaisy/src/per/qspi.h ****         /** 
  68:../../libDaisy/src/per/qspi.h ****         Modes of operation.
  69:../../libDaisy/src/per/qspi.h ****         Memory Mapped mode: QSPI configured so that the QSPI can be
  70:../../libDaisy/src/per/qspi.h ****         read from starting address 0x90000000. Writing is not
  71:../../libDaisy/src/per/qspi.h ****         possible in this mode. \n 
ARM GAS  /tmp/cciqVpdV.s 			page 52


  72:../../libDaisy/src/per/qspi.h ****         Indirect Polling mode: Device driver enabled. 
  73:../../libDaisy/src/per/qspi.h ****         */
  74:../../libDaisy/src/per/qspi.h ****         enum Mode
  75:../../libDaisy/src/per/qspi.h ****         {
  76:../../libDaisy/src/per/qspi.h ****             MEMORY_MAPPED,    /**< & */
  77:../../libDaisy/src/per/qspi.h ****             INDIRECT_POLLING, /**< & */
  78:../../libDaisy/src/per/qspi.h ****             MODE_LAST,
  79:../../libDaisy/src/per/qspi.h ****         };
  80:../../libDaisy/src/per/qspi.h **** 
  81:../../libDaisy/src/per/qspi.h ****         //SCK,  CE# (active low)
  82:../../libDaisy/src/per/qspi.h ****         struct
  83:../../libDaisy/src/per/qspi.h ****         {
  84:../../libDaisy/src/per/qspi.h ****             dsy_gpio_pin io0; /**< & */
  85:../../libDaisy/src/per/qspi.h ****             dsy_gpio_pin io1; /**< & */
  86:../../libDaisy/src/per/qspi.h ****             dsy_gpio_pin io2; /**< & */
  87:../../libDaisy/src/per/qspi.h ****             dsy_gpio_pin io3; /**< & */
  88:../../libDaisy/src/per/qspi.h ****             dsy_gpio_pin clk; /**< & */
  89:../../libDaisy/src/per/qspi.h ****             dsy_gpio_pin ncs; /**< & */
  90:../../libDaisy/src/per/qspi.h ****         } pin_config;
  91:../../libDaisy/src/per/qspi.h **** 
  92:../../libDaisy/src/per/qspi.h ****         Device device;
  93:../../libDaisy/src/per/qspi.h ****         Mode   mode;
  94:../../libDaisy/src/per/qspi.h ****     };
  95:../../libDaisy/src/per/qspi.h **** 
  96:../../libDaisy/src/per/qspi.h ****     /** 
  97:../../libDaisy/src/per/qspi.h ****         Initializes QSPI peripheral, and Resets, and prepares memory for access.
  98:../../libDaisy/src/per/qspi.h ****         \param config should be populated with the mode, device and pin_config before calling this 
  99:../../libDaisy/src/per/qspi.h ****         \return Result::OK or Result::ERR
 100:../../libDaisy/src/per/qspi.h ****         */
 101:../../libDaisy/src/per/qspi.h ****     Result Init(const Config& config);
 102:../../libDaisy/src/per/qspi.h **** 
 103:../../libDaisy/src/per/qspi.h ****     /** Returns the current config. */
 104:../../libDaisy/src/per/qspi.h ****     const Config& GetConfig() const;
 105:../../libDaisy/src/per/qspi.h **** 
 106:../../libDaisy/src/per/qspi.h ****     // Couldn't this just be called before anything else in init? That
 107:../../libDaisy/src/per/qspi.h ****     // would make manually calling it unnecessary.
 108:../../libDaisy/src/per/qspi.h ****     /** 
 109:../../libDaisy/src/per/qspi.h ****         Deinitializes the peripheral
 110:../../libDaisy/src/per/qspi.h ****         This should be called before reinitializing QSPI in a different mode.
 111:../../libDaisy/src/per/qspi.h ****         \return Result::OK or Result::ERR
 112:../../libDaisy/src/per/qspi.h ****         */
 113:../../libDaisy/src/per/qspi.h ****     Result DeInit();
 114:../../libDaisy/src/per/qspi.h **** 
 115:../../libDaisy/src/per/qspi.h ****     /** 
 116:../../libDaisy/src/per/qspi.h ****         Writes a single page to to the specified address on the QSPI chip.
 117:../../libDaisy/src/per/qspi.h ****         For IS25LP*, page size is 256 bytes.
 118:../../libDaisy/src/per/qspi.h ****         \param address Address to write to
 119:../../libDaisy/src/per/qspi.h ****         \param size Buffer size
 120:../../libDaisy/src/per/qspi.h ****         \param buffer Buffer to write
 121:../../libDaisy/src/per/qspi.h ****         \return Result::OK or Result::ERR
 122:../../libDaisy/src/per/qspi.h ****         */
 123:../../libDaisy/src/per/qspi.h ****     Result WritePage(uint32_t address, uint32_t size, uint8_t* buffer);
 124:../../libDaisy/src/per/qspi.h **** 
 125:../../libDaisy/src/per/qspi.h ****     /** 
 126:../../libDaisy/src/per/qspi.h ****         Writes data in buffer to to the QSPI. Starting at address to address+size 
 127:../../libDaisy/src/per/qspi.h ****         \param address Address to write to
 128:../../libDaisy/src/per/qspi.h ****         \param size Buffer size
ARM GAS  /tmp/cciqVpdV.s 			page 53


 129:../../libDaisy/src/per/qspi.h ****         \param buffer Buffer to write
 130:../../libDaisy/src/per/qspi.h ****         \return Result::OK or Result::ERR
 131:../../libDaisy/src/per/qspi.h ****         */
 132:../../libDaisy/src/per/qspi.h ****     Result Write(uint32_t address, uint32_t size, uint8_t* buffer);
 133:../../libDaisy/src/per/qspi.h **** 
 134:../../libDaisy/src/per/qspi.h ****     /** 
 135:../../libDaisy/src/per/qspi.h ****         Erases the area specified on the chip.
 136:../../libDaisy/src/per/qspi.h ****         Erasures will happen by 4K, 32K or 64K increments.
 137:../../libDaisy/src/per/qspi.h ****         Smallest erase possible is 4kB at a time. (on IS25LP*)
 138:../../libDaisy/src/per/qspi.h ****         \param start_addr Address to begin erasing from
 139:../../libDaisy/src/per/qspi.h ****         \param end_addr  Address to stop erasing at
 140:../../libDaisy/src/per/qspi.h ****         \return Result::OK or Result::ERR
 141:../../libDaisy/src/per/qspi.h ****         */
 142:../../libDaisy/src/per/qspi.h ****     Result Erase(uint32_t start_addr, uint32_t end_addr);
 143:../../libDaisy/src/per/qspi.h **** 
 144:../../libDaisy/src/per/qspi.h ****     /**  
 145:../../libDaisy/src/per/qspi.h ****          Erases a single sector of the chip.  
 146:../../libDaisy/src/per/qspi.h ****         TODO: Document the size of this function. 
 147:../../libDaisy/src/per/qspi.h ****         \param address Address of sector to erase
 148:../../libDaisy/src/per/qspi.h ****         \return Result::OK or Result::ERR
 149:../../libDaisy/src/per/qspi.h ****         */
 150:../../libDaisy/src/per/qspi.h ****     Result EraseSector(uint32_t address);
 151:../../libDaisy/src/per/qspi.h **** 
 152:../../libDaisy/src/per/qspi.h ****     /** Returns the current class status. Useful for debugging.
 153:../../libDaisy/src/per/qspi.h ****      *  \returns Status
 154:../../libDaisy/src/per/qspi.h ****      */
 155:../../libDaisy/src/per/qspi.h ****     Status GetStatus();
 156:../../libDaisy/src/per/qspi.h **** 
 157:../../libDaisy/src/per/qspi.h ****     /** Returns a pointer to the actual memory used 
 158:../../libDaisy/src/per/qspi.h ****      *  The memory at this address is read-only
 159:../../libDaisy/src/per/qspi.h ****      *  to write to it use the Write function.
 160:../../libDaisy/src/per/qspi.h ****      * 
 161:../../libDaisy/src/per/qspi.h ****      *  \param offset returns the pointer starting this 
 162:../../libDaisy/src/per/qspi.h ****      *                many bytes into the memory
 163:../../libDaisy/src/per/qspi.h ****     */
 164:../../libDaisy/src/per/qspi.h ****     void* GetData(uint32_t offset = 0);
 165:../../libDaisy/src/per/qspi.h **** 
 166:../../libDaisy/src/per/qspi.h ****     QSPIHandle() : pimpl_(nullptr) {}
 1557              		.loc 14 166 5 view .LVU384
 1558              	.LBE724:
 1559              	.LBE723:
 1560              	.LBE722:
 1561              	.LBE721:
 1562              	.LBE720:
 1563              	.LBE719:
 1564              	.LBE718:
 1565              		.loc 1 164 1 is_stmt 0 view .LVU385
 1566 0000 08B5     		push	{r3, lr}
 1567              		.cfi_def_cfa_offset 8
 1568              		.cfi_offset 3, -8
 1569              		.cfi_offset 14, -4
 1570              	.LBB774:
 1571              	.LBB773:
 1572              	.LBB761:
 1573              	.LBB758:
 1574              	.LBB745:
 1575              	.LBB743:
ARM GAS  /tmp/cciqVpdV.s 			page 54


 1576              	.LBB729:
 1577              	.LBB725:
 1578              	.LBB726:
 1579              		.loc 14 166 20 view .LVU386
 1580 0002 0E4B     		ldr	r3, .L24
 1581 0004 4FF0000C 		mov	ip, #0
 1582              	.LBE726:
 1583              	.LBE725:
 1584              	.LBE729:
 1585              	.LBE743:
 1586              	.LBE745:
 1587              	.LBB746:
 1588              	.LBB747:
 1589              		.file 15 "../../libDaisy/src/dev/leddriver.h"
   1:../../libDaisy/src/dev/leddriver.h **** #pragma once
   2:../../libDaisy/src/dev/leddriver.h **** #ifndef SA_LED_DRIVER_H
   3:../../libDaisy/src/dev/leddriver.h **** #define SA_LED_DRIVER_H /**< & */
   4:../../libDaisy/src/dev/leddriver.h **** 
   5:../../libDaisy/src/dev/leddriver.h **** #ifdef __cplusplus
   6:../../libDaisy/src/dev/leddriver.h **** 
   7:../../libDaisy/src/dev/leddriver.h **** #include <stdint.h>
   8:../../libDaisy/src/dev/leddriver.h **** #include "per/i2c.h"
   9:../../libDaisy/src/dev/leddriver.h **** #include "per/gpio.h"
  10:../../libDaisy/src/dev/leddriver.h **** 
  11:../../libDaisy/src/dev/leddriver.h **** namespace daisy
  12:../../libDaisy/src/dev/leddriver.h **** {
  13:../../libDaisy/src/dev/leddriver.h **** /** LED driver for one or multiple PCA9685 12bit PWM chips connected to
  14:../../libDaisy/src/dev/leddriver.h ****  * a single I2C peripheral.
  15:../../libDaisy/src/dev/leddriver.h ****  * It includes gamma correction from 8bit brightness values but it 
  16:../../libDaisy/src/dev/leddriver.h ****  * can also be supplied with raw 12bit values.
  17:../../libDaisy/src/dev/leddriver.h ****  * This driver uses two buffers - one for drawing, one for transmitting.
  18:../../libDaisy/src/dev/leddriver.h ****  * Multiple LedDriverPca9685 instances can be used at the same time.
  19:../../libDaisy/src/dev/leddriver.h ****  * \param numDrivers    The number of PCA9685 driver attached to the I2C
  20:../../libDaisy/src/dev/leddriver.h ****  *                      peripheral.
  21:../../libDaisy/src/dev/leddriver.h ****  * \param persistentBufferContents If set to true, the current draw buffer 
  22:../../libDaisy/src/dev/leddriver.h ****  *                      contents will be copied to the next draw buffer 
  23:../../libDaisy/src/dev/leddriver.h ****  *                      during SwapBuffersAndTransmit(). Use this, if you plan
  24:../../libDaisy/src/dev/leddriver.h ****  *                      to write single leds at a time. 
  25:../../libDaisy/src/dev/leddriver.h ****  *                      If you will alway update all leds before calling 
  26:../../libDaisy/src/dev/leddriver.h ****  *                      SwapBuffersAndTransmit(), you can set this to false
  27:../../libDaisy/src/dev/leddriver.h ****  *                      and safe some cycles.
  28:../../libDaisy/src/dev/leddriver.h ****  * 
  29:../../libDaisy/src/dev/leddriver.h ****  *  @ingroup device
  30:../../libDaisy/src/dev/leddriver.h ****  */
  31:../../libDaisy/src/dev/leddriver.h **** template <int numDrivers, bool persistentBufferContents = true>
  32:../../libDaisy/src/dev/leddriver.h **** class LedDriverPca9685
 1590              		.loc 15 32 7 discriminator 1 view .LVU387
 1591 0008 4FF40072 		mov	r2, #512
 1592 000c 0C49     		ldr	r1, .L24+4
 1593 000e 03F2DE40 		addw	r0, r3, #1246
 1594              	.LBE747:
 1595              	.LBE746:
 1596              	.LBB752:
 1597              	.LBB744:
 1598              	.LBB730:
 1599              	.LBB728:
 1600              	.LBB727:
ARM GAS  /tmp/cciqVpdV.s 			page 55


 1601              		.loc 14 166 20 view .LVU388
 1602 0012 C3F800C0 		str	ip, [r3]
 1603              	.LVL44:
 1604              		.loc 14 166 20 view .LVU389
 1605              	.LBE727:
 1606              	.LBE728:
 1607              	.LBE730:
 1608              	.LBB731:
 1609              	.LBI731:
  95:../../libDaisy/src/hid/audio.h ****     ~AudioHandle() {}
 1610              		.loc 10 95 5 is_stmt 1 view .LVU390
 1611              	.LBB732:
 1612              	.LBB733:
  95:../../libDaisy/src/hid/audio.h ****     ~AudioHandle() {}
 1613              		.loc 10 95 21 is_stmt 0 view .LVU391
 1614 0016 C3F814C0 		str	ip, [r3, #20]
 1615              	.LVL45:
  95:../../libDaisy/src/hid/audio.h ****     ~AudioHandle() {}
 1616              		.loc 10 95 21 view .LVU392
 1617              	.LBE733:
 1618              	.LBE732:
 1619              	.LBE731:
 1620              	.LBB734:
 1621              	.LBI734:
 109:../../libDaisy/src/per/adc.h ****     ~AdcHandle() {}
 1622              		.loc 9 109 5 is_stmt 1 view .LVU393
 109:../../libDaisy/src/per/adc.h ****     ~AdcHandle() {}
 1623              		.loc 9 109 5 is_stmt 0 view .LVU394
 1624              	.LBE734:
 1625              	.LBB735:
 1626              	.LBI735:
 1627              		.file 16 "../../libDaisy/src/per/dac.h"
   1:../../libDaisy/src/per/dac.h **** #pragma once
   2:../../libDaisy/src/per/dac.h **** #ifndef DSY_DAC_H
   3:../../libDaisy/src/per/dac.h **** #define DSY_DAC_H
   4:../../libDaisy/src/per/dac.h **** 
   5:../../libDaisy/src/per/dac.h **** #include "daisy_core.h"
   6:../../libDaisy/src/per/dac.h **** 
   7:../../libDaisy/src/per/dac.h **** namespace daisy
   8:../../libDaisy/src/per/dac.h **** {
   9:../../libDaisy/src/per/dac.h **** /** @brief DAC handle for Built-in DAC Peripheral 
  10:../../libDaisy/src/per/dac.h ****  *  @ingroup per_analog
  11:../../libDaisy/src/per/dac.h ****  ** 
  12:../../libDaisy/src/per/dac.h ****  ** For now only Normal Mode is supported,
  13:../../libDaisy/src/per/dac.h ****  ** Sample and hold mode provides reduced power consumption, but requires a bit more setup.
  14:../../libDaisy/src/per/dac.h ****  **
  15:../../libDaisy/src/per/dac.h ****  ** For now connecting the DAC through other internal peripherals is also not supported.
  16:../../libDaisy/src/per/dac.h ****  **
  17:../../libDaisy/src/per/dac.h ****  ** Since the DAC channels have dedicated pins we don't need to pass in a pin config like with
  18:../../libDaisy/src/per/dac.h ****  ** other modules. However, it is still important to not try to use the DAC pins for anything else.
  19:../../libDaisy/src/per/dac.h ****  ** DAC Channel 1 is on PA4, and DAC Channel 2 is on PA5
  20:../../libDaisy/src/per/dac.h ****  ***/
  21:../../libDaisy/src/per/dac.h **** class DacHandle
  22:../../libDaisy/src/per/dac.h **** {
  23:../../libDaisy/src/per/dac.h ****   public:
  24:../../libDaisy/src/per/dac.h ****     /** Return Values for the DacHandle class */
  25:../../libDaisy/src/per/dac.h ****     enum class Result
ARM GAS  /tmp/cciqVpdV.s 			page 56


  26:../../libDaisy/src/per/dac.h ****     {
  27:../../libDaisy/src/per/dac.h ****         OK,
  28:../../libDaisy/src/per/dac.h ****         ERR,
  29:../../libDaisy/src/per/dac.h ****     };
  30:../../libDaisy/src/per/dac.h **** 
  31:../../libDaisy/src/per/dac.h ****     /** Selects which channel(s) will be configured for use. */
  32:../../libDaisy/src/per/dac.h ****     enum class Channel
  33:../../libDaisy/src/per/dac.h ****     {
  34:../../libDaisy/src/per/dac.h ****         ONE,
  35:../../libDaisy/src/per/dac.h ****         TWO,
  36:../../libDaisy/src/per/dac.h ****         BOTH,
  37:../../libDaisy/src/per/dac.h ****     };
  38:../../libDaisy/src/per/dac.h **** 
  39:../../libDaisy/src/per/dac.h ****     /** Sets the Mode for the DAC channels.
  40:../../libDaisy/src/per/dac.h ****      **
  41:../../libDaisy/src/per/dac.h ****      ** Polling mode uses the blocking mode to transmit a single value at a time.
  42:../../libDaisy/src/per/dac.h ****      **
  43:../../libDaisy/src/per/dac.h ****      ** DMA mode uses a buffer, and periodically transmits it triggering a 
  44:../../libDaisy/src/per/dac.h ****      ** callback to fill the buffer when it is ready for more samples.
  45:../../libDaisy/src/per/dac.h ****      ***/
  46:../../libDaisy/src/per/dac.h ****     enum class Mode
  47:../../libDaisy/src/per/dac.h ****     {
  48:../../libDaisy/src/per/dac.h ****         POLLING,
  49:../../libDaisy/src/per/dac.h ****         DMA,
  50:../../libDaisy/src/per/dac.h ****     };
  51:../../libDaisy/src/per/dac.h **** 
  52:../../libDaisy/src/per/dac.h ****     /** Sets the number of bits per sample transmitted out of the DAC.
  53:../../libDaisy/src/per/dac.h ****      ** The output range will be: 0V - VDDA
  54:../../libDaisy/src/per/dac.h ****      ** The resolution will be roughly: bitdepth / (VDDA - 0V) 
  55:../../libDaisy/src/per/dac.h ****      ***/
  56:../../libDaisy/src/per/dac.h ****     enum class BitDepth
  57:../../libDaisy/src/per/dac.h ****     {
  58:../../libDaisy/src/per/dac.h ****         BITS_8,
  59:../../libDaisy/src/per/dac.h ****         BITS_12
  60:../../libDaisy/src/per/dac.h ****     };
  61:../../libDaisy/src/per/dac.h **** 
  62:../../libDaisy/src/per/dac.h ****     /** Sets whether the DAC output is buffered for higher drive ability. */
  63:../../libDaisy/src/per/dac.h ****     enum class BufferState
  64:../../libDaisy/src/per/dac.h ****     {
  65:../../libDaisy/src/per/dac.h ****         ENABLED,
  66:../../libDaisy/src/per/dac.h ****         DISABLED,
  67:../../libDaisy/src/per/dac.h ****     };
  68:../../libDaisy/src/per/dac.h **** 
  69:../../libDaisy/src/per/dac.h ****     /** Configuration structure for initializing the DAC structure. */
  70:../../libDaisy/src/per/dac.h ****     struct Config
  71:../../libDaisy/src/per/dac.h ****     {
  72:../../libDaisy/src/per/dac.h ****         /** Target Samplerate in Hz used to configure the internal 
  73:../../libDaisy/src/per/dac.h ****          ** timebase for DMA mode. Does nothing in POLLING mode.
  74:../../libDaisy/src/per/dac.h ****          ** If the value is 0 at Init time this will default to 48000Hz 
  75:../../libDaisy/src/per/dac.h ****          ** otherwise the driver will attempt meet the target.*/
  76:../../libDaisy/src/per/dac.h ****         uint32_t target_samplerate;
  77:../../libDaisy/src/per/dac.h **** 
  78:../../libDaisy/src/per/dac.h ****         Channel     chn;
  79:../../libDaisy/src/per/dac.h ****         Mode        mode;
  80:../../libDaisy/src/per/dac.h ****         BitDepth    bitdepth;
  81:../../libDaisy/src/per/dac.h ****         BufferState buff_state;
  82:../../libDaisy/src/per/dac.h ****     };
ARM GAS  /tmp/cciqVpdV.s 			page 57


  83:../../libDaisy/src/per/dac.h **** 
  84:../../libDaisy/src/per/dac.h ****     DacHandle() : pimpl_(nullptr) {}
 1628              		.loc 16 84 5 is_stmt 1 view .LVU395
 1629              	.LBB736:
 1630              	.LBB737:
 1631              		.loc 16 84 19 is_stmt 0 view .LVU396
 1632 001a C3F820C0 		str	ip, [r3, #32]
 1633              	.LVL46:
 1634              		.loc 16 84 19 view .LVU397
 1635              	.LBE737:
 1636              	.LBE736:
 1637              	.LBE735:
 1638              	.LBB738:
 1639              	.LBI738:
  40:../../libDaisy/src/hid/usb.h **** 
 1640              		.loc 8 40 5 is_stmt 1 view .LVU398
  40:../../libDaisy/src/hid/usb.h **** 
 1641              		.loc 8 40 5 is_stmt 0 view .LVU399
 1642              	.LBE738:
 1643              	.LBB739:
 1644              	.LBI739:
  96:../../libDaisy/src/sys/system.h ****     ~System() {}
 1645              		.loc 7 96 5 is_stmt 1 view .LVU400
  96:../../libDaisy/src/sys/system.h ****     ~System() {}
 1646              		.loc 7 96 5 is_stmt 0 view .LVU401
 1647              	.LBE739:
 1648              	.LBB740:
 1649              	.LBI740:
 1650              		.file 17 "../../libDaisy/src/per/sai.h"
   1:../../libDaisy/src/per/sai.h **** #pragma once
   2:../../libDaisy/src/per/sai.h **** #ifndef DSY_SAI_H
   3:../../libDaisy/src/per/sai.h **** #define DSY_SAI_H
   4:../../libDaisy/src/per/sai.h **** 
   5:../../libDaisy/src/per/sai.h **** #include "daisy_core.h"
   6:../../libDaisy/src/per/sai.h **** 
   7:../../libDaisy/src/per/sai.h **** namespace daisy
   8:../../libDaisy/src/per/sai.h **** {
   9:../../libDaisy/src/per/sai.h **** /** 
  10:../../libDaisy/src/per/sai.h ****  * Support for I2S Audio Protocol with different bit-depth, samplerate options
  11:../../libDaisy/src/per/sai.h ****  * Allows for master or slave, as well as freedom of selecting direction, 
  12:../../libDaisy/src/per/sai.h ****  * and other behavior for each peripheral, and block.
  13:../../libDaisy/src/per/sai.h ****  * 
  14:../../libDaisy/src/per/sai.h ****  * DMA Transfer commands must use buffers located within non-cached memory or use cache maintenance
  15:../../libDaisy/src/per/sai.h ****  * To declare an unitialized global element in the DMA memory section:
  16:../../libDaisy/src/per/sai.h ****  *    int32_t DSY_DMA_BUFFER_SECTOR my_buffer[96];
  17:../../libDaisy/src/per/sai.h ****  *
  18:../../libDaisy/src/per/sai.h ****  * Callback functions will be called once per half of the buffer. In the above example, 
  19:../../libDaisy/src/per/sai.h ****  * the callback function would be called once for every 48 samples.
  20:../../libDaisy/src/per/sai.h ****  * 
  21:../../libDaisy/src/per/sai.h ****  * Use SAI Handle like this:
  22:../../libDaisy/src/per/sai.h ****  * 
  23:../../libDaisy/src/per/sai.h ****  *  SaiHandle::Config sai_config;
  24:../../libDaisy/src/per/sai.h ****  *  sai_config.periph          = SaiHandle::Config::Peripheral::SAI_1;
  25:../../libDaisy/src/per/sai.h ****  *  sai_config.sr              = SaiHandle::Config::SampleRate::SAI_48KHZ;
  26:../../libDaisy/src/per/sai.h ****  *  sai_config.bit_depth       = SaiHandle::Config::BitDepth::SAI_24BIT;
  27:../../libDaisy/src/per/sai.h ****  *  sai_config.a_sync          = SaiHandle::Config::Sync::MASTER;
  28:../../libDaisy/src/per/sai.h ****  *  sai_config.b_sync          = SaiHandle::Config::Sync::SLAVE;
ARM GAS  /tmp/cciqVpdV.s 			page 58


  29:../../libDaisy/src/per/sai.h ****  *  sai_config.a_dir           = SaiHandle::Config::Direction::RECEIVE;
  30:../../libDaisy/src/per/sai.h ****  *  sai_config.b_dir           = SaiHandle::Config::Direction::TRANSMIT;
  31:../../libDaisy/src/per/sai.h ****  *  sai_config.pin_config.fs   = {DSY_GPIOE, 4};
  32:../../libDaisy/src/per/sai.h ****  *  sai_config.pin_config.mclk = {DSY_GPIOE, 2};
  33:../../libDaisy/src/per/sai.h ****  *  sai_config.pin_config.sck  = {DSY_GPIOE, 5};
  34:../../libDaisy/src/per/sai.h ****  *  sai_config.pin_config.sa   = {DSY_GPIOE, 6};
  35:../../libDaisy/src/per/sai.h ****  *  sai_config.pin_config.sb   = {DSY_GPIOE, 3};
  36:../../libDaisy/src/per/sai.h ****  *  // Then Initialize
  37:../../libDaisy/src/per/sai.h ****  *  SaiHandle sai;
  38:../../libDaisy/src/per/sai.h ****  *  sai.Init(sai_config);
  39:../../libDaisy/src/per/sai.h ****  *  // Now you can use it:
  40:../../libDaisy/src/per/sai.h ****  *  sai.StartDma(. . .);
  41:../../libDaisy/src/per/sai.h ****  */
  42:../../libDaisy/src/per/sai.h **** class SaiHandle
  43:../../libDaisy/src/per/sai.h **** {
  44:../../libDaisy/src/per/sai.h ****   public:
  45:../../libDaisy/src/per/sai.h ****     /** Contains settings for initialising an SAI Interface */
  46:../../libDaisy/src/per/sai.h ****     struct Config
  47:../../libDaisy/src/per/sai.h ****     {
  48:../../libDaisy/src/per/sai.h ****         /** Specifies the internal peripheral to use (mapped to different hardware pins) */
  49:../../libDaisy/src/per/sai.h ****         enum class Peripheral
  50:../../libDaisy/src/per/sai.h ****         {
  51:../../libDaisy/src/per/sai.h ****             SAI_1,
  52:../../libDaisy/src/per/sai.h ****             SAI_2,
  53:../../libDaisy/src/per/sai.h ****         };
  54:../../libDaisy/src/per/sai.h **** 
  55:../../libDaisy/src/per/sai.h ****         /** Rate at which samples will be streaming to/from the device. */
  56:../../libDaisy/src/per/sai.h ****         enum class SampleRate
  57:../../libDaisy/src/per/sai.h ****         {
  58:../../libDaisy/src/per/sai.h ****             SAI_8KHZ,
  59:../../libDaisy/src/per/sai.h ****             SAI_16KHZ,
  60:../../libDaisy/src/per/sai.h ****             SAI_32KHZ,
  61:../../libDaisy/src/per/sai.h ****             SAI_48KHZ,
  62:../../libDaisy/src/per/sai.h ****             SAI_96KHZ,
  63:../../libDaisy/src/per/sai.h ****         };
  64:../../libDaisy/src/per/sai.h **** 
  65:../../libDaisy/src/per/sai.h ****         /** Bit Depth that the hardware expects to be transferred to/from the device. */
  66:../../libDaisy/src/per/sai.h ****         enum class BitDepth
  67:../../libDaisy/src/per/sai.h ****         {
  68:../../libDaisy/src/per/sai.h ****             SAI_16BIT,
  69:../../libDaisy/src/per/sai.h ****             SAI_24BIT,
  70:../../libDaisy/src/per/sai.h ****             SAI_32BIT,
  71:../../libDaisy/src/per/sai.h ****         };
  72:../../libDaisy/src/per/sai.h **** 
  73:../../libDaisy/src/per/sai.h ****         /** Specifies whether a particular block is the master or the slave 
  74:../../libDaisy/src/per/sai.h ****          ** If both are set to slave, no MCLK signal will be used, and it is
  75:../../libDaisy/src/per/sai.h ****          ** expected that the codec will have its own xtal.
  76:../../libDaisy/src/per/sai.h ****          */
  77:../../libDaisy/src/per/sai.h ****         enum class Sync
  78:../../libDaisy/src/per/sai.h ****         {
  79:../../libDaisy/src/per/sai.h ****             MASTER,
  80:../../libDaisy/src/per/sai.h ****             SLAVE,
  81:../../libDaisy/src/per/sai.h ****         };
  82:../../libDaisy/src/per/sai.h **** 
  83:../../libDaisy/src/per/sai.h ****         /** Specifies the direction for each peripheral block. */
  84:../../libDaisy/src/per/sai.h ****         enum class Direction
  85:../../libDaisy/src/per/sai.h ****         {
ARM GAS  /tmp/cciqVpdV.s 			page 59


  86:../../libDaisy/src/per/sai.h ****             TRANSMIT,
  87:../../libDaisy/src/per/sai.h ****             RECEIVE,
  88:../../libDaisy/src/per/sai.h ****         };
  89:../../libDaisy/src/per/sai.h **** 
  90:../../libDaisy/src/per/sai.h ****         Peripheral periph;
  91:../../libDaisy/src/per/sai.h ****         struct
  92:../../libDaisy/src/per/sai.h ****         {
  93:../../libDaisy/src/per/sai.h ****             dsy_gpio_pin mclk, fs, sck, sa, sb;
  94:../../libDaisy/src/per/sai.h ****         } pin_config;
  95:../../libDaisy/src/per/sai.h ****         SampleRate sr;
  96:../../libDaisy/src/per/sai.h ****         BitDepth   bit_depth;
  97:../../libDaisy/src/per/sai.h ****         Sync       a_sync, b_sync;
  98:../../libDaisy/src/per/sai.h ****         Direction  a_dir, b_dir;
  99:../../libDaisy/src/per/sai.h ****     };
 100:../../libDaisy/src/per/sai.h **** 
 101:../../libDaisy/src/per/sai.h ****     /** Return values for SAI functions */
 102:../../libDaisy/src/per/sai.h ****     enum class Result
 103:../../libDaisy/src/per/sai.h ****     {
 104:../../libDaisy/src/per/sai.h ****         OK,
 105:../../libDaisy/src/per/sai.h ****         ERR,
 106:../../libDaisy/src/per/sai.h ****     };
 107:../../libDaisy/src/per/sai.h **** 
 108:../../libDaisy/src/per/sai.h ****     SaiHandle() : pimpl_(nullptr) {}
 1651              		.loc 17 108 5 is_stmt 1 view .LVU402
 1652              	.LBB741:
 1653              	.LBB742:
 1654              		.loc 17 108 19 is_stmt 0 view .LVU403
 1655 001e C3F83CC0 		str	ip, [r3, #60]
 1656              	.LVL47:
 1657              		.loc 17 108 19 view .LVU404
 1658              	.LBE742:
 1659              	.LBE741:
 1660              	.LBE740:
 1661              	.LBE744:
 1662              	.LBE752:
 1663              	.LBB753:
 1664              	.LBI753:
  20:../../libDaisy/src/hid/encoder.h ****     ~Encoder() {}
 1665              		.loc 4 20 5 is_stmt 1 view .LVU405
 1666              	.LBB754:
 1667              	.LBB755:
 1668              	.LBI755:
  41:../../libDaisy/src/hid/switch.h ****     ~Switch() {}
 1669              		.loc 5 41 5 view .LVU406
  41:../../libDaisy/src/hid/switch.h ****     ~Switch() {}
 1670              		.loc 5 41 5 is_stmt 0 view .LVU407
 1671              	.LBE755:
 1672              	.LBE754:
 1673              	.LBE753:
 1674              	.LBE758:
  66:../../libDaisy/src/daisy_petal.h ****     /** Destructor */
 1675              		.loc 2 66 18 is_stmt 1 discriminator 5 view .LVU408
 1676              	.LBB759:
 1677              	.LBB756:
 1678              	.LBI756:
  21:../../libDaisy/src/hid/ctrl.h ****     /** destructor */
 1679              		.loc 3 21 5 view .LVU409
ARM GAS  /tmp/cciqVpdV.s 			page 60


  21:../../libDaisy/src/hid/ctrl.h ****     /** destructor */
 1680              		.loc 3 21 5 is_stmt 0 view .LVU410
 1681              	.LBE756:
 1682              	.LBE759:
  66:../../libDaisy/src/daisy_petal.h ****     /** Destructor */
 1683              		.loc 2 66 18 is_stmt 1 discriminator 11 view .LVU411
  66:../../libDaisy/src/daisy_petal.h ****     /** Destructor */
 1684              		.loc 2 66 18 discriminator 16 view .LVU412
  66:../../libDaisy/src/daisy_petal.h ****     /** Destructor */
 1685              		.loc 2 66 18 discriminator 21 view .LVU413
 1686              	.LBB760:
 1687              	.LBB757:
 1688              	.LBI746:
 1689              		.loc 15 32 7 view .LVU414
 1690              	.LBB751:
 1691              	.LBB748:
 1692              	.LBI748:
 1693              		.file 18 "../../libDaisy/src/per/i2c.h"
   1:../../libDaisy/src/per/i2c.h **** #pragma once
   2:../../libDaisy/src/per/i2c.h **** #include "daisy_core.h"
   3:../../libDaisy/src/per/i2c.h **** 
   4:../../libDaisy/src/per/i2c.h **** namespace daisy
   5:../../libDaisy/src/per/i2c.h **** {
   6:../../libDaisy/src/per/i2c.h **** /** A handle for interacting with an I2C peripheral. This is a dumb
   7:../../libDaisy/src/per/i2c.h ****  *  gateway that internally points to one of the four I2C peripherals
   8:../../libDaisy/src/per/i2c.h ****  *  after it was initialised. It can then be copied and passed around.
   9:../../libDaisy/src/per/i2c.h ****  *  Use an I2CHandle like this:
  10:../../libDaisy/src/per/i2c.h ****  *  
  11:../../libDaisy/src/per/i2c.h ****  *      // setup the configuration
  12:../../libDaisy/src/per/i2c.h ****  *      I2CHandle::Config i2c_conf;
  13:../../libDaisy/src/per/i2c.h ****  *      i2c_conf.periph = I2CHandle::Config::Peripheral::I2C_1;
  14:../../libDaisy/src/per/i2c.h ****  *      i2c_conf.speed  = I2CHandle::Config::Speed::I2C_400KHZ;
  15:../../libDaisy/src/per/i2c.h ****  *      i2c_conf.mode   = I2CHandle::Config::Mode::Master;
  16:../../libDaisy/src/per/i2c.h ****  *      i2c_conf.pin_config.scl  = {DSY_GPIOB, 8};
  17:../../libDaisy/src/per/i2c.h ****  *      i2c_conf.pin_config.sda  = {DSY_GPIOB, 9};
  18:../../libDaisy/src/per/i2c.h ****  *      // initialise the peripheral
  19:../../libDaisy/src/per/i2c.h ****  *      I2CHandle i2c;
  20:../../libDaisy/src/per/i2c.h ****  *      i2c.Init(i2c_conf);
  21:../../libDaisy/src/per/i2c.h ****  *      // now i2c points to the corresponding peripheral and can be used.
  22:../../libDaisy/src/per/i2c.h ****  *      i2c.TransmitBlocking( ... );
  23:../../libDaisy/src/per/i2c.h ****  */
  24:../../libDaisy/src/per/i2c.h **** class I2CHandle
  25:../../libDaisy/src/per/i2c.h **** {
  26:../../libDaisy/src/per/i2c.h ****   public:
  27:../../libDaisy/src/per/i2c.h ****     /** Contains settings for initialising an I2C interface. */
  28:../../libDaisy/src/per/i2c.h ****     struct Config
  29:../../libDaisy/src/per/i2c.h ****     {
  30:../../libDaisy/src/per/i2c.h ****         /** Specifies whether the interface will operate in master or slave mode. */
  31:../../libDaisy/src/per/i2c.h ****         enum class Mode
  32:../../libDaisy/src/per/i2c.h ****         {
  33:../../libDaisy/src/per/i2c.h ****             I2C_MASTER,
  34:../../libDaisy/src/per/i2c.h ****             I2C_SLAVE,
  35:../../libDaisy/src/per/i2c.h ****         };
  36:../../libDaisy/src/per/i2c.h **** 
  37:../../libDaisy/src/per/i2c.h ****         /** Specifices the internal peripheral to use (these are mapped to different pins on the ha
  38:../../libDaisy/src/per/i2c.h ****         enum class Peripheral
  39:../../libDaisy/src/per/i2c.h ****         {
ARM GAS  /tmp/cciqVpdV.s 			page 61


  40:../../libDaisy/src/per/i2c.h ****             I2C_1 = 0, /**< & */
  41:../../libDaisy/src/per/i2c.h ****             I2C_2,     /**< & */
  42:../../libDaisy/src/per/i2c.h ****             I2C_3,     /**< & */
  43:../../libDaisy/src/per/i2c.h ****             I2C_4,     /**< & */
  44:../../libDaisy/src/per/i2c.h ****         };
  45:../../libDaisy/src/per/i2c.h **** 
  46:../../libDaisy/src/per/i2c.h ****         /** Rate at which the clock/data will be sent/received. The device being used will have max
  47:../../libDaisy/src/per/i2c.h ****          *  1MHZ Mode is currently 886kHz
  48:../../libDaisy/src/per/i2c.h ****          */
  49:../../libDaisy/src/per/i2c.h ****         enum class Speed
  50:../../libDaisy/src/per/i2c.h ****         {
  51:../../libDaisy/src/per/i2c.h ****             I2C_100KHZ, /**< & */
  52:../../libDaisy/src/per/i2c.h ****             I2C_400KHZ, /**< & */
  53:../../libDaisy/src/per/i2c.h ****             I2C_1MHZ,   /**< & */
  54:../../libDaisy/src/per/i2c.h ****         };
  55:../../libDaisy/src/per/i2c.h **** 
  56:../../libDaisy/src/per/i2c.h ****         Peripheral periph; /**< & */
  57:../../libDaisy/src/per/i2c.h ****         struct
  58:../../libDaisy/src/per/i2c.h ****         {
  59:../../libDaisy/src/per/i2c.h ****             dsy_gpio_pin scl; /**< & */
  60:../../libDaisy/src/per/i2c.h ****             dsy_gpio_pin sda; /**< & */
  61:../../libDaisy/src/per/i2c.h ****         } pin_config;         /**< & */
  62:../../libDaisy/src/per/i2c.h **** 
  63:../../libDaisy/src/per/i2c.h ****         Speed speed; /**< & */
  64:../../libDaisy/src/per/i2c.h ****         Mode  mode;  /**< & */
  65:../../libDaisy/src/per/i2c.h ****         // 0x10 is chosen as a default to avoid conflicts with reserved addresses
  66:../../libDaisy/src/per/i2c.h ****         uint8_t address = 0x10; /**< & */
  67:../../libDaisy/src/per/i2c.h ****     };
  68:../../libDaisy/src/per/i2c.h **** 
  69:../../libDaisy/src/per/i2c.h ****     /** Return values for I2C functions. */
  70:../../libDaisy/src/per/i2c.h ****     enum class Result
  71:../../libDaisy/src/per/i2c.h ****     {
  72:../../libDaisy/src/per/i2c.h ****         OK, /**< & */
  73:../../libDaisy/src/per/i2c.h ****         ERR /**< & */
  74:../../libDaisy/src/per/i2c.h ****     };
  75:../../libDaisy/src/per/i2c.h **** 
  76:../../libDaisy/src/per/i2c.h ****     enum class Direction
  77:../../libDaisy/src/per/i2c.h ****     {
  78:../../libDaisy/src/per/i2c.h ****         TRANSMIT, /**< & */
  79:../../libDaisy/src/per/i2c.h ****         RECEIVE,  /**< & */
  80:../../libDaisy/src/per/i2c.h ****     };
  81:../../libDaisy/src/per/i2c.h **** 
  82:../../libDaisy/src/per/i2c.h ****     I2CHandle() : pimpl_(nullptr) {}
 1694              		.loc 18 82 5 view .LVU415
 1695              	.LBB749:
 1696              	.LBB750:
 1697              		.loc 18 82 19 is_stmt 0 view .LVU416
 1698 0022 C3F8C8C4 		str	ip, [r3, #1224]
 1699              	.LVL48:
 1700              		.loc 18 82 19 view .LVU417
 1701              	.LBE750:
 1702              	.LBE749:
 1703              	.LBE748:
 1704              		.loc 15 32 7 discriminator 1 view .LVU418
 1705 0026 FFF7FEFF 		bl	memcpy
 1706              	.LVL49:
 1707              		.loc 15 32 7 discriminator 1 view .LVU419
ARM GAS  /tmp/cciqVpdV.s 			page 62


 1708              	.LBE751:
 1709              	.LBE757:
 1710              	.LBE760:
 1711              	.LBE761:
 1712              	.LBB762:
 1713              	.LBI762:
  22:../../DaisySP/DaisySP-LGPL/Source/Filters/tone.h ****     ~Tone() {}
 1714              		.loc 11 22 5 is_stmt 1 view .LVU420
  22:../../DaisySP/DaisySP-LGPL/Source/Filters/tone.h ****     ~Tone() {}
 1715              		.loc 11 22 5 is_stmt 0 view .LVU421
 1716              	.LBE762:
 1717              	.LBB763:
 1718              	.LBI763:
  23:delayline_oct.h ****     ~DelayLineOct() {}
 1719              		.loc 12 23 5 is_stmt 1 view .LVU422
  23:delayline_oct.h ****     ~DelayLineOct() {}
 1720              		.loc 12 23 5 is_stmt 0 view .LVU423
 1721              	.LBE763:
 1722              	.LBB764:
 1723              	.LBI764:
  23:delayline_oct.h ****     ~DelayLineOct() {}
 1724              		.loc 12 23 5 is_stmt 1 view .LVU424
  23:delayline_oct.h ****     ~DelayLineOct() {}
 1725              		.loc 12 23 5 is_stmt 0 view .LVU425
 1726              	.LBE764:
 1727              	.LBB765:
 1728              	.LBI765:
  35:Neptune.cpp   **** {
 1729              		.loc 1 35 8 is_stmt 1 view .LVU426
 1730              	.LBB766:
 1731 002a 0023     		movs	r3, #0
 1732 002c 0549     		ldr	r1, .L24+8
 1733              	.LBE766:
 1734              	.LBE765:
 1735              	.LBB768:
 1736              	.LBB769:
 1737 002e 064A     		ldr	r2, .L24+12
 1738              	.LBE769:
 1739              	.LBE768:
 1740              	.LBB771:
 1741              	.LBB767:
 1742 0030 CB60     		str	r3, [r1, #12]	@ float
 1743 0032 0B61     		str	r3, [r1, #16]	@ float
 1744              	.LVL50:
  35:Neptune.cpp   **** {
 1745              		.loc 1 35 8 is_stmt 0 view .LVU427
 1746              	.LBE767:
 1747              	.LBE771:
 1748              	.LBB772:
 1749              	.LBI768:
  35:Neptune.cpp   **** {
 1750              		.loc 1 35 8 is_stmt 1 view .LVU428
 1751              	.LBB770:
 1752 0034 D360     		str	r3, [r2, #12]	@ float
 1753 0036 1361     		str	r3, [r2, #16]	@ float
 1754              	.LVL51:
  35:Neptune.cpp   **** {
ARM GAS  /tmp/cciqVpdV.s 			page 63


 1755              		.loc 1 35 8 is_stmt 0 view .LVU429
 1756              	.LBE770:
 1757              	.LBE772:
 1758              	.LBE773:
 1759              	.LBE774:
 1760              		.loc 1 164 1 view .LVU430
 1761 0038 08BD     		pop	{r3, pc}
 1762              	.L25:
 1763 003a 00BF     		.align	2
 1764              	.L24:
 1765 003c 00000000 		.word	hw
 1766 0040 00000000 		.word	.LANCHOR0
 1767 0044 00000000 		.word	delayL
 1768 0048 00000000 		.word	delayR
 1769              		.cfi_endproc
 1770              	.LFE6698:
 1772              		.section	.init_array,"aw",%init_array
 1773              		.align	2
 1774 0000 00000000 		.word	_GLOBAL__sub_I_hw(target1)
 1775              		.global	delayR
 1776              		.section	.bss.delayR,"aw",%nobits
 1777              		.align	2
 1780              	delayR:
 1781 0000 00000000 		.space	20
 1781      00000000 
 1781      00000000 
 1781      00000000 
 1781      00000000 
 1782              		.global	delayL
 1783              		.section	.bss.delayL,"aw",%nobits
 1784              		.align	2
 1787              	delayL:
 1788 0000 00000000 		.space	20
 1788      00000000 
 1788      00000000 
 1788      00000000 
 1788      00000000 
 1789              		.global	delayLineOctRight
 1790              		.section	.sdram_bss,"aw"
 1791              		.align	2
 1794              	delayLineOctRight:
 1795 0000 00000000 		.space	768032
 1795      00000000 
 1795      00000000 
 1795      00000000 
 1795      00000000 
 1796              		.global	delayLineOctLeft
 1797              		.align	2
 1800              	delayLineOctLeft:
 1801 bb820 00000000 		.space	768032
 1801      00000000 
 1801      00000000 
 1801      00000000 
 1801      00000000 
 1802              		.global	wetMix
 1803              		.section	.bss.wetMix,"aw",%nobits
 1804              		.align	2
ARM GAS  /tmp/cciqVpdV.s 			page 64


 1807              	wetMix:
 1808 0000 00000000 		.space	4
 1809              		.global	dryMix
 1810              		.section	.bss.dryMix,"aw",%nobits
 1811              		.align	2
 1814              	dryMix:
 1815 0000 00000000 		.space	4
 1816              		.global	toneOctLP
 1817              		.section	.bss.toneOctLP,"aw",%nobits
 1818              		.align	2
 1821              	toneOctLP:
 1822 0000 00000000 		.space	28
 1822      00000000 
 1822      00000000 
 1822      00000000 
 1822      00000000 
 1823              		.global	hw
 1824              		.section	.bss.hw,"aw",%nobits
 1825              		.align	2
 1828              	hw:
 1829 0000 00000000 		.space	1760
 1829      00000000 
 1829      00000000 
 1829      00000000 
 1829      00000000 
 1830              		.section	.rodata
 1831              		.align	2
 1832              		.set	.LANCHOR0,. + 0
 1833              	.LC0:
 1834 0000 0000     		.short	0
 1835 0002 0100     		.short	1
 1836 0004 0100     		.short	1
 1837 0006 0100     		.short	1
 1838 0008 0100     		.short	1
 1839 000a 0100     		.short	1
 1840 000c 0100     		.short	1
 1841 000e 0100     		.short	1
 1842 0010 0100     		.short	1
 1843 0012 0100     		.short	1
 1844 0014 0100     		.short	1
 1845 0016 0100     		.short	1
 1846 0018 0200     		.short	2
 1847 001a 0200     		.short	2
 1848 001c 0200     		.short	2
 1849 001e 0200     		.short	2
 1850 0020 0200     		.short	2
 1851 0022 0200     		.short	2
 1852 0024 0200     		.short	2
 1853 0026 0300     		.short	3
 1854 0028 0300     		.short	3
 1855 002a 0400     		.short	4
 1856 002c 0400     		.short	4
 1857 002e 0500     		.short	5
 1858 0030 0500     		.short	5
 1859 0032 0600     		.short	6
 1860 0034 0700     		.short	7
 1861 0036 0800     		.short	8
ARM GAS  /tmp/cciqVpdV.s 			page 65


 1862 0038 0800     		.short	8
 1863 003a 0900     		.short	9
 1864 003c 0A00     		.short	10
 1865 003e 0B00     		.short	11
 1866 0040 0C00     		.short	12
 1867 0042 0D00     		.short	13
 1868 0044 0F00     		.short	15
 1869 0046 1000     		.short	16
 1870 0048 1100     		.short	17
 1871 004a 1200     		.short	18
 1872 004c 1400     		.short	20
 1873 004e 1500     		.short	21
 1874 0050 1700     		.short	23
 1875 0052 1900     		.short	25
 1876 0054 1A00     		.short	26
 1877 0056 1C00     		.short	28
 1878 0058 1E00     		.short	30
 1879 005a 2000     		.short	32
 1880 005c 2200     		.short	34
 1881 005e 2400     		.short	36
 1882 0060 2600     		.short	38
 1883 0062 2800     		.short	40
 1884 0064 2B00     		.short	43
 1885 0066 2D00     		.short	45
 1886 0068 3000     		.short	48
 1887 006a 3200     		.short	50
 1888 006c 3500     		.short	53
 1889 006e 3800     		.short	56
 1890 0070 3B00     		.short	59
 1891 0072 3E00     		.short	62
 1892 0074 4100     		.short	65
 1893 0076 4400     		.short	68
 1894 0078 4700     		.short	71
 1895 007a 4B00     		.short	75
 1896 007c 4E00     		.short	78
 1897 007e 5200     		.short	82
 1898 0080 5500     		.short	85
 1899 0082 5900     		.short	89
 1900 0084 5D00     		.short	93
 1901 0086 6100     		.short	97
 1902 0088 6500     		.short	101
 1903 008a 6900     		.short	105
 1904 008c 6E00     		.short	110
 1905 008e 7200     		.short	114
 1906 0090 7700     		.short	119
 1907 0092 7B00     		.short	123
 1908 0094 8000     		.short	128
 1909 0096 8500     		.short	133
 1910 0098 8A00     		.short	138
 1911 009a 8F00     		.short	143
 1912 009c 9500     		.short	149
 1913 009e 9A00     		.short	154
 1914 00a0 9F00     		.short	159
 1915 00a2 A500     		.short	165
 1916 00a4 AB00     		.short	171
 1917 00a6 B100     		.short	177
 1918 00a8 B700     		.short	183
ARM GAS  /tmp/cciqVpdV.s 			page 66


 1919 00aa BD00     		.short	189
 1920 00ac C300     		.short	195
 1921 00ae CA00     		.short	202
 1922 00b0 D000     		.short	208
 1923 00b2 D700     		.short	215
 1924 00b4 DE00     		.short	222
 1925 00b6 E500     		.short	229
 1926 00b8 EC00     		.short	236
 1927 00ba F300     		.short	243
 1928 00bc FA00     		.short	250
 1929 00be 0201     		.short	258
 1930 00c0 0A01     		.short	266
 1931 00c2 1101     		.short	273
 1932 00c4 1901     		.short	281
 1933 00c6 2201     		.short	290
 1934 00c8 2A01     		.short	298
 1935 00ca 3201     		.short	306
 1936 00cc 3B01     		.short	315
 1937 00ce 4401     		.short	324
 1938 00d0 4C01     		.short	332
 1939 00d2 5501     		.short	341
 1940 00d4 5F01     		.short	351
 1941 00d6 6801     		.short	360
 1942 00d8 7101     		.short	369
 1943 00da 7B01     		.short	379
 1944 00dc 8501     		.short	389
 1945 00de 8F01     		.short	399
 1946 00e0 9901     		.short	409
 1947 00e2 A301     		.short	419
 1948 00e4 AE01     		.short	430
 1949 00e6 B801     		.short	440
 1950 00e8 C301     		.short	451
 1951 00ea CE01     		.short	462
 1952 00ec D901     		.short	473
 1953 00ee E501     		.short	485
 1954 00f0 F001     		.short	496
 1955 00f2 FC01     		.short	508
 1956 00f4 0802     		.short	520
 1957 00f6 1402     		.short	532
 1958 00f8 2002     		.short	544
 1959 00fa 2C02     		.short	556
 1960 00fc 3902     		.short	569
 1961 00fe 4602     		.short	582
 1962 0100 5202     		.short	594
 1963 0102 6002     		.short	608
 1964 0104 6D02     		.short	621
 1965 0106 7A02     		.short	634
 1966 0108 8802     		.short	648
 1967 010a 9602     		.short	662
 1968 010c A402     		.short	676
 1969 010e B202     		.short	690
 1970 0110 C002     		.short	704
 1971 0112 CF02     		.short	719
 1972 0114 DE02     		.short	734
 1973 0116 ED02     		.short	749
 1974 0118 FC02     		.short	764
 1975 011a 0B03     		.short	779
ARM GAS  /tmp/cciqVpdV.s 			page 67


 1976 011c 1B03     		.short	795
 1977 011e 2B03     		.short	811
 1978 0120 3B03     		.short	827
 1979 0122 4B03     		.short	843
 1980 0124 5B03     		.short	859
 1981 0126 6C03     		.short	876
 1982 0128 7D03     		.short	893
 1983 012a 8E03     		.short	910
 1984 012c 9F03     		.short	927
 1985 012e B003     		.short	944
 1986 0130 C203     		.short	962
 1987 0132 D403     		.short	980
 1988 0134 E603     		.short	998
 1989 0136 F803     		.short	1016
 1990 0138 0A04     		.short	1034
 1991 013a 1D04     		.short	1053
 1992 013c 3004     		.short	1072
 1993 013e 4304     		.short	1091
 1994 0140 5604     		.short	1110
 1995 0142 6A04     		.short	1130
 1996 0144 7E04     		.short	1150
 1997 0146 9204     		.short	1170
 1998 0148 A604     		.short	1190
 1999 014a BA04     		.short	1210
 2000 014c CF04     		.short	1231
 2001 014e E404     		.short	1252
 2002 0150 F904     		.short	1273
 2003 0152 0E05     		.short	1294
 2004 0154 2405     		.short	1316
 2005 0156 3A05     		.short	1338
 2006 0158 5005     		.short	1360
 2007 015a 6605     		.short	1382
 2008 015c 7C05     		.short	1404
 2009 015e 9305     		.short	1427
 2010 0160 AA05     		.short	1450
 2011 0162 C105     		.short	1473
 2012 0164 D905     		.short	1497
 2013 0166 F005     		.short	1520
 2014 0168 0806     		.short	1544
 2015 016a 2006     		.short	1568
 2016 016c 3906     		.short	1593
 2017 016e 5106     		.short	1617
 2018 0170 6A06     		.short	1642
 2019 0172 8306     		.short	1667
 2020 0174 9D06     		.short	1693
 2021 0176 B606     		.short	1718
 2022 0178 D006     		.short	1744
 2023 017a EA06     		.short	1770
 2024 017c 0507     		.short	1797
 2025 017e 1F07     		.short	1823
 2026 0180 3A07     		.short	1850
 2027 0182 5507     		.short	1877
 2028 0184 7107     		.short	1905
 2029 0186 8C07     		.short	1932
 2030 0188 A807     		.short	1960
 2031 018a C407     		.short	1988
 2032 018c E107     		.short	2017
ARM GAS  /tmp/cciqVpdV.s 			page 68


 2033 018e FD07     		.short	2045
 2034 0190 1A08     		.short	2074
 2035 0192 3708     		.short	2103
 2036 0194 5508     		.short	2133
 2037 0196 7208     		.short	2162
 2038 0198 9008     		.short	2192
 2039 019a AF08     		.short	2223
 2040 019c CD08     		.short	2253
 2041 019e EC08     		.short	2284
 2042 01a0 0B09     		.short	2315
 2043 01a2 2A09     		.short	2346
 2044 01a4 4A09     		.short	2378
 2045 01a6 6A09     		.short	2410
 2046 01a8 8A09     		.short	2442
 2047 01aa AA09     		.short	2474
 2048 01ac CB09     		.short	2507
 2049 01ae EC09     		.short	2540
 2050 01b0 0D0A     		.short	2573
 2051 01b2 2E0A     		.short	2606
 2052 01b4 500A     		.short	2640
 2053 01b6 720A     		.short	2674
 2054 01b8 940A     		.short	2708
 2055 01ba B70A     		.short	2743
 2056 01bc DA0A     		.short	2778
 2057 01be FD0A     		.short	2813
 2058 01c0 210B     		.short	2849
 2059 01c2 440B     		.short	2884
 2060 01c4 680B     		.short	2920
 2061 01c6 8D0B     		.short	2957
 2062 01c8 B10B     		.short	2993
 2063 01ca D60B     		.short	3030
 2064 01cc FB0B     		.short	3067
 2065 01ce 210C     		.short	3105
 2066 01d0 470C     		.short	3143
 2067 01d2 6D0C     		.short	3181
 2068 01d4 930C     		.short	3219
 2069 01d6 BA0C     		.short	3258
 2070 01d8 E10C     		.short	3297
 2071 01da 080D     		.short	3336
 2072 01dc 300D     		.short	3376
 2073 01de 580D     		.short	3416
 2074 01e0 800D     		.short	3456
 2075 01e2 A80D     		.short	3496
 2076 01e4 D10D     		.short	3537
 2077 01e6 FA0D     		.short	3578
 2078 01e8 230E     		.short	3619
 2079 01ea 4D0E     		.short	3661
 2080 01ec 770E     		.short	3703
 2081 01ee A10E     		.short	3745
 2082 01f0 CC0E     		.short	3788
 2083 01f2 F70E     		.short	3831
 2084 01f4 220F     		.short	3874
 2085 01f6 4E0F     		.short	3918
 2086 01f8 7A0F     		.short	3962
 2087 01fa A60F     		.short	4006
 2088 01fc D20F     		.short	4050
 2089 01fe FF0F     		.short	4095
ARM GAS  /tmp/cciqVpdV.s 			page 69


 2090              		.text
 2091              	.Letext0:
 2092              		.file 19 "/usr/arm-none-eabi/include/machine/_default_types.h"
 2093              		.file 20 "/usr/arm-none-eabi/include/sys/_stdint.h"
 2094              		.file 21 "/usr/arm-none-eabi/include/stdint.h"
 2095              		.file 22 "/usr/lib/gcc/arm-none-eabi/15.2.0/include/stddef.h"
 2096              		.file 23 "/usr/arm-none-eabi/include/c++/15.2.0/type_traits"
 2097              		.file 24 "/usr/arm-none-eabi/include/c++/15.2.0/cmath"
 2098              		.file 25 "/usr/arm-none-eabi/include/c++/15.2.0/concepts"
 2099              		.file 26 "/usr/arm-none-eabi/include/c++/15.2.0/bits/iterator_concepts.h"
 2100              		.file 27 "/usr/arm-none-eabi/include/c++/15.2.0/bits/utility.h"
 2101              		.file 28 "/usr/arm-none-eabi/include/c++/15.2.0/compare"
 2102              		.file 29 "/usr/arm-none-eabi/include/c++/15.2.0/debug/debug.h"
 2103              		.file 30 "/usr/arm-none-eabi/include/c++/15.2.0/bits/std_abs.h"
 2104              		.file 31 "/usr/arm-none-eabi/include/c++/15.2.0/cstdlib"
 2105              		.file 32 "/usr/arm-none-eabi/include/c++/15.2.0/cstdint"
 2106              		.file 33 "/usr/arm-none-eabi/include/c++/15.2.0/numbers"
 2107              		.file 34 "/usr/arm-none-eabi/include/c++/15.2.0/cstdarg"
 2108              		.file 35 "/usr/arm-none-eabi/include/c++/15.2.0/cstdio"
 2109              		.file 36 "/usr/arm-none-eabi/include/c++/15.2.0/cstring"
 2110              		.file 37 "/usr/arm-none-eabi/include/c++/15.2.0/cwchar"
 2111              		.file 38 "/usr/arm-none-eabi/include/c++/15.2.0/clocale"
 2112              		.file 39 "/usr/arm-none-eabi/include/c++/15.2.0/arm-none-eabi/thumb/v7e-m+dp/hard/bits/c++config.h
 2113              		.file 40 "/usr/arm-none-eabi/include/c++/15.2.0/cstddef"
 2114              		.file 41 "/usr/arm-none-eabi/include/c++/15.2.0/bits/predefined_ops.h"
 2115              		.file 42 "/usr/arm-none-eabi/include/sys/_types.h"
 2116              		.file 43 "/usr/arm-none-eabi/include/sys/reent.h"
 2117              		.file 44 "/usr/arm-none-eabi/include/sys/lock.h"
 2118              		.file 45 "/usr/arm-none-eabi/include/math.h"
 2119              		.file 46 "/usr/arm-none-eabi/include/stdlib.h"
 2120              		.file 47 "/usr/arm-none-eabi/include/c++/15.2.0/bits/ptr_traits.h"
 2121              		.file 48 "/usr/arm-none-eabi/include/c++/15.2.0/math.h"
 2122              		.file 49 "/usr/arm-none-eabi/include/c++/15.2.0/stdlib.h"
 2123              		.file 50 "../../libDaisy/src/daisy_core.h"
 2124              		.file 51 "../../libDaisy/src/util/wav_format.h"
 2125              		.file 52 "../../libDaisy/src/hid/led.h"
 2126              		.file 53 "../../libDaisy/src/util/color.h"
 2127              		.file 54 "../../libDaisy/src/hid/rgb_led.h"
 2128              		.file 55 "../../libDaisy/src/dev/max11300.h"
 2129              		.file 56 "../../libDaisy/src/per/gpio.h"
 2130              		.file 57 "../../libDaisy/src/dev/sdram.h"
 2131              		.file 58 "/usr/arm-none-eabi/include/c++/15.2.0/pstl/execution_defs.h"
 2132              		.file 59 "/usr/lib/gcc/arm-none-eabi/15.2.0/include/stdarg.h"
 2133              		.file 60 "/usr/arm-none-eabi/include/stdio.h"
 2134              		.file 61 "/usr/arm-none-eabi/include/string.h"
 2135              		.file 62 "/usr/arm-none-eabi/include/wchar.h"
 2136              		.file 63 "../../DaisySP/Source/Control/adenv.h"
 2137              		.file 64 "/usr/arm-none-eabi/include/locale.h"
 2138              		.file 65 "../../libDaisy/src/dev/sr_595.h"
 2139              		.file 66 "/usr/arm-none-eabi/include/c++/15.2.0/bits/memory_resource.h"
 2140              		.file 67 "<built-in>"
ARM GAS  /tmp/cciqVpdV.s 			page 70

