ARM GAS  /tmp/ccvgZOuh.s 			page 1


   1              		.cpu cortex-m7
   2              		.arch armv7e-m
   3              		.fpu fpv5-d16
   4              		.eabi_attribute 28, 1
   5              		.eabi_attribute 23, 1
   6              		.eabi_attribute 24, 1
   7              		.eabi_attribute 25, 1
   8              		.eabi_attribute 26, 1
   9              		.eabi_attribute 30, 2
  10              		.eabi_attribute 34, 1
  11              		.eabi_attribute 18, 4
  12              		.file	"granularplayermod.cpp"
  13              		.text
  14              	.Ltext0:
  15              		.cfi_sections	.debug_frame
  16              		.file 1 "granularplayermod.cpp"
  17              		.section	.text._ZN17GranularPlayerMod4InitEPfifff,"ax",%progbits
  18              		.align	1
  19              		.p2align 2,,3
  20              		.global	_ZN17GranularPlayerMod4InitEPfifff
  21              		.syntax unified
  22              		.thumb
  23              		.thumb_func
  25              	_ZN17GranularPlayerMod4InitEPfifff:
  26              	.LVL0:
  27              	.LFB4883:
   1:granularplayermod.cpp **** #include "granularplayermod.h"
   2:granularplayermod.cpp **** 
   3:granularplayermod.cpp **** using namespace daisysp;
   4:granularplayermod.cpp **** 
   5:granularplayermod.cpp **** void GranularPlayerMod::Init(float* sample, int size, float sample_rate, float phase1, float phase2
   6:granularplayermod.cpp **** {
  28              		.loc 1 6 1 view -0
  29              		.cfi_startproc
  30              		@ args = 0, pretend = 0, frame = 8
  31              		@ frame_needed = 0, uses_anonymous_args = 0
   7:granularplayermod.cpp ****     /*initialize variables to private members*/
   8:granularplayermod.cpp ****     sample_      = sample;
  32              		.loc 1 8 5 view .LVU1
   9:granularplayermod.cpp ****     size_        = size;
  10:granularplayermod.cpp ****     variable_size_ = size_;
  33              		.loc 1 10 20 is_stmt 0 view .LVU2
  34 0000 07EE102A 		vmov	s14, r2	@ int
   6:granularplayermod.cpp ****     /*initialize variables to private members*/
  35              		.loc 1 6 1 view .LVU3
  36 0004 F0EE407A 		vmov.f32	s15, s0
  37 0008 F0B5     		push	{r4, r5, r6, r7, lr}
  38              		.cfi_def_cfa_offset 20
  39              		.cfi_offset 4, -20
  40              		.cfi_offset 5, -16
  41              		.cfi_offset 6, -12
  42              		.cfi_offset 7, -8
  43              		.cfi_offset 14, -4
  44              		.loc 1 10 20 view .LVU4
  45 000a 00F58057 		add	r7, r0, #4096
  46 000e B8EEC77A 		vcvt.f32.s32	s14, s14
   6:granularplayermod.cpp ****     /*initialize variables to private members*/
ARM GAS  /tmp/ccvgZOuh.s 			page 2


  47              		.loc 1 6 1 view .LVU5
  48 0012 0646     		mov	r6, r0
  49              		.loc 1 10 20 view .LVU6
  50 0014 07F6AC04 		addw	r4, r7, #2220
  51              	.LBB41:
  52              	.LBB42:
  53              		.file 2 "../../DaisySP/Source/Control/phasor.h"
   1:../../DaisySP/Source/Control/phasor.h **** /*
   2:../../DaisySP/Source/Control/phasor.h **** Copyright (c) 2020 Electrosmith, Corp
   3:../../DaisySP/Source/Control/phasor.h **** 
   4:../../DaisySP/Source/Control/phasor.h **** Use of this source code is governed by an MIT-style
   5:../../DaisySP/Source/Control/phasor.h **** license that can be found in the LICENSE file or at
   6:../../DaisySP/Source/Control/phasor.h **** https://opensource.org/licenses/MIT.
   7:../../DaisySP/Source/Control/phasor.h **** */
   8:../../DaisySP/Source/Control/phasor.h **** 
   9:../../DaisySP/Source/Control/phasor.h **** #pragma once
  10:../../DaisySP/Source/Control/phasor.h **** #ifndef DSY_PHASOR_H
  11:../../DaisySP/Source/Control/phasor.h **** #define DSY_PHASOR_H
  12:../../DaisySP/Source/Control/phasor.h **** #ifdef __cplusplus
  13:../../DaisySP/Source/Control/phasor.h **** 
  14:../../DaisySP/Source/Control/phasor.h **** namespace daisysp
  15:../../DaisySP/Source/Control/phasor.h **** {
  16:../../DaisySP/Source/Control/phasor.h **** /** Generates a normalized signal moving from 0-1 at the specified frequency.
  17:../../DaisySP/Source/Control/phasor.h **** 
  18:../../DaisySP/Source/Control/phasor.h **** \todo Selecting which channels should be initialized/included in the sequence conversion.
  19:../../DaisySP/Source/Control/phasor.h **** \todo Setup a similar start function for an external mux, but that seems outside the scope of this 
  20:../../DaisySP/Source/Control/phasor.h **** 
  21:../../DaisySP/Source/Control/phasor.h **** */
  22:../../DaisySP/Source/Control/phasor.h **** class Phasor
  23:../../DaisySP/Source/Control/phasor.h **** {
  24:../../DaisySP/Source/Control/phasor.h ****   public:
  25:../../DaisySP/Source/Control/phasor.h ****     Phasor() {}
  26:../../DaisySP/Source/Control/phasor.h ****     ~Phasor() {}
  27:../../DaisySP/Source/Control/phasor.h ****     /** Initializes the Phasor module
  28:../../DaisySP/Source/Control/phasor.h ****     sample rate, and freq are in Hz
  29:../../DaisySP/Source/Control/phasor.h ****     initial phase is in radians
  30:../../DaisySP/Source/Control/phasor.h ****     Additional Init functions have defaults when arg is not specified:
  31:../../DaisySP/Source/Control/phasor.h ****     - phs = 0.0f
  32:../../DaisySP/Source/Control/phasor.h ****     - freq = 1.0f
  33:../../DaisySP/Source/Control/phasor.h ****     */
  34:../../DaisySP/Source/Control/phasor.h ****     inline void Init(float sample_rate, float freq, float initial_phase)
  35:../../DaisySP/Source/Control/phasor.h ****     {
  36:../../DaisySP/Source/Control/phasor.h ****         sample_rate_ = sample_rate;
  54              		.loc 2 36 22 view .LVU7
  55 0018 07F63C03 		addw	r3, r7, #2108
  56 001c 06F12005 		add	r5, r6, #32
  57              	.LBE42:
  58              	.LBE41:
   6:granularplayermod.cpp ****     /*initialize variables to private members*/
  59              		.loc 1 6 1 view .LVU8
  60 0020 2DED028B 		vpush.64	{d8}
  61              		.cfi_def_cfa_offset 28
  62              		.cfi_offset 80, -28
  63              		.cfi_offset 81, -24
  64              	.LBB47:
  65              	.LBB43:
  37:../../DaisySP/Source/Control/phasor.h ****         phs_         = initial_phase;
ARM GAS  /tmp/ccvgZOuh.s 			page 3


  38:../../DaisySP/Source/Control/phasor.h ****         SetFreq(freq);
  66              		.loc 2 38 16 view .LVU9
  67 0024 9FED588A 		vldr.32	s16, .L19+8
  68              	.LBE43:
  69              	.LBE47:
   6:granularplayermod.cpp ****     /*initialize variables to private members*/
  70              		.loc 1 6 1 view .LVU10
  71 0028 83B0     		sub	sp, sp, #12
  72              		.cfi_def_cfa_offset 40
   8:granularplayermod.cpp ****     size_        = size;
  73              		.loc 1 8 18 view .LVU11
  74 002a 0160     		str	r1, [r0]
   9:granularplayermod.cpp ****     variable_size_ = size_;
  75              		.loc 1 9 5 is_stmt 1 view .LVU12
   9:granularplayermod.cpp ****     variable_size_ = size_;
  76              		.loc 1 9 18 is_stmt 0 view .LVU13
  77 002c 8260     		str	r2, [r0, #8]
  78              		.loc 1 10 5 is_stmt 1 view .LVU14
  79              	.LBB48:
  80              	.LBB44:
  81              		.loc 2 38 16 is_stmt 0 view .LVU15
  82 002e B0EE480A 		vmov.f32	s0, s16
  83              	.LVL1:
  84              		.loc 2 38 16 view .LVU16
  85              	.LBE44:
  86              	.LBE48:
  87              		.loc 1 10 20 view .LVU17
  88 0032 84ED007A 		vstr.32	s14, [r4]
  11:granularplayermod.cpp ****     sample_rate_ = sample_rate;
  89              		.loc 1 11 5 is_stmt 1 view .LVU18
  90              		.loc 1 11 18 is_stmt 0 view .LVU19
  91 0036 C0ED017A 		vstr.32	s15, [r0, #4]
  12:granularplayermod.cpp ****     /*initialize phasors. phs2_ is initialized with a phase offset of 0.5f to create an overlapping
  13:granularplayermod.cpp ****     phs_.Init(sample_rate_, 0, phase1);
  92              		.loc 1 13 5 is_stmt 1 view .LVU20
  93              	.LVL2:
  94              	.LBB49:
  95              	.LBI41:
  34:../../DaisySP/Source/Control/phasor.h ****     {
  96              		.loc 2 34 17 view .LVU21
  97              	.LBB45:
  36:../../DaisySP/Source/Control/phasor.h ****         phs_         = initial_phase;
  98              		.loc 2 36 9 view .LVU22
  99              		.loc 2 38 16 is_stmt 0 view .LVU23
 100 003a 41F63C00 		movw	r0, #6204
 101              	.LVL3:
  36:../../DaisySP/Source/Control/phasor.h ****         phs_         = initial_phase;
 102              		.loc 2 36 22 view .LVU24
 103 003e C3ED017A 		vstr.32	s15, [r3, #4]
  37:../../DaisySP/Source/Control/phasor.h ****         SetFreq(freq);
 104              		.loc 2 37 9 is_stmt 1 view .LVU25
  37:../../DaisySP/Source/Control/phasor.h ****         SetFreq(freq);
 105              		.loc 2 37 22 is_stmt 0 view .LVU26
 106 0042 C3ED030A 		vstr.32	s1, [r3, #12]
 107              		.loc 2 38 9 is_stmt 1 view .LVU27
 108              		.loc 2 38 16 is_stmt 0 view .LVU28
 109 0046 3018     		adds	r0, r6, r0
ARM GAS  /tmp/ccvgZOuh.s 			page 4


 110              	.LBE45:
 111              	.LBE49:
   6:granularplayermod.cpp ****     /*initialize variables to private members*/
 112              		.loc 1 6 1 view .LVU29
 113 0048 8DED011A 		vstr.32	s2, [sp, #4]	@ int
 114              	.LBB50:
 115              	.LBB46:
 116              		.loc 2 38 16 view .LVU30
 117 004c FFF7FEFF 		bl	_ZN7daisysp6Phasor7SetFreqEf
 118              	.LVL4:
 119              		.loc 2 38 16 view .LVU31
 120              	.LBE46:
 121              	.LBE50:
  14:granularplayermod.cpp ****     phsImp_.Init(sample_rate_, 0, 0);
 122              		.loc 1 14 5 is_stmt 1 view .LVU32
 123              	.LBB51:
 124              	.LBI51:
  34:../../DaisySP/Source/Control/phasor.h ****     {
 125              		.loc 2 34 17 view .LVU33
 126              	.LBB52:
  36:../../DaisySP/Source/Control/phasor.h ****         phs_         = initial_phase;
 127              		.loc 2 36 9 view .LVU34
  36:../../DaisySP/Source/Control/phasor.h ****         phs_         = initial_phase;
 128              		.loc 2 36 22 is_stmt 0 view .LVU35
 129 0050 07F64C03 		addw	r3, r7, #2124
 130 0054 7268     		ldr	r2, [r6, #4]	@ float
 131              		.loc 2 38 16 view .LVU36
 132 0056 41F64C00 		movw	r0, #6220
 133 005a B0EE480A 		vmov.f32	s0, s16
  36:../../DaisySP/Source/Control/phasor.h ****         phs_         = initial_phase;
 134              		.loc 2 36 22 view .LVU37
 135 005e 5A60     		str	r2, [r3, #4]	@ float
  37:../../DaisySP/Source/Control/phasor.h ****         SetFreq(freq);
 136              		.loc 2 37 9 is_stmt 1 view .LVU38
 137              		.loc 2 38 9 view .LVU39
 138              		.loc 2 38 16 is_stmt 0 view .LVU40
 139 0060 3018     		adds	r0, r6, r0
  37:../../DaisySP/Source/Control/phasor.h ****         SetFreq(freq);
 140              		.loc 2 37 22 view .LVU41
 141 0062 83ED038A 		vstr.32	s16, [r3, #12]
 142              		.loc 2 38 16 view .LVU42
 143 0066 FFF7FEFF 		bl	_ZN7daisysp6Phasor7SetFreqEf
 144              	.LVL5:
 145              		.loc 2 38 16 view .LVU43
 146              	.LBE52:
 147              	.LBE51:
  15:granularplayermod.cpp ****     phs2_.Init(sample_rate_, 0, phase2);
 148              		.loc 1 15 5 is_stmt 1 view .LVU44
 149              	.LBB53:
 150              	.LBI53:
  34:../../DaisySP/Source/Control/phasor.h ****     {
 151              		.loc 2 34 17 view .LVU45
 152              	.LBB54:
  36:../../DaisySP/Source/Control/phasor.h ****         phs_         = initial_phase;
 153              		.loc 2 36 9 view .LVU46
  36:../../DaisySP/Source/Control/phasor.h ****         phs_         = initial_phase;
 154              		.loc 2 36 22 is_stmt 0 view .LVU47
ARM GAS  /tmp/ccvgZOuh.s 			page 5


 155 006a 07F65C03 		addw	r3, r7, #2140
 156 006e 7268     		ldr	r2, [r6, #4]	@ float
 157              		.loc 2 38 16 view .LVU48
 158 0070 41F65C00 		movw	r0, #6236
  37:../../DaisySP/Source/Control/phasor.h ****         SetFreq(freq);
 159              		.loc 2 37 22 view .LVU49
 160 0074 9DED011A 		vldr.32	s2, [sp, #4]	@ int
 161              		.loc 2 38 16 view .LVU50
 162 0078 B0EE480A 		vmov.f32	s0, s16
  36:../../DaisySP/Source/Control/phasor.h ****         phs_         = initial_phase;
 163              		.loc 2 36 22 view .LVU51
 164 007c 5A60     		str	r2, [r3, #4]	@ float
  37:../../DaisySP/Source/Control/phasor.h ****         SetFreq(freq);
 165              		.loc 2 37 9 is_stmt 1 view .LVU52
 166              		.loc 2 38 9 view .LVU53
 167              		.loc 2 38 16 is_stmt 0 view .LVU54
 168 007e 3018     		adds	r0, r6, r0
  37:../../DaisySP/Source/Control/phasor.h ****         SetFreq(freq);
 169              		.loc 2 37 22 view .LVU55
 170 0080 83ED031A 		vstr.32	s2, [r3, #12]
 171              		.loc 2 38 16 view .LVU56
 172 0084 FFF7FEFF 		bl	_ZN7daisysp6Phasor7SetFreqEf
 173              	.LVL6:
 174              		.loc 2 38 16 view .LVU57
 175              	.LBE54:
 176              	.LBE53:
  16:granularplayermod.cpp ****     phsImp2_.Init(sample_rate_, 0, 0);
 177              		.loc 1 16 5 is_stmt 1 view .LVU58
 178              	.LBB55:
 179              	.LBI55:
  34:../../DaisySP/Source/Control/phasor.h ****     {
 180              		.loc 2 34 17 view .LVU59
 181              	.LBB56:
  36:../../DaisySP/Source/Control/phasor.h ****         phs_         = initial_phase;
 182              		.loc 2 36 9 view .LVU60
  36:../../DaisySP/Source/Control/phasor.h ****         phs_         = initial_phase;
 183              		.loc 2 36 22 is_stmt 0 view .LVU61
 184 0088 07F66C03 		addw	r3, r7, #2156
 185 008c 7268     		ldr	r2, [r6, #4]	@ float
 186              		.loc 2 38 16 view .LVU62
 187 008e 41F66C00 		movw	r0, #6252
 188 0092 B0EE480A 		vmov.f32	s0, s16
  37:../../DaisySP/Source/Control/phasor.h ****         SetFreq(freq);
 189              		.loc 2 37 22 view .LVU63
 190 0096 83ED038A 		vstr.32	s16, [r3, #12]
 191              		.loc 2 38 16 view .LVU64
 192 009a 3018     		adds	r0, r6, r0
  36:../../DaisySP/Source/Control/phasor.h ****         phs_         = initial_phase;
 193              		.loc 2 36 22 view .LVU65
 194 009c 5A60     		str	r2, [r3, #4]	@ float
  37:../../DaisySP/Source/Control/phasor.h ****         SetFreq(freq);
 195              		.loc 2 37 9 is_stmt 1 view .LVU66
 196              		.loc 2 38 9 view .LVU67
 197              		.loc 2 38 16 is_stmt 0 view .LVU68
 198 009e FFF7FEFF 		bl	_ZN7daisysp6Phasor7SetFreqEf
 199              	.LVL7:
 200              		.loc 2 38 16 view .LVU69
ARM GAS  /tmp/ccvgZOuh.s 			page 6


 201              	.LBE56:
 202              	.LBE55:
  17:granularplayermod.cpp ****     /*calculate sample frequency*/
  18:granularplayermod.cpp ****     sample_frequency_ = sample_rate_ / variable_size_;
 203              		.loc 1 18 5 is_stmt 1 view .LVU70
 204              		.loc 1 18 38 is_stmt 0 view .LVU71
 205 00a2 94ED007A 		vldr.32	s14, [r4]
 206 00a6 D6ED016A 		vldr.32	s13, [r6, #4]
 207              	.LBB57:
  19:granularplayermod.cpp ****     /*initialize half cosine envelope*/
  20:granularplayermod.cpp ****     for(int i = 0; i < 512; i++)
 208              		.loc 1 20 5 discriminator 3 view .LVU72
 209 00aa 0124     		movs	r4, #1
  21:granularplayermod.cpp ****     {
  22:granularplayermod.cpp ****         cosEnv_[i] = sinf((i / 512.0f) * M_PI);
 210              		.loc 1 22 20 discriminator 1 view .LVU73
 211 00ac 86ED078A 		vstr.32	s16, [r6, #28]
 212              	.LBE57:
  18:granularplayermod.cpp ****     /*initialize half cosine envelope*/
 213              		.loc 1 18 38 view .LVU74
 214 00b0 C6EE877A 		vdiv.f32	s15, s13, s14
  18:granularplayermod.cpp ****     /*initialize half cosine envelope*/
 215              		.loc 1 18 23 view .LVU75
 216 00b4 C6ED067A 		vstr.32	s15, [r6, #24]
  20:granularplayermod.cpp ****     {
 217              		.loc 1 20 5 is_stmt 1 view .LVU76
 218              	.LBB58:
  20:granularplayermod.cpp ****     {
 219              		.loc 1 20 22 discriminator 1 view .LVU77
 220              	.LVL8:
 221              		.loc 1 22 9 view .LVU78
  20:granularplayermod.cpp ****     {
 222              		.loc 1 20 5 discriminator 3 view .LVU79
  20:granularplayermod.cpp ****     {
 223              		.loc 1 20 22 discriminator 1 view .LVU80
 224              	.L2:
 225              		.loc 1 22 30 is_stmt 0 view .LVU81
 226 00b8 00EE104A 		vmov	s0, r4	@ int
  20:granularplayermod.cpp ****     {
 227              		.loc 1 20 5 discriminator 3 view .LVU82
 228 00bc 0134     		adds	r4, r4, #1
 229              	.LVL9:
 230              		.loc 1 22 30 view .LVU83
 231 00be BAEEEB0A 		vcvt.f32.s32	s0, s0, #9
 232              	.LVL10:
 233              		.loc 1 22 40 view .LVU84
 234 00c2 9FED2F7B 		vldr.64	d7, .L19
 235              		.loc 1 22 30 view .LVU85
 236 00c6 B7EEC00A 		vcvt.f64.f32	d0, s0
 237              		.loc 1 22 40 view .LVU86
 238 00ca 20EE070B 		vmul.f64	d0, d0, d7
 239              		.loc 1 22 26 view .LVU87
 240 00ce B7EEC00B 		vcvt.f32.f64	s0, d0
 241 00d2 FFF7FEFF 		bl	sinf
 242              	.LVL11:
 243              		.loc 1 22 9 is_stmt 1 view .LVU88
  20:granularplayermod.cpp ****     {
ARM GAS  /tmp/ccvgZOuh.s 			page 7


 244              		.loc 1 20 22 is_stmt 0 discriminator 1 view .LVU89
 245 00d6 B4F5007F 		cmp	r4, #512
 246              		.loc 1 22 20 discriminator 1 view .LVU90
 247 00da A5EC010A 		vstmia.32	r5!, {s0}
  20:granularplayermod.cpp ****     {
 248              		.loc 1 20 5 is_stmt 1 discriminator 3 view .LVU91
 249              	.LVL12:
  20:granularplayermod.cpp ****     {
 250              		.loc 1 20 22 discriminator 1 view .LVU92
 251 00de EBD1     		bne	.L2
 252 00e0 06F61C03 		addw	r3, r6, #2076
 253 00e4 06F61C62 		addw	r2, r6, #3612
 254              	.LBE58:
  23:granularplayermod.cpp ****     }
  24:granularplayermod.cpp **** 
  25:granularplayermod.cpp ****     /*initialize linear attack-release envelope*/
  26:granularplayermod.cpp ****     
  27:granularplayermod.cpp ****     float c = 0.0;
 255              		.loc 1 27 11 is_stmt 0 view .LVU93
 256 00e8 DFED277A 		vldr.32	s15, .L19+8
 257              	.L3:
 258              	.LBB59:
  28:granularplayermod.cpp ****     for(int i = 0; i < 512; i++)
  29:granularplayermod.cpp ****     {
  30:granularplayermod.cpp ****         if (i < 384) {                    // attack to unity 1/4 grain time
 259              		.loc 1 30 9 is_stmt 1 view .LVU94
 260              	.LVL13:
  31:granularplayermod.cpp ****             c += 1/384.0f;
 261              		.loc 1 31 13 view .LVU95
 262              		.loc 1 31 15 is_stmt 0 view .LVU96
 263 00ec 9FED277A 		vldr.32	s14, .L19+12
 264 00f0 77EE877A 		vadd.f32	s15, s15, s14
 265              	.LVL14:
  32:granularplayermod.cpp ****             linEnv_[i] = c;
 266              		.loc 1 32 13 is_stmt 1 view .LVU97
 267 00f4 E3EC017A 		vstmia.32	r3!, {s15}
  28:granularplayermod.cpp ****     for(int i = 0; i < 512; i++)
 268              		.loc 1 28 5 discriminator 2 view .LVU98
  28:granularplayermod.cpp ****     for(int i = 0; i < 512; i++)
 269              		.loc 1 28 22 discriminator 1 view .LVU99
 270 00f8 9342     		cmp	r3, r2
 271 00fa F7D1     		bne	.L3
 272 00fc 41F21C01 		movw	r1, #4124
 273 0100 7118     		adds	r1, r6, r1
 274              	.L5:
  30:granularplayermod.cpp ****             c += 1/384.0f;
 275              		.loc 1 30 9 view .LVU100
  33:granularplayermod.cpp ****         } else {  // decay to zero 3/4 grain time
  34:granularplayermod.cpp ****             c -= 1/128.0f;
 276              		.loc 1 34 13 view .LVU101
 277              		.loc 1 34 15 is_stmt 0 view .LVU102
 278 0102 9FED237A 		vldr.32	s14, .L19+16
 279 0106 77EEC77A 		vsub.f32	s15, s15, s14
 280              	.LVL15:
  35:granularplayermod.cpp ****             linEnv_[i] = c;
 281              		.loc 1 35 13 is_stmt 1 view .LVU103
 282 010a E2EC017A 		vstmia.32	r2!, {s15}
ARM GAS  /tmp/ccvgZOuh.s 			page 8


  28:granularplayermod.cpp ****     {
 283              		.loc 1 28 5 discriminator 2 view .LVU104
  28:granularplayermod.cpp ****     {
 284              		.loc 1 28 22 discriminator 1 view .LVU105
 285 010e 8A42     		cmp	r2, r1
 286 0110 F7D1     		bne	.L5
 287 0112 41F21C23 		movw	r3, #4636
 288              	.LBE59:
  36:granularplayermod.cpp ****         } 
  37:granularplayermod.cpp ****     }
  38:granularplayermod.cpp **** 
  39:granularplayermod.cpp ****     /*initialize fast attack- slow decay envelope*/
  40:granularplayermod.cpp ****    
  41:granularplayermod.cpp ****     c = 0.0;
 289              		.loc 1 41 7 is_stmt 0 view .LVU106
 290 0116 DFED1C7A 		vldr.32	s15, .L19+8
 291              	.LVL16:
 292              		.loc 1 41 7 view .LVU107
 293 011a F318     		adds	r3, r6, r3
 294              	.LVL17:
 295              	.L6:
 296              	.LBB60:
  42:granularplayermod.cpp ****     for(int i = 0; i < 512; i++)
  43:granularplayermod.cpp ****     {
  44:granularplayermod.cpp ****         if (i < 128) {                    // attack to unity 1/4 grain time
 297              		.loc 1 44 9 is_stmt 1 view .LVU108
  45:granularplayermod.cpp ****             c += 1/128.0f;
 298              		.loc 1 45 13 view .LVU109
 299              		.loc 1 45 15 is_stmt 0 view .LVU110
 300 011c 9FED1C7A 		vldr.32	s14, .L19+16
 301 0120 77EE877A 		vadd.f32	s15, s15, s14
 302              	.LVL18:
  46:granularplayermod.cpp ****             adLinEnv_[i] = c;
 303              		.loc 1 46 13 is_stmt 1 view .LVU111
 304 0124 E1EC017A 		vstmia.32	r1!, {s15}
  42:granularplayermod.cpp ****     for(int i = 0; i < 512; i++)
 305              		.loc 1 42 5 discriminator 2 view .LVU112
  42:granularplayermod.cpp ****     for(int i = 0; i < 512; i++)
 306              		.loc 1 42 22 discriminator 1 view .LVU113
 307 0128 9942     		cmp	r1, r3
 308 012a F7D1     		bne	.L6
 309 012c 41F61C02 		movw	r2, #6172
 310 0130 B218     		adds	r2, r6, r2
 311              	.L8:
  44:granularplayermod.cpp ****             c += 1/128.0f;
 312              		.loc 1 44 9 view .LVU114
  47:granularplayermod.cpp ****         } else {  // decay to zero 3/4 grain time
  48:granularplayermod.cpp ****             c -= 1/384.0f;
 313              		.loc 1 48 13 view .LVU115
 314              		.loc 1 48 15 is_stmt 0 view .LVU116
 315 0132 9FED167A 		vldr.32	s14, .L19+12
 316 0136 77EEC77A 		vsub.f32	s15, s15, s14
 317              	.LVL19:
  49:granularplayermod.cpp ****             adLinEnv_[i] = c;
 318              		.loc 1 49 13 is_stmt 1 view .LVU117
 319 013a E3EC017A 		vstmia.32	r3!, {s15}
  42:granularplayermod.cpp ****     {
ARM GAS  /tmp/ccvgZOuh.s 			page 9


 320              		.loc 1 42 5 discriminator 2 view .LVU118
  42:granularplayermod.cpp ****     {
 321              		.loc 1 42 22 discriminator 1 view .LVU119
 322 013e 9342     		cmp	r3, r2
 323 0140 F7D1     		bne	.L8
 324              	.LBE60:
  50:granularplayermod.cpp ****         } 
  51:granularplayermod.cpp ****     }
  52:granularplayermod.cpp ****     
  53:granularplayermod.cpp ****     rand_idx_mod_ = 0.0;
 325              		.loc 1 53 5 view .LVU120
 326              		.loc 1 53 19 is_stmt 0 view .LVU121
 327 0142 0023     		movs	r3, #0
 328 0144 06F5C451 		add	r1, r6, #6272
  54:granularplayermod.cpp ****     rand_idx_mod2_ = 0.0;
  55:granularplayermod.cpp ****     switch1 = false;
 329              		.loc 1 55 13 view .LVU122
 330 0148 0022     		movs	r2, #0
  56:granularplayermod.cpp ****     switch2 = false;
  57:granularplayermod.cpp **** 
  58:granularplayermod.cpp ****     env_mode_ = 0; // set to cosine envelope for default
  59:granularplayermod.cpp **** 
  60:granularplayermod.cpp ****     grain_pan1_ = 0.5; // First grain stereo pan, updated for each new grain envelope
  61:granularplayermod.cpp ****     grain_pan2_ = 0.5; //  range of 0 to 1, 0 is full left, 1 is full right, 0.5 is center
  62:granularplayermod.cpp **** 
  63:granularplayermod.cpp ****     outl_ = 0.0;
 331              		.loc 1 63 11 view .LVU123
 332 014a 06F5C556 		add	r6, r6, #6304
 333              	.LVL20:
  53:granularplayermod.cpp ****     rand_idx_mod2_ = 0.0;
 334              		.loc 1 53 19 view .LVU124
 335 014e 0B60     		str	r3, [r1]	@ float
  54:granularplayermod.cpp ****     rand_idx_mod2_ = 0.0;
 336              		.loc 1 54 5 is_stmt 1 view .LVU125
  54:granularplayermod.cpp ****     rand_idx_mod2_ = 0.0;
 337              		.loc 1 54 20 is_stmt 0 view .LVU126
 338 0150 07F68401 		addw	r1, r7, #2180
 339 0154 0B60     		str	r3, [r1]	@ float
  55:granularplayermod.cpp ****     switch2 = false;
 340              		.loc 1 55 5 is_stmt 1 view .LVU127
  56:granularplayermod.cpp ****     switch2 = false;
 341              		.loc 1 56 5 view .LVU128
  60:granularplayermod.cpp ****     grain_pan2_ = 0.5; //  range of 0 to 1, 0 is full left, 1 is full right, 0.5 is center
 342              		.loc 1 60 17 is_stmt 0 view .LVU129
 343 0156 07F69801 		addw	r1, r7, #2200
  55:granularplayermod.cpp ****     switch2 = false;
 344              		.loc 1 55 13 view .LVU130
 345 015a A7F89028 		strh	r2, [r7, #2192]	@ movhi
  58:granularplayermod.cpp **** 
 346              		.loc 1 58 5 is_stmt 1 view .LVU131
  58:granularplayermod.cpp **** 
 347              		.loc 1 58 15 is_stmt 0 view .LVU132
 348 015e C7F89428 		str	r2, [r7, #2196]
  60:granularplayermod.cpp ****     grain_pan2_ = 0.5; //  range of 0 to 1, 0 is full left, 1 is full right, 0.5 is center
 349              		.loc 1 60 5 is_stmt 1 view .LVU133
  60:granularplayermod.cpp ****     grain_pan2_ = 0.5; //  range of 0 to 1, 0 is full left, 1 is full right, 0.5 is center
 350              		.loc 1 60 17 is_stmt 0 view .LVU134
ARM GAS  /tmp/ccvgZOuh.s 			page 10


 351 0162 4FF07C52 		mov	r2, #1056964608
 352 0166 0A60     		str	r2, [r1]	@ float
  61:granularplayermod.cpp **** 
 353              		.loc 1 61 5 is_stmt 1 view .LVU135
  61:granularplayermod.cpp **** 
 354              		.loc 1 61 17 is_stmt 0 view .LVU136
 355 0168 07F69C01 		addw	r1, r7, #2204
  64:granularplayermod.cpp ****     outr_ = 0.0;
 356              		.loc 1 64 11 view .LVU137
 357 016c 07F6A407 		addw	r7, r7, #2212
  61:granularplayermod.cpp **** 
 358              		.loc 1 61 17 view .LVU138
 359 0170 0A60     		str	r2, [r1]	@ float
  63:granularplayermod.cpp ****     outr_ = 0.0;
 360              		.loc 1 63 5 is_stmt 1 view .LVU139
  63:granularplayermod.cpp ****     outr_ = 0.0;
 361              		.loc 1 63 11 is_stmt 0 view .LVU140
 362 0172 3360     		str	r3, [r6]	@ float
 363              		.loc 1 64 5 is_stmt 1 view .LVU141
 364              		.loc 1 64 11 is_stmt 0 view .LVU142
 365 0174 3B60     		str	r3, [r7]	@ float
  65:granularplayermod.cpp **** }
 366              		.loc 1 65 1 view .LVU143
 367 0176 03B0     		add	sp, sp, #12
 368              		.cfi_def_cfa_offset 28
 369              		@ sp needed
 370 0178 BDEC028B 		vldm	sp!, {d8}
 371              		.cfi_restore 80
 372              		.cfi_restore 81
 373              		.cfi_def_cfa_offset 20
 374 017c F0BD     		pop	{r4, r5, r6, r7, pc}
 375              	.LVL21:
 376              	.L20:
 377              		.loc 1 65 1 view .LVU144
 378 017e 00BF     		.align	3
 379              	.L19:
 380 0180 182D4454 		.word	1413754136
 381 0184 FB210940 		.word	1074340347
 382 0188 00000000 		.word	0
 383 018c ABAA2A3B 		.word	992651947
 384 0190 0000003C 		.word	1006632960
 385              		.cfi_endproc
 386              	.LFE4883:
 388              		.section	.text._ZN17GranularPlayerMod7WrapIdxEmm,"ax",%progbits
 389              		.align	1
 390              		.p2align 2,,3
 391              		.global	_ZN17GranularPlayerMod7WrapIdxEmm
 392              		.syntax unified
 393              		.thumb
 394              		.thumb_func
 396              	_ZN17GranularPlayerMod7WrapIdxEmm:
 397              	.LVL22:
 398              	.LFB4884:
  66:granularplayermod.cpp **** 
  67:granularplayermod.cpp **** uint32_t GranularPlayerMod::WrapIdx(uint32_t idx, uint32_t sz)
  68:granularplayermod.cpp **** {
 399              		.loc 1 68 1 is_stmt 1 view -0
ARM GAS  /tmp/ccvgZOuh.s 			page 11


 400              		.cfi_startproc
 401              		@ args = 0, pretend = 0, frame = 0
 402              		@ frame_needed = 0, uses_anonymous_args = 0
 403              		@ link register save eliminated.
  69:granularplayermod.cpp ****     /*wraps idx to sz*/
  70:granularplayermod.cpp ****     // TODO verify change >= from just =
  71:granularplayermod.cpp ****     if(idx >= sz)
 404              		.loc 1 71 5 view .LVU146
 405 0000 9142     		cmp	r1, r2
  72:granularplayermod.cpp ****     {
  73:granularplayermod.cpp ****         idx = idx - sz;
 406              		.loc 1 73 9 view .LVU147
  68:granularplayermod.cpp ****     /*wraps idx to sz*/
 407              		.loc 1 68 1 is_stmt 0 view .LVU148
 408 0002 0846     		mov	r0, r1
 409              	.LVL23:
 410              		.loc 1 73 13 view .LVU149
 411 0004 28BF     		it	cs
 412 0006 881A     		subcs	r0, r1, r2
 413              	.LVL24:
  74:granularplayermod.cpp ****         return idx;
 414              		.loc 1 74 9 is_stmt 1 view .LVU150
  75:granularplayermod.cpp ****     }
  76:granularplayermod.cpp **** 
  77:granularplayermod.cpp ****     return idx;
  78:granularplayermod.cpp **** }
 415              		.loc 1 78 1 is_stmt 0 view .LVU151
 416 0008 7047     		bx	lr
 417              		.cfi_endproc
 418              	.LFE4884:
 420 000a 00BF     		.section	.text._ZN17GranularPlayerMod12CentsToRatioEf,"ax",%progbits
 421              		.align	1
 422              		.p2align 2,,3
 423              		.global	_ZN17GranularPlayerMod12CentsToRatioEf
 424              		.syntax unified
 425              		.thumb
 426              		.thumb_func
 428              	_ZN17GranularPlayerMod12CentsToRatioEf:
 429              	.LVL25:
 430              	.LFB4885:
  79:granularplayermod.cpp **** 
  80:granularplayermod.cpp **** float GranularPlayerMod::CentsToRatio(float cents)
  81:granularplayermod.cpp **** {
 431              		.loc 1 81 1 is_stmt 1 view -0
 432              		.cfi_startproc
 433              		@ args = 0, pretend = 0, frame = 0
 434              		@ frame_needed = 0, uses_anonymous_args = 0
 435              		@ link register save eliminated.
  82:granularplayermod.cpp ****     /*converts cents to  ratio*/
  83:granularplayermod.cpp ****     return powf(2.0f, cents / 1200.0f);
 436              		.loc 1 83 5 view .LVU153
 437              		.loc 1 83 16 is_stmt 0 view .LVU154
 438 0000 DFED037A 		vldr.32	s15, .L24
 439 0004 60EE270A 		vmul.f32	s1, s0, s15
 440 0008 B0EE000A 		vmov.f32	s0, #2.0e+0
 441              	.LVL26:
 442              		.loc 1 83 16 view .LVU155
ARM GAS  /tmp/ccvgZOuh.s 			page 12


 443 000c FFF7FEBF 		b	powf
 444              	.LVL27:
 445              	.L25:
 446              		.loc 1 83 16 view .LVU156
 447              		.align	2
 448              	.L24:
 449 0010 0E745A3A 		.word	979006478
 450              		.cfi_endproc
 451              	.LFE4885:
 453              		.section	.text._ZN17GranularPlayerMod9MsToSampsEff,"ax",%progbits
 454              		.align	1
 455              		.p2align 2,,3
 456              		.global	_ZN17GranularPlayerMod9MsToSampsEff
 457              		.syntax unified
 458              		.thumb
 459              		.thumb_func
 461              	_ZN17GranularPlayerMod9MsToSampsEff:
 462              	.LVL28:
 463              	.LFB4886:
  84:granularplayermod.cpp **** }
  85:granularplayermod.cpp **** 
  86:granularplayermod.cpp **** 
  87:granularplayermod.cpp **** float GranularPlayerMod::MsToSamps(float ms, float samplerate)
  88:granularplayermod.cpp **** {
 464              		.loc 1 88 1 is_stmt 1 view -0
 465              		.cfi_startproc
 466              		@ args = 0, pretend = 0, frame = 0
 467              		@ frame_needed = 0, uses_anonymous_args = 0
 468              		@ link register save eliminated.
  89:granularplayermod.cpp ****     /*converts milliseconds to  number of samples*/
  90:granularplayermod.cpp ****     return (ms * 0.001f) * samplerate;
 469              		.loc 1 90 5 view .LVU158
 470              		.loc 1 90 28 is_stmt 0 view .LVU159
 471 0000 DFED037A 		vldr.32	s15, .L27
 472 0004 60EEA70A 		vmul.f32	s1, s1, s15
 473              	.LVL29:
  91:granularplayermod.cpp **** }
 474              		.loc 1 91 1 view .LVU160
 475 0008 20EE800A 		vmul.f32	s0, s1, s0
 476              	.LVL30:
 477              		.loc 1 91 1 view .LVU161
 478 000c 7047     		bx	lr
 479              	.L28:
 480 000e 00BF     		.align	2
 481              	.L27:
 482 0010 6F12833A 		.word	981668463
 483              		.cfi_endproc
 484              	.LFE4886:
 486              		.section	.text._ZN17GranularPlayerMod14NegativeInvertEPN7daisysp6PhasorEf,"ax",%progbits
 487              		.align	1
 488              		.p2align 2,,3
 489              		.global	_ZN17GranularPlayerMod14NegativeInvertEPN7daisysp6PhasorEf
 490              		.syntax unified
 491              		.thumb
 492              		.thumb_func
 494              	_ZN17GranularPlayerMod14NegativeInvertEPN7daisysp6PhasorEf:
 495              	.LVL31:
ARM GAS  /tmp/ccvgZOuh.s 			page 13


 496              	.LFB4887:
  92:granularplayermod.cpp **** 
  93:granularplayermod.cpp **** float GranularPlayerMod::NegativeInvert(Phasor* phs, float frequency)
  94:granularplayermod.cpp **** {
 497              		.loc 1 94 1 is_stmt 1 view -0
 498              		.cfi_startproc
 499              		@ args = 0, pretend = 0, frame = 0
 500              		@ frame_needed = 0, uses_anonymous_args = 0
  95:granularplayermod.cpp ****     /*inverts the phase of the phasor if the frequency is negative, mimicking pure data's phasor~ o
  96:granularplayermod.cpp ****     return (frequency > 0) ? phs->Process() : ((phs->Process() * -1) + 1);
 501              		.loc 1 96 5 view .LVU163
 502              		.loc 1 96 28 is_stmt 0 view .LVU164
 503 0000 B5EEC00A 		vcmpe.f32	s0, #0
 504 0004 F1EE10FA 		vmrs	APSR_nzcv, FPSCR
 505 0008 02DD     		ble	.L33
 506              		.loc 1 96 42 discriminator 1 view .LVU165
 507 000a 0846     		mov	r0, r1
 508              	.LVL32:
 509              		.loc 1 96 42 discriminator 1 view .LVU166
 510 000c FFF7FEBF 		b	_ZN7daisysp6Phasor7ProcessEv
 511              	.LVL33:
 512              	.L33:
 513              		.loc 1 96 42 discriminator 1 view .LVU167
 514 0010 0846     		mov	r0, r1
 515              	.LVL34:
 516              	.LBB63:
 517              	.LBI63:
  93:granularplayermod.cpp **** {
 518              		.loc 1 93 7 is_stmt 1 view .LVU168
  93:granularplayermod.cpp **** {
 519              		.loc 1 93 7 is_stmt 0 view .LVU169
 520              	.LBE63:
  94:granularplayermod.cpp ****     /*inverts the phase of the phasor if the frequency is negative, mimicking pure data's phasor~ o
 521              		.loc 1 94 1 view .LVU170
 522 0012 08B5     		push	{r3, lr}
 523              		.cfi_def_cfa_offset 8
 524              		.cfi_offset 3, -8
 525              		.cfi_offset 14, -4
 526              	.LBB65:
 527              	.LBB64:
 528              		.loc 1 96 61 discriminator 2 view .LVU171
 529 0014 FFF7FEFF 		bl	_ZN7daisysp6Phasor7ProcessEv
 530              	.LVL35:
 531              		.loc 1 96 73 discriminator 4 view .LVU172
 532 0018 F7EE007A 		vmov.f32	s15, #1.0e+0
 533              	.LBE64:
 534              	.LBE65:
  97:granularplayermod.cpp **** }
 535              		.loc 1 97 1 view .LVU173
 536 001c 37EEC00A 		vsub.f32	s0, s15, s0
 537 0020 08BD     		pop	{r3, pc}
 538              		.cfi_endproc
 539              	.LFE4887:
 541 0022 00BF     		.section	.text._ZN17GranularPlayerMod12newRandIndexEb,"ax",%progbits
 542              		.align	1
 543              		.p2align 2,,3
 544              		.global	_ZN17GranularPlayerMod12newRandIndexEb
ARM GAS  /tmp/ccvgZOuh.s 			page 14


 545              		.syntax unified
 546              		.thumb
 547              		.thumb_func
 549              	_ZN17GranularPlayerMod12newRandIndexEb:
 550              	.LVL36:
 551              	.LFB4888:
  98:granularplayermod.cpp **** 
  99:granularplayermod.cpp **** float GranularPlayerMod::newRandIndex(bool isFirstGrain)
 100:granularplayermod.cpp **** {
 552              		.loc 1 100 1 is_stmt 1 view -0
 553              		.cfi_startproc
 554              		@ args = 0, pretend = 0, frame = 8
 555              		@ frame_needed = 0, uses_anonymous_args = 0
 101:granularplayermod.cpp ****     /* Generates a new random index modifier based on width setting.
 102:granularplayermod.cpp ****         The stereo panning of each grain is also controled by the random
 103:granularplayermod.cpp ****         number genereated here. The farther the width index is from center, the
 104:granularplayermod.cpp ****         more panning is applied. */
 105:granularplayermod.cpp **** 
 106:granularplayermod.cpp ****     // Generate random float from 0 to 1
 107:granularplayermod.cpp ****     float r = static_cast <float> (rand()) / static_cast <float> (RAND_MAX);
 556              		.loc 1 107 5 view .LVU175
 100:granularplayermod.cpp ****     /* Generates a new random index modifier based on width setting.
 557              		.loc 1 100 1 is_stmt 0 view .LVU176
 558 0000 10B5     		push	{r4, lr}
 559              		.cfi_def_cfa_offset 8
 560              		.cfi_offset 4, -8
 561              		.cfi_offset 14, -4
 562 0002 82B0     		sub	sp, sp, #8
 563              		.cfi_def_cfa_offset 16
 100:granularplayermod.cpp ****     /* Generates a new random index modifier based on width setting.
 564              		.loc 1 100 1 view .LVU177
 565 0004 0446     		mov	r4, r0
 566 0006 0191     		str	r1, [sp, #4]
 567              		.loc 1 107 40 view .LVU178
 568 0008 FFF7FEFF 		bl	rand
 569              	.LVL37:
 570              		.loc 1 107 40 view .LVU179
 571 000c 07EE900A 		vmov	s15, r0	@ int
 108:granularplayermod.cpp **** 
 109:granularplayermod.cpp ****     // Use this 0 to 1 float value to set the grain panning (this is a hacky way to do it, maybe ch
 110:granularplayermod.cpp ****     if (isFirstGrain) {
 111:granularplayermod.cpp ****         grain_pan1_ =  0.5 + ((r - 0.5) * spread_);
 572              		.loc 1 111 43 view .LVU180
 573 0010 04F58053 		add	r3, r4, #4096
 574              		.loc 1 111 34 view .LVU181
 575 0014 B6EE006B 		vmov.f64	d6, #5.0e-1
 110:granularplayermod.cpp ****         grain_pan1_ =  0.5 + ((r - 0.5) * spread_);
 576              		.loc 1 110 5 view .LVU182
 577 0018 0199     		ldr	r1, [sp, #4]
 107:granularplayermod.cpp **** 
 578              		.loc 1 107 75 discriminator 1 view .LVU183
 579 001a FAEEE07A 		vcvt.f32.s32	s15, s15, #31
 580              	.LVL38:
 110:granularplayermod.cpp ****         grain_pan1_ =  0.5 + ((r - 0.5) * spread_);
 581              		.loc 1 110 5 is_stmt 1 view .LVU184
 582              		.loc 1 111 43 is_stmt 0 view .LVU185
 583 001e 03F6A802 		addw	r2, r3, #2216
ARM GAS  /tmp/ccvgZOuh.s 			page 15


 584 0022 92ED005A 		vldr.32	s10, [r2]
 585              		.loc 1 111 32 view .LVU186
 586 0026 B7EEE74A 		vcvt.f64.f32	d4, s15
 587              		.loc 1 111 43 view .LVU187
 588 002a B7EEC55A 		vcvt.f64.f32	d5, s10
 589              		.loc 1 111 34 view .LVU188
 590 002e 34EE464B 		vsub.f64	d4, d4, d6
 591              		.loc 1 111 28 view .LVU189
 592 0032 A4EE056B 		vfma.f64	d6, d4, d5
 593 0036 B7EEC66B 		vcvt.f32.f64	s12, d6
 110:granularplayermod.cpp ****         grain_pan1_ =  0.5 + ((r - 0.5) * spread_);
 594              		.loc 1 110 5 view .LVU190
 595 003a B9B1     		cbz	r1, .L37
 596              		.loc 1 111 9 is_stmt 1 view .LVU191
 597              		.loc 1 111 21 is_stmt 0 view .LVU192
 598 003c 03F69802 		addw	r2, r3, #2200
 599 0040 82ED006A 		vstr.32	s12, [r2]
 600              	.L38:
 112:granularplayermod.cpp ****     } else {
 113:granularplayermod.cpp ****         grain_pan2_ =  0.5 + ((r - 0.5) * spread_);
 114:granularplayermod.cpp ****     }
 115:granularplayermod.cpp **** 
 116:granularplayermod.cpp ****     // Move randomized range to -0.5 to 0.5
 117:granularplayermod.cpp ****     float rand_zero_centered = r - 0.5;
 601              		.loc 1 117 5 is_stmt 1 view .LVU193
 602              	.LVL39:
 118:granularplayermod.cpp ****     float width_in_samples = MsToSamps(width_, sample_rate_);
 603              		.loc 1 118 5 view .LVU194
 604              	.LBB68:
 605              	.LBI68:
  87:granularplayermod.cpp **** {
 606              		.loc 1 87 7 view .LVU195
 607              	.LBB69:
  90:granularplayermod.cpp **** }
 608              		.loc 1 90 5 view .LVU196
  90:granularplayermod.cpp **** }
 609              		.loc 1 90 5 is_stmt 0 view .LVU197
 610              	.LBE69:
 611              	.LBE68:
 119:granularplayermod.cpp **** 
 120:granularplayermod.cpp ****     // Calculate random index modifier (range of -width/2 to + width/2)
 121:granularplayermod.cpp ****     float rand_idx_in_samples_float = width_in_samples * rand_zero_centered;
 612              		.loc 1 121 5 is_stmt 1 view .LVU198
 122:granularplayermod.cpp **** 
 123:granularplayermod.cpp ****     return rand_idx_in_samples_float;
 613              		.loc 1 123 5 view .LVU199
 118:granularplayermod.cpp **** 
 614              		.loc 1 118 39 is_stmt 0 view .LVU200
 615 0044 03F67C03 		addw	r3, r3, #2172
 616              	.LBB73:
 617              	.LBB70:
  90:granularplayermod.cpp **** }
 618              		.loc 1 90 26 view .LVU201
 619 0048 94ED016A 		vldr.32	s12, [r4, #4]
 620              	.LBE70:
 621              	.LBE73:
 117:granularplayermod.cpp ****     float width_in_samples = MsToSamps(width_, sample_rate_);
ARM GAS  /tmp/ccvgZOuh.s 			page 16


 622              		.loc 1 117 11 view .LVU202
 623 004c F6EE006A 		vmov.f32	s13, #5.0e-1
 624              	.LBB74:
 625              	.LBB71:
  90:granularplayermod.cpp **** }
 626              		.loc 1 90 28 view .LVU203
 627 0050 9FED097A 		vldr.32	s14, .L40
  90:granularplayermod.cpp **** }
 628              		.loc 1 90 26 view .LVU204
 629 0054 93ED000A 		vldr.32	s0, [r3]
 630 0058 20EE060A 		vmul.f32	s0, s0, s12
 631              	.LBE71:
 632              	.LBE74:
 117:granularplayermod.cpp ****     float width_in_samples = MsToSamps(width_, sample_rate_);
 633              		.loc 1 117 11 view .LVU205
 634 005c 77EEE67A 		vsub.f32	s15, s15, s13
 635              	.LVL40:
 636              	.LBB75:
 637              	.LBB72:
  90:granularplayermod.cpp **** }
 638              		.loc 1 90 28 view .LVU206
 639 0060 20EE070A 		vmul.f32	s0, s0, s14
 640              	.LBE72:
 641              	.LBE75:
 124:granularplayermod.cpp **** }
 642              		.loc 1 124 1 view .LVU207
 643 0064 20EE270A 		vmul.f32	s0, s0, s15
 644 0068 02B0     		add	sp, sp, #8
 645              		.cfi_remember_state
 646              		.cfi_def_cfa_offset 8
 647              		@ sp needed
 648 006a 10BD     		pop	{r4, pc}
 649              	.LVL41:
 650              	.L37:
 651              		.cfi_restore_state
 113:granularplayermod.cpp ****     }
 652              		.loc 1 113 9 is_stmt 1 view .LVU208
 113:granularplayermod.cpp ****     }
 653              		.loc 1 113 21 is_stmt 0 view .LVU209
 654 006c 03F69C02 		addw	r2, r3, #2204
 655 0070 82ED006A 		vstr.32	s12, [r2]
 656 0074 E6E7     		b	.L38
 657              	.L41:
 658 0076 00BF     		.align	2
 659              	.L40:
 660 0078 6F12833A 		.word	981668463
 661              		.cfi_endproc
 662              	.LFE4888:
 664              		.section	.text._ZN17GranularPlayerMod15setEnvelopeModeEi,"ax",%progbits
 665              		.align	1
 666              		.p2align 2,,3
 667              		.global	_ZN17GranularPlayerMod15setEnvelopeModeEi
 668              		.syntax unified
 669              		.thumb
 670              		.thumb_func
 672              	_ZN17GranularPlayerMod15setEnvelopeModeEi:
 673              	.LVL42:
ARM GAS  /tmp/ccvgZOuh.s 			page 17


 674              	.LFB4889:
 125:granularplayermod.cpp **** 
 126:granularplayermod.cpp **** /* Selects grain envelope mode */
 127:granularplayermod.cpp **** void GranularPlayerMod::setEnvelopeMode(int env_mode)
 128:granularplayermod.cpp **** {
 675              		.loc 1 128 1 is_stmt 1 view -0
 676              		.cfi_startproc
 677              		@ args = 0, pretend = 0, frame = 0
 678              		@ frame_needed = 0, uses_anonymous_args = 0
 679              		@ link register save eliminated.
 129:granularplayermod.cpp ****     env_mode_ = env_mode;
 680              		.loc 1 129 5 view .LVU211
 681              		.loc 1 129 15 is_stmt 0 view .LVU212
 682 0000 00F58050 		add	r0, r0, #4096
 683              	.LVL43:
 684              		.loc 1 129 15 view .LVU213
 685 0004 C0F89418 		str	r1, [r0, #2196]
 130:granularplayermod.cpp **** }
 686              		.loc 1 130 1 view .LVU214
 687 0008 7047     		bx	lr
 688              		.cfi_endproc
 689              	.LFE4889:
 691 000a 00BF     		.section	.text._ZN17GranularPlayerMod15setStereoSpreadEf,"ax",%progbits
 692              		.align	1
 693              		.p2align 2,,3
 694              		.global	_ZN17GranularPlayerMod15setStereoSpreadEf
 695              		.syntax unified
 696              		.thumb
 697              		.thumb_func
 699              	_ZN17GranularPlayerMod15setStereoSpreadEf:
 700              	.LVL44:
 701              	.LFB4890:
 131:granularplayermod.cpp **** 
 132:granularplayermod.cpp **** 
 133:granularplayermod.cpp **** void GranularPlayerMod::setStereoSpread(float spread) { spread_ = spread; }
 702              		.loc 1 133 55 is_stmt 1 view -0
 703              		.cfi_startproc
 704              		@ args = 0, pretend = 0, frame = 0
 705              		@ frame_needed = 0, uses_anonymous_args = 0
 706              		@ link register save eliminated.
 707              		.loc 1 133 57 view .LVU216
 708              		.loc 1 133 65 is_stmt 0 view .LVU217
 709 0000 41F6A803 		movw	r3, #6312
 710 0004 C318     		adds	r3, r0, r3
 711 0006 83ED000A 		vstr.32	s0, [r3]
 712              		.loc 1 133 75 view .LVU218
 713 000a 7047     		bx	lr
 714              		.cfi_endproc
 715              	.LFE4890:
 717              		.section	.text._ZN17GranularPlayerMod13setSampleSizeEf,"ax",%progbits
 718              		.align	1
 719              		.p2align 2,,3
 720              		.global	_ZN17GranularPlayerMod13setSampleSizeEf
 721              		.syntax unified
 722              		.thumb
 723              		.thumb_func
 725              	_ZN17GranularPlayerMod13setSampleSizeEf:
ARM GAS  /tmp/ccvgZOuh.s 			page 18


 726              	.LVL45:
 727              	.LFB4891:
 134:granularplayermod.cpp **** 
 135:granularplayermod.cpp **** 
 136:granularplayermod.cpp **** void GranularPlayerMod::setSampleSize(float sample_size)
 137:granularplayermod.cpp **** { 
 728              		.loc 1 137 1 is_stmt 1 view -0
 729              		.cfi_startproc
 730              		@ args = 0, pretend = 0, frame = 0
 731              		@ frame_needed = 0, uses_anonymous_args = 0
 732              		@ link register save eliminated.
 138:granularplayermod.cpp ****     variable_size_ = sample_size; 
 733              		.loc 1 138 5 view .LVU220
 139:granularplayermod.cpp ****     sample_frequency_ = sample_rate_ / variable_size_;
 734              		.loc 1 139 38 is_stmt 0 view .LVU221
 735 0000 90ED017A 		vldr.32	s14, [r0, #4]
 138:granularplayermod.cpp ****     variable_size_ = sample_size; 
 736              		.loc 1 138 20 view .LVU222
 737 0004 41F6AC03 		movw	r3, #6316
 738              		.loc 1 139 38 view .LVU223
 739 0008 C7EE007A 		vdiv.f32	s15, s14, s0
 138:granularplayermod.cpp ****     variable_size_ = sample_size; 
 740              		.loc 1 138 20 view .LVU224
 741 000c C318     		adds	r3, r0, r3
 742 000e 83ED000A 		vstr.32	s0, [r3]
 743              		.loc 1 139 5 is_stmt 1 view .LVU225
 744              		.loc 1 139 23 is_stmt 0 view .LVU226
 745 0012 C0ED067A 		vstr.32	s15, [r0, #24]
 140:granularplayermod.cpp **** }
 746              		.loc 1 140 1 view .LVU227
 747 0016 7047     		bx	lr
 748              		.cfi_endproc
 749              	.LFE4891:
 751              		.section	.text._ZN17GranularPlayerMod10getLeftOutEv,"ax",%progbits
 752              		.align	1
 753              		.p2align 2,,3
 754              		.global	_ZN17GranularPlayerMod10getLeftOutEv
 755              		.syntax unified
 756              		.thumb
 757              		.thumb_func
 759              	_ZN17GranularPlayerMod10getLeftOutEv:
 760              	.LVL46:
 761              	.LFB4892:
 141:granularplayermod.cpp **** 
 142:granularplayermod.cpp **** 
 143:granularplayermod.cpp **** float GranularPlayerMod::getLeftOut() { return outl_; }
 762              		.loc 1 143 39 is_stmt 1 view -0
 763              		.cfi_startproc
 764              		@ args = 0, pretend = 0, frame = 0
 765              		@ frame_needed = 0, uses_anonymous_args = 0
 766              		@ link register save eliminated.
 767              		.loc 1 143 41 view .LVU229
 768              		.loc 1 143 48 is_stmt 0 view .LVU230
 769 0000 00F5C550 		add	r0, r0, #6304
 770              	.LVL47:
 771              		.loc 1 143 55 view .LVU231
 772 0004 90ED000A 		vldr.32	s0, [r0]
ARM GAS  /tmp/ccvgZOuh.s 			page 19


 773 0008 7047     		bx	lr
 774              		.cfi_endproc
 775              	.LFE4892:
 777 000a 00BF     		.section	.text._ZN17GranularPlayerMod11getRightOutEv,"ax",%progbits
 778              		.align	1
 779              		.p2align 2,,3
 780              		.global	_ZN17GranularPlayerMod11getRightOutEv
 781              		.syntax unified
 782              		.thumb
 783              		.thumb_func
 785              	_ZN17GranularPlayerMod11getRightOutEv:
 786              	.LVL48:
 787              	.LFB4893:
 144:granularplayermod.cpp **** 
 145:granularplayermod.cpp **** float GranularPlayerMod::getRightOut() { return outr_; }
 788              		.loc 1 145 40 is_stmt 1 view -0
 789              		.cfi_startproc
 790              		@ args = 0, pretend = 0, frame = 0
 791              		@ frame_needed = 0, uses_anonymous_args = 0
 792              		@ link register save eliminated.
 793              		.loc 1 145 42 view .LVU233
 794              		.loc 1 145 49 is_stmt 0 view .LVU234
 795 0000 41F6A403 		movw	r3, #6308
 796 0004 C318     		adds	r3, r0, r3
 797              		.loc 1 145 56 view .LVU235
 798 0006 93ED000A 		vldr.32	s0, [r3]
 799 000a 7047     		bx	lr
 800              		.cfi_endproc
 801              	.LFE4893:
 803              		.section	.text._ZN17GranularPlayerMod7ProcessEffff,"ax",%progbits
 804              		.align	1
 805              		.p2align 2,,3
 806              		.global	_ZN17GranularPlayerMod7ProcessEffff
 807              		.syntax unified
 808              		.thumb
 809              		.thumb_func
 811              	_ZN17GranularPlayerMod7ProcessEffff:
 812              	.LVL49:
 813              	.LFB4894:
 146:granularplayermod.cpp **** 
 147:granularplayermod.cpp **** void GranularPlayerMod::Process(float speed,
 148:granularplayermod.cpp ****                               float transposition,
 149:granularplayermod.cpp ****                               float grain_size,
 150:granularplayermod.cpp ****                               float width)
 151:granularplayermod.cpp **** {
 814              		.loc 1 151 1 is_stmt 1 view -0
 815              		.cfi_startproc
 816              		@ args = 0, pretend = 0, frame = 8
 817              		@ frame_needed = 0, uses_anonymous_args = 0
 152:granularplayermod.cpp ****     grain_size_    = grain_size;
 818              		.loc 1 152 5 view .LVU237
 151:granularplayermod.cpp ****     grain_size_    = grain_size;
 819              		.loc 1 151 1 is_stmt 0 view .LVU238
 820 0000 2DE9F043 		push	{r4, r5, r6, r7, r8, r9, lr}
 821              		.cfi_def_cfa_offset 28
 822              		.cfi_offset 4, -28
 823              		.cfi_offset 5, -24
ARM GAS  /tmp/ccvgZOuh.s 			page 20


 824              		.cfi_offset 6, -20
 825              		.cfi_offset 7, -16
 826              		.cfi_offset 8, -12
 827              		.cfi_offset 9, -8
 828              		.cfi_offset 14, -4
 829 0004 2DED048B 		vpush.64	{d8, d9}
 830              		.cfi_def_cfa_offset 44
 831              		.cfi_offset 80, -44
 832              		.cfi_offset 81, -40
 833              		.cfi_offset 82, -36
 834              		.cfi_offset 83, -32
 835 0008 B0EE409A 		vmov.f32	s18, s0
 153:granularplayermod.cpp ****     speed_         = speed * sample_frequency_;
 836              		.loc 1 153 28 view .LVU239
 837 000c 90ED068A 		vldr.32	s16, [r0, #24]
 838              	.LBB118:
 839              	.LBB119:
  83:granularplayermod.cpp **** }
 840              		.loc 1 83 16 view .LVU240
 841 0010 DFEDE77A 		vldr.32	s15, .L100+16
 842              	.LBE119:
 843              	.LBE118:
 151:granularplayermod.cpp ****     grain_size_    = grain_size;
 844              		.loc 1 151 1 view .LVU241
 845 0014 83B0     		sub	sp, sp, #12
 846              		.cfi_def_cfa_offset 56
 847              	.LBB124:
 848              	.LBB120:
  83:granularplayermod.cpp **** }
 849              		.loc 1 83 16 view .LVU242
 850 0016 B0EE000A 		vmov.f32	s0, #2.0e+0
 851              	.LVL50:
  83:granularplayermod.cpp **** }
 852              		.loc 1 83 16 view .LVU243
 853              	.LBE120:
 854              	.LBE124:
 152:granularplayermod.cpp ****     speed_         = speed * sample_frequency_;
 855              		.loc 1 152 20 view .LVU244
 856 001a 80ED031A 		vstr.32	s2, [r0, #12]
 857              		.loc 1 153 28 view .LVU245
 858 001e 29EE088A 		vmul.f32	s16, s18, s16
 151:granularplayermod.cpp ****     grain_size_    = grain_size;
 859              		.loc 1 151 1 view .LVU246
 860 0022 0446     		mov	r4, r0
 861              	.LBB125:
 862              	.LBB121:
  83:granularplayermod.cpp **** }
 863              		.loc 1 83 16 view .LVU247
 864 0024 60EEA70A 		vmul.f32	s1, s1, s15
 865              	.LVL51:
  83:granularplayermod.cpp **** }
 866              		.loc 1 83 16 view .LVU248
 867              	.LBE121:
 868              	.LBE125:
 152:granularplayermod.cpp ****     speed_         = speed * sample_frequency_;
 869              		.loc 1 152 20 view .LVU249
 870 0028 8DED011A 		vstr.32	s2, [sp, #4]	@ int
ARM GAS  /tmp/ccvgZOuh.s 			page 21


 871              		.loc 1 153 5 is_stmt 1 view .LVU250
 151:granularplayermod.cpp ****     grain_size_    = grain_size;
 872              		.loc 1 151 1 is_stmt 0 view .LVU251
 873 002c CDED001A 		vstr.32	s3, [sp]	@ int
 154:granularplayermod.cpp ****     transposition_ = (CentsToRatio(transposition) - speed)
 155:granularplayermod.cpp ****                      * (grain_size >= 1 ? 1000 / grain_size_ : 1);
 874              		.loc 1 155 41 view .LVU252
 875 0030 F7EE008A 		vmov.f32	s17, #1.0e+0
 153:granularplayermod.cpp ****     transposition_ = (CentsToRatio(transposition) - speed)
 876              		.loc 1 153 20 view .LVU253
 877 0034 80ED048A 		vstr.32	s16, [r0, #16]
 154:granularplayermod.cpp ****     transposition_ = (CentsToRatio(transposition) - speed)
 878              		.loc 1 154 5 is_stmt 1 view .LVU254
 879              	.LVL52:
 880              	.LBB126:
 881              	.LBI118:
  80:granularplayermod.cpp **** {
 882              		.loc 1 80 7 view .LVU255
 883              	.LBB122:
  83:granularplayermod.cpp **** }
 884              		.loc 1 83 5 view .LVU256
 885              	.LBE122:
 886              	.LBE126:
 156:granularplayermod.cpp ****     width_ = width;
 887              		.loc 1 156 12 is_stmt 0 view .LVU257
 888 0038 04F58055 		add	r5, r4, #4096
 889              	.LBB127:
 890              	.LBB123:
  83:granularplayermod.cpp **** }
 891              		.loc 1 83 16 view .LVU258
 892 003c FFF7FEFF 		bl	powf
 893              	.LVL53:
  83:granularplayermod.cpp **** }
 894              		.loc 1 83 16 view .LVU259
 895              	.LBE123:
 896              	.LBE127:
 155:granularplayermod.cpp ****     width_ = width;
 897              		.loc 1 155 22 discriminator 4 view .LVU260
 898 0040 9DED011A 		vldr.32	s2, [sp, #4]	@ int
 899 0044 DFEDDB6A 		vldr.32	s13, .L100+20
 154:granularplayermod.cpp ****                      * (grain_size >= 1 ? 1000 / grain_size_ : 1);
 900              		.loc 1 154 51 discriminator 1 view .LVU261
 901 0048 70EE497A 		vsub.f32	s15, s0, s18
 155:granularplayermod.cpp ****     width_ = width;
 902              		.loc 1 155 22 discriminator 4 view .LVU262
 903 004c B4EEE81A 		vcmpe.f32	s2, s17
 157:granularplayermod.cpp **** 
 158:granularplayermod.cpp ****     phs_.SetFreq(fabs(speed_));
 904              		.loc 1 158 17 view .LVU263
 905 0050 41F63C09 		movw	r9, #6204
 155:granularplayermod.cpp ****     width_ = width;
 906              		.loc 1 155 22 discriminator 4 view .LVU264
 907 0054 86EE817A 		vdiv.f32	s14, s13, s2
 156:granularplayermod.cpp **** 
 908              		.loc 1 156 12 view .LVU265
 909 0058 05F67C03 		addw	r3, r5, #2172
 910 005c DDED001A 		vldr.32	s3, [sp]	@ int
ARM GAS  /tmp/ccvgZOuh.s 			page 22


 911              		.loc 1 158 17 view .LVU266
 912 0060 A144     		add	r9, r4, r9
 159:granularplayermod.cpp ****     phs2_.SetFreq(fabs(speed_));
 913              		.loc 1 159 18 view .LVU267
 914 0062 41F65C08 		movw	r8, #6236
 160:granularplayermod.cpp **** 
 161:granularplayermod.cpp ****     phsImp_.SetFreq(fabs(transposition_ / 2)); // Now dividing by 2 because we process the phasor t
 915              		.loc 1 161 20 view .LVU268
 916 0066 41F64C07 		movw	r7, #6220
 158:granularplayermod.cpp ****     phs2_.SetFreq(fabs(speed_));
 917              		.loc 1 158 17 discriminator 1 view .LVU269
 918 006a 4846     		mov	r0, r9
 162:granularplayermod.cpp ****     phsImp2_.SetFreq(fabs(transposition_ / 2));
 919              		.loc 1 162 21 view .LVU270
 920 006c 41F66C06 		movw	r6, #6252
 159:granularplayermod.cpp **** 
 921              		.loc 1 159 18 view .LVU271
 922 0070 A044     		add	r8, r4, r8
 161:granularplayermod.cpp ****     phsImp2_.SetFreq(fabs(transposition_ / 2));
 923              		.loc 1 161 20 view .LVU272
 924 0072 2744     		add	r7, r7, r4
 155:granularplayermod.cpp ****     width_ = width;
 925              		.loc 1 155 22 discriminator 4 view .LVU273
 926 0074 F1EE10FA 		vmrs	APSR_nzcv, FPSCR
 927              		.loc 1 162 21 view .LVU274
 928 0078 2644     		add	r6, r4, r6
 158:granularplayermod.cpp ****     phs2_.SetFreq(fabs(speed_));
 929              		.loc 1 158 17 discriminator 1 view .LVU275
 930 007a B0EEC80A 		vabs.f32	s0, s16
 161:granularplayermod.cpp ****     phsImp2_.SetFreq(fabs(transposition_ / 2));
 931              		.loc 1 161 20 view .LVU276
 932 007e B6EE008A 		vmov.f32	s16, #5.0e-1
 155:granularplayermod.cpp ****     width_ = width;
 933              		.loc 1 155 22 discriminator 4 view .LVU277
 934 0082 27EE877A 		vmul.f32	s14, s15, s14
 935 0086 67FE277A 		vselge.f32	s15, s14, s15
 154:granularplayermod.cpp ****                      * (grain_size >= 1 ? 1000 / grain_size_ : 1);
 936              		.loc 1 154 20 view .LVU278
 937 008a C4ED057A 		vstr.32	s15, [r4, #20]
 156:granularplayermod.cpp **** 
 938              		.loc 1 156 5 is_stmt 1 view .LVU279
 156:granularplayermod.cpp **** 
 939              		.loc 1 156 12 is_stmt 0 view .LVU280
 940 008e C3ED001A 		vstr.32	s3, [r3]
 158:granularplayermod.cpp ****     phs2_.SetFreq(fabs(speed_));
 941              		.loc 1 158 5 is_stmt 1 view .LVU281
 942              	.LVL54:
 943              	.LBB128:
 944              	.LBI128:
 945              		.file 3 "/usr/arm-none-eabi/include/c++/15.2.0/cmath"
   1:/usr/arm-none-eabi/include/c++/15.2.0/cmath **** // -*- C++ -*- C forwarding header.
   2:/usr/arm-none-eabi/include/c++/15.2.0/cmath **** 
   3:/usr/arm-none-eabi/include/c++/15.2.0/cmath **** // Copyright (C) 1997-2025 Free Software Foundation, Inc.
   4:/usr/arm-none-eabi/include/c++/15.2.0/cmath **** //
   5:/usr/arm-none-eabi/include/c++/15.2.0/cmath **** // This file is part of the GNU ISO C++ Library.  This library is free
   6:/usr/arm-none-eabi/include/c++/15.2.0/cmath **** // software; you can redistribute it and/or modify it under the
   7:/usr/arm-none-eabi/include/c++/15.2.0/cmath **** // terms of the GNU General Public License as published by the
ARM GAS  /tmp/ccvgZOuh.s 			page 23


   8:/usr/arm-none-eabi/include/c++/15.2.0/cmath **** // Free Software Foundation; either version 3, or (at your option)
   9:/usr/arm-none-eabi/include/c++/15.2.0/cmath **** // any later version.
  10:/usr/arm-none-eabi/include/c++/15.2.0/cmath **** 
  11:/usr/arm-none-eabi/include/c++/15.2.0/cmath **** // This library is distributed in the hope that it will be useful,
  12:/usr/arm-none-eabi/include/c++/15.2.0/cmath **** // but WITHOUT ANY WARRANTY; without even the implied warranty of
  13:/usr/arm-none-eabi/include/c++/15.2.0/cmath **** // MERCHANTABILITY or FITNESS FOR A PARTICULAR PURPOSE.  See the
  14:/usr/arm-none-eabi/include/c++/15.2.0/cmath **** // GNU General Public License for more details.
  15:/usr/arm-none-eabi/include/c++/15.2.0/cmath **** 
  16:/usr/arm-none-eabi/include/c++/15.2.0/cmath **** // Under Section 7 of GPL version 3, you are granted additional
  17:/usr/arm-none-eabi/include/c++/15.2.0/cmath **** // permissions described in the GCC Runtime Library Exception, version
  18:/usr/arm-none-eabi/include/c++/15.2.0/cmath **** // 3.1, as published by the Free Software Foundation.
  19:/usr/arm-none-eabi/include/c++/15.2.0/cmath **** 
  20:/usr/arm-none-eabi/include/c++/15.2.0/cmath **** // You should have received a copy of the GNU General Public License and
  21:/usr/arm-none-eabi/include/c++/15.2.0/cmath **** // a copy of the GCC Runtime Library Exception along with this program;
  22:/usr/arm-none-eabi/include/c++/15.2.0/cmath **** // see the files COPYING3 and COPYING.RUNTIME respectively.  If not, see
  23:/usr/arm-none-eabi/include/c++/15.2.0/cmath **** // <http://www.gnu.org/licenses/>.
  24:/usr/arm-none-eabi/include/c++/15.2.0/cmath **** 
  25:/usr/arm-none-eabi/include/c++/15.2.0/cmath **** /** @file include/cmath
  26:/usr/arm-none-eabi/include/c++/15.2.0/cmath ****  *  This is a Standard C++ Library file.  You should @c \#include this file
  27:/usr/arm-none-eabi/include/c++/15.2.0/cmath ****  *  in your programs, rather than any of the @a *.h implementation files.
  28:/usr/arm-none-eabi/include/c++/15.2.0/cmath ****  *
  29:/usr/arm-none-eabi/include/c++/15.2.0/cmath ****  *  This is the C++ version of the Standard C Library header @c math.h,
  30:/usr/arm-none-eabi/include/c++/15.2.0/cmath ****  *  and its contents are (mostly) the same as that header, but are all
  31:/usr/arm-none-eabi/include/c++/15.2.0/cmath ****  *  contained in the namespace @c std (except for names which are defined
  32:/usr/arm-none-eabi/include/c++/15.2.0/cmath ****  *  as macros in C).
  33:/usr/arm-none-eabi/include/c++/15.2.0/cmath ****  */
  34:/usr/arm-none-eabi/include/c++/15.2.0/cmath **** 
  35:/usr/arm-none-eabi/include/c++/15.2.0/cmath **** //
  36:/usr/arm-none-eabi/include/c++/15.2.0/cmath **** // ISO C++ 14882: 26.5  C library
  37:/usr/arm-none-eabi/include/c++/15.2.0/cmath **** //
  38:/usr/arm-none-eabi/include/c++/15.2.0/cmath **** 
  39:/usr/arm-none-eabi/include/c++/15.2.0/cmath **** #ifndef _GLIBCXX_CMATH
  40:/usr/arm-none-eabi/include/c++/15.2.0/cmath **** #define _GLIBCXX_CMATH 1
  41:/usr/arm-none-eabi/include/c++/15.2.0/cmath **** 
  42:/usr/arm-none-eabi/include/c++/15.2.0/cmath **** #ifdef _GLIBCXX_SYSHDR
  43:/usr/arm-none-eabi/include/c++/15.2.0/cmath **** #pragma GCC system_header
  44:/usr/arm-none-eabi/include/c++/15.2.0/cmath **** #endif
  45:/usr/arm-none-eabi/include/c++/15.2.0/cmath **** 
  46:/usr/arm-none-eabi/include/c++/15.2.0/cmath **** #include <bits/requires_hosted.h>
  47:/usr/arm-none-eabi/include/c++/15.2.0/cmath **** 
  48:/usr/arm-none-eabi/include/c++/15.2.0/cmath **** #include <bits/c++config.h>
  49:/usr/arm-none-eabi/include/c++/15.2.0/cmath **** #include <bits/cpp_type_traits.h>
  50:/usr/arm-none-eabi/include/c++/15.2.0/cmath **** #include <ext/type_traits.h>
  51:/usr/arm-none-eabi/include/c++/15.2.0/cmath **** 
  52:/usr/arm-none-eabi/include/c++/15.2.0/cmath **** #pragma GCC diagnostic push
  53:/usr/arm-none-eabi/include/c++/15.2.0/cmath **** #pragma GCC diagnostic ignored "-Wpedantic" // include_next
  54:/usr/arm-none-eabi/include/c++/15.2.0/cmath **** #define _GLIBCXX_INCLUDE_NEXT_C_HEADERS
  55:/usr/arm-none-eabi/include/c++/15.2.0/cmath **** #include_next <math.h>
  56:/usr/arm-none-eabi/include/c++/15.2.0/cmath **** #undef _GLIBCXX_INCLUDE_NEXT_C_HEADERS
  57:/usr/arm-none-eabi/include/c++/15.2.0/cmath **** #pragma GCC diagnostic pop
  58:/usr/arm-none-eabi/include/c++/15.2.0/cmath **** 
  59:/usr/arm-none-eabi/include/c++/15.2.0/cmath **** #include <bits/std_abs.h>
  60:/usr/arm-none-eabi/include/c++/15.2.0/cmath **** 
  61:/usr/arm-none-eabi/include/c++/15.2.0/cmath **** #define __glibcxx_want_hypot
  62:/usr/arm-none-eabi/include/c++/15.2.0/cmath **** #define __glibcxx_want_interpolate
  63:/usr/arm-none-eabi/include/c++/15.2.0/cmath **** #include <bits/version.h>
  64:/usr/arm-none-eabi/include/c++/15.2.0/cmath **** 
ARM GAS  /tmp/ccvgZOuh.s 			page 24


  65:/usr/arm-none-eabi/include/c++/15.2.0/cmath **** // Get rid of those macros defined in <math.h> in lieu of real functions.
  66:/usr/arm-none-eabi/include/c++/15.2.0/cmath **** #undef div
  67:/usr/arm-none-eabi/include/c++/15.2.0/cmath **** #undef acos
  68:/usr/arm-none-eabi/include/c++/15.2.0/cmath **** #undef asin
  69:/usr/arm-none-eabi/include/c++/15.2.0/cmath **** #undef atan
  70:/usr/arm-none-eabi/include/c++/15.2.0/cmath **** #undef atan2
  71:/usr/arm-none-eabi/include/c++/15.2.0/cmath **** #undef ceil
  72:/usr/arm-none-eabi/include/c++/15.2.0/cmath **** #undef cos
  73:/usr/arm-none-eabi/include/c++/15.2.0/cmath **** #undef cosh
  74:/usr/arm-none-eabi/include/c++/15.2.0/cmath **** #undef exp
  75:/usr/arm-none-eabi/include/c++/15.2.0/cmath **** #undef fabs
  76:/usr/arm-none-eabi/include/c++/15.2.0/cmath **** #undef floor
  77:/usr/arm-none-eabi/include/c++/15.2.0/cmath **** #undef fmod
  78:/usr/arm-none-eabi/include/c++/15.2.0/cmath **** #undef frexp
  79:/usr/arm-none-eabi/include/c++/15.2.0/cmath **** #undef ldexp
  80:/usr/arm-none-eabi/include/c++/15.2.0/cmath **** #undef log
  81:/usr/arm-none-eabi/include/c++/15.2.0/cmath **** #undef log10
  82:/usr/arm-none-eabi/include/c++/15.2.0/cmath **** #undef modf
  83:/usr/arm-none-eabi/include/c++/15.2.0/cmath **** #undef pow
  84:/usr/arm-none-eabi/include/c++/15.2.0/cmath **** #undef sin
  85:/usr/arm-none-eabi/include/c++/15.2.0/cmath **** #undef sinh
  86:/usr/arm-none-eabi/include/c++/15.2.0/cmath **** #undef sqrt
  87:/usr/arm-none-eabi/include/c++/15.2.0/cmath **** #undef tan
  88:/usr/arm-none-eabi/include/c++/15.2.0/cmath **** #undef tanh
  89:/usr/arm-none-eabi/include/c++/15.2.0/cmath **** 
  90:/usr/arm-none-eabi/include/c++/15.2.0/cmath **** extern "C++"
  91:/usr/arm-none-eabi/include/c++/15.2.0/cmath **** {
  92:/usr/arm-none-eabi/include/c++/15.2.0/cmath **** namespace std _GLIBCXX_VISIBILITY(default)
  93:/usr/arm-none-eabi/include/c++/15.2.0/cmath **** {
  94:/usr/arm-none-eabi/include/c++/15.2.0/cmath **** _GLIBCXX_BEGIN_NAMESPACE_VERSION
  95:/usr/arm-none-eabi/include/c++/15.2.0/cmath **** 
  96:/usr/arm-none-eabi/include/c++/15.2.0/cmath ****   using ::acos;
  97:/usr/arm-none-eabi/include/c++/15.2.0/cmath **** 
  98:/usr/arm-none-eabi/include/c++/15.2.0/cmath **** #ifndef __CORRECT_ISO_CPP_MATH_H_PROTO
  99:/usr/arm-none-eabi/include/c++/15.2.0/cmath ****   inline _GLIBCXX_CONSTEXPR float
 100:/usr/arm-none-eabi/include/c++/15.2.0/cmath ****   acos(float __x)
 101:/usr/arm-none-eabi/include/c++/15.2.0/cmath ****   { return __builtin_acosf(__x); }
 102:/usr/arm-none-eabi/include/c++/15.2.0/cmath **** 
 103:/usr/arm-none-eabi/include/c++/15.2.0/cmath ****   inline _GLIBCXX_CONSTEXPR long double
 104:/usr/arm-none-eabi/include/c++/15.2.0/cmath ****   acos(long double __x)
 105:/usr/arm-none-eabi/include/c++/15.2.0/cmath ****   { return __builtin_acosl(__x); }
 106:/usr/arm-none-eabi/include/c++/15.2.0/cmath **** #endif
 107:/usr/arm-none-eabi/include/c++/15.2.0/cmath **** 
 108:/usr/arm-none-eabi/include/c++/15.2.0/cmath ****   template<typename _Tp>
 109:/usr/arm-none-eabi/include/c++/15.2.0/cmath ****     inline _GLIBCXX_CONSTEXPR
 110:/usr/arm-none-eabi/include/c++/15.2.0/cmath ****     typename __gnu_cxx::__enable_if<__is_integer<_Tp>::__value, 
 111:/usr/arm-none-eabi/include/c++/15.2.0/cmath ****                                     double>::__type
 112:/usr/arm-none-eabi/include/c++/15.2.0/cmath ****     acos(_Tp __x)
 113:/usr/arm-none-eabi/include/c++/15.2.0/cmath ****     { return __builtin_acos(__x); }
 114:/usr/arm-none-eabi/include/c++/15.2.0/cmath **** 
 115:/usr/arm-none-eabi/include/c++/15.2.0/cmath ****   using ::asin;
 116:/usr/arm-none-eabi/include/c++/15.2.0/cmath **** 
 117:/usr/arm-none-eabi/include/c++/15.2.0/cmath **** #ifndef __CORRECT_ISO_CPP_MATH_H_PROTO
 118:/usr/arm-none-eabi/include/c++/15.2.0/cmath ****   inline _GLIBCXX_CONSTEXPR float
 119:/usr/arm-none-eabi/include/c++/15.2.0/cmath ****   asin(float __x)
 120:/usr/arm-none-eabi/include/c++/15.2.0/cmath ****   { return __builtin_asinf(__x); }
 121:/usr/arm-none-eabi/include/c++/15.2.0/cmath **** 
ARM GAS  /tmp/ccvgZOuh.s 			page 25


 122:/usr/arm-none-eabi/include/c++/15.2.0/cmath ****   inline _GLIBCXX_CONSTEXPR long double
 123:/usr/arm-none-eabi/include/c++/15.2.0/cmath ****   asin(long double __x)
 124:/usr/arm-none-eabi/include/c++/15.2.0/cmath ****   { return __builtin_asinl(__x); }
 125:/usr/arm-none-eabi/include/c++/15.2.0/cmath **** #endif
 126:/usr/arm-none-eabi/include/c++/15.2.0/cmath **** 
 127:/usr/arm-none-eabi/include/c++/15.2.0/cmath ****   template<typename _Tp>
 128:/usr/arm-none-eabi/include/c++/15.2.0/cmath ****     inline _GLIBCXX_CONSTEXPR
 129:/usr/arm-none-eabi/include/c++/15.2.0/cmath ****     typename __gnu_cxx::__enable_if<__is_integer<_Tp>::__value,
 130:/usr/arm-none-eabi/include/c++/15.2.0/cmath ****                                     double>::__type
 131:/usr/arm-none-eabi/include/c++/15.2.0/cmath ****     asin(_Tp __x)
 132:/usr/arm-none-eabi/include/c++/15.2.0/cmath ****     { return __builtin_asin(__x); }
 133:/usr/arm-none-eabi/include/c++/15.2.0/cmath **** 
 134:/usr/arm-none-eabi/include/c++/15.2.0/cmath ****   using ::atan;
 135:/usr/arm-none-eabi/include/c++/15.2.0/cmath **** 
 136:/usr/arm-none-eabi/include/c++/15.2.0/cmath **** #ifndef __CORRECT_ISO_CPP_MATH_H_PROTO
 137:/usr/arm-none-eabi/include/c++/15.2.0/cmath ****   inline _GLIBCXX_CONSTEXPR float
 138:/usr/arm-none-eabi/include/c++/15.2.0/cmath ****   atan(float __x)
 139:/usr/arm-none-eabi/include/c++/15.2.0/cmath ****   { return __builtin_atanf(__x); }
 140:/usr/arm-none-eabi/include/c++/15.2.0/cmath **** 
 141:/usr/arm-none-eabi/include/c++/15.2.0/cmath ****   inline _GLIBCXX_CONSTEXPR long double
 142:/usr/arm-none-eabi/include/c++/15.2.0/cmath ****   atan(long double __x)
 143:/usr/arm-none-eabi/include/c++/15.2.0/cmath ****   { return __builtin_atanl(__x); }
 144:/usr/arm-none-eabi/include/c++/15.2.0/cmath **** #endif
 145:/usr/arm-none-eabi/include/c++/15.2.0/cmath **** 
 146:/usr/arm-none-eabi/include/c++/15.2.0/cmath ****   template<typename _Tp>
 147:/usr/arm-none-eabi/include/c++/15.2.0/cmath ****     inline _GLIBCXX_CONSTEXPR
 148:/usr/arm-none-eabi/include/c++/15.2.0/cmath ****     typename __gnu_cxx::__enable_if<__is_integer<_Tp>::__value,
 149:/usr/arm-none-eabi/include/c++/15.2.0/cmath ****                                     double>::__type
 150:/usr/arm-none-eabi/include/c++/15.2.0/cmath ****     atan(_Tp __x)
 151:/usr/arm-none-eabi/include/c++/15.2.0/cmath ****     { return __builtin_atan(__x); }
 152:/usr/arm-none-eabi/include/c++/15.2.0/cmath **** 
 153:/usr/arm-none-eabi/include/c++/15.2.0/cmath ****   using ::atan2;
 154:/usr/arm-none-eabi/include/c++/15.2.0/cmath **** 
 155:/usr/arm-none-eabi/include/c++/15.2.0/cmath **** #ifndef __CORRECT_ISO_CPP_MATH_H_PROTO
 156:/usr/arm-none-eabi/include/c++/15.2.0/cmath ****   inline _GLIBCXX_CONSTEXPR float
 157:/usr/arm-none-eabi/include/c++/15.2.0/cmath ****   atan2(float __y, float __x)
 158:/usr/arm-none-eabi/include/c++/15.2.0/cmath ****   { return __builtin_atan2f(__y, __x); }
 159:/usr/arm-none-eabi/include/c++/15.2.0/cmath **** 
 160:/usr/arm-none-eabi/include/c++/15.2.0/cmath ****   inline _GLIBCXX_CONSTEXPR long double
 161:/usr/arm-none-eabi/include/c++/15.2.0/cmath ****   atan2(long double __y, long double __x)
 162:/usr/arm-none-eabi/include/c++/15.2.0/cmath ****   { return __builtin_atan2l(__y, __x); }
 163:/usr/arm-none-eabi/include/c++/15.2.0/cmath **** #endif
 164:/usr/arm-none-eabi/include/c++/15.2.0/cmath **** 
 165:/usr/arm-none-eabi/include/c++/15.2.0/cmath ****   using ::ceil;
 166:/usr/arm-none-eabi/include/c++/15.2.0/cmath **** 
 167:/usr/arm-none-eabi/include/c++/15.2.0/cmath **** #ifndef __CORRECT_ISO_CPP_MATH_H_PROTO
 168:/usr/arm-none-eabi/include/c++/15.2.0/cmath ****   inline _GLIBCXX_CONSTEXPR float
 169:/usr/arm-none-eabi/include/c++/15.2.0/cmath ****   ceil(float __x)
 170:/usr/arm-none-eabi/include/c++/15.2.0/cmath ****   { return __builtin_ceilf(__x); }
 171:/usr/arm-none-eabi/include/c++/15.2.0/cmath **** 
 172:/usr/arm-none-eabi/include/c++/15.2.0/cmath ****   inline _GLIBCXX_CONSTEXPR long double
 173:/usr/arm-none-eabi/include/c++/15.2.0/cmath ****   ceil(long double __x)
 174:/usr/arm-none-eabi/include/c++/15.2.0/cmath ****   { return __builtin_ceill(__x); }
 175:/usr/arm-none-eabi/include/c++/15.2.0/cmath **** #endif
 176:/usr/arm-none-eabi/include/c++/15.2.0/cmath **** 
 177:/usr/arm-none-eabi/include/c++/15.2.0/cmath ****   template<typename _Tp>
 178:/usr/arm-none-eabi/include/c++/15.2.0/cmath ****     inline _GLIBCXX_CONSTEXPR
ARM GAS  /tmp/ccvgZOuh.s 			page 26


 179:/usr/arm-none-eabi/include/c++/15.2.0/cmath ****     typename __gnu_cxx::__enable_if<__is_integer<_Tp>::__value, 
 180:/usr/arm-none-eabi/include/c++/15.2.0/cmath ****                                     double>::__type
 181:/usr/arm-none-eabi/include/c++/15.2.0/cmath ****     ceil(_Tp __x)
 182:/usr/arm-none-eabi/include/c++/15.2.0/cmath ****     { return __builtin_ceil(__x); }
 183:/usr/arm-none-eabi/include/c++/15.2.0/cmath **** 
 184:/usr/arm-none-eabi/include/c++/15.2.0/cmath ****   using ::cos;
 185:/usr/arm-none-eabi/include/c++/15.2.0/cmath **** 
 186:/usr/arm-none-eabi/include/c++/15.2.0/cmath **** #ifndef __CORRECT_ISO_CPP_MATH_H_PROTO
 187:/usr/arm-none-eabi/include/c++/15.2.0/cmath ****   inline _GLIBCXX_CONSTEXPR float
 188:/usr/arm-none-eabi/include/c++/15.2.0/cmath ****   cos(float __x)
 189:/usr/arm-none-eabi/include/c++/15.2.0/cmath ****   { return __builtin_cosf(__x); }
 190:/usr/arm-none-eabi/include/c++/15.2.0/cmath **** 
 191:/usr/arm-none-eabi/include/c++/15.2.0/cmath ****   inline _GLIBCXX_CONSTEXPR long double
 192:/usr/arm-none-eabi/include/c++/15.2.0/cmath ****   cos(long double __x)
 193:/usr/arm-none-eabi/include/c++/15.2.0/cmath ****   { return __builtin_cosl(__x); }
 194:/usr/arm-none-eabi/include/c++/15.2.0/cmath **** #endif
 195:/usr/arm-none-eabi/include/c++/15.2.0/cmath **** 
 196:/usr/arm-none-eabi/include/c++/15.2.0/cmath ****   template<typename _Tp>
 197:/usr/arm-none-eabi/include/c++/15.2.0/cmath ****     inline _GLIBCXX_CONSTEXPR
 198:/usr/arm-none-eabi/include/c++/15.2.0/cmath ****     typename __gnu_cxx::__enable_if<__is_integer<_Tp>::__value,
 199:/usr/arm-none-eabi/include/c++/15.2.0/cmath ****                                     double>::__type
 200:/usr/arm-none-eabi/include/c++/15.2.0/cmath ****     cos(_Tp __x)
 201:/usr/arm-none-eabi/include/c++/15.2.0/cmath ****     { return __builtin_cos(__x); }
 202:/usr/arm-none-eabi/include/c++/15.2.0/cmath **** 
 203:/usr/arm-none-eabi/include/c++/15.2.0/cmath ****   using ::cosh;
 204:/usr/arm-none-eabi/include/c++/15.2.0/cmath **** 
 205:/usr/arm-none-eabi/include/c++/15.2.0/cmath **** #ifndef __CORRECT_ISO_CPP_MATH_H_PROTO
 206:/usr/arm-none-eabi/include/c++/15.2.0/cmath ****   inline _GLIBCXX_CONSTEXPR float
 207:/usr/arm-none-eabi/include/c++/15.2.0/cmath ****   cosh(float __x)
 208:/usr/arm-none-eabi/include/c++/15.2.0/cmath ****   { return __builtin_coshf(__x); }
 209:/usr/arm-none-eabi/include/c++/15.2.0/cmath **** 
 210:/usr/arm-none-eabi/include/c++/15.2.0/cmath ****   inline _GLIBCXX_CONSTEXPR long double
 211:/usr/arm-none-eabi/include/c++/15.2.0/cmath ****   cosh(long double __x)
 212:/usr/arm-none-eabi/include/c++/15.2.0/cmath ****   { return __builtin_coshl(__x); }
 213:/usr/arm-none-eabi/include/c++/15.2.0/cmath **** #endif
 214:/usr/arm-none-eabi/include/c++/15.2.0/cmath **** 
 215:/usr/arm-none-eabi/include/c++/15.2.0/cmath ****   template<typename _Tp>
 216:/usr/arm-none-eabi/include/c++/15.2.0/cmath ****     inline _GLIBCXX_CONSTEXPR
 217:/usr/arm-none-eabi/include/c++/15.2.0/cmath ****     typename __gnu_cxx::__enable_if<__is_integer<_Tp>::__value,
 218:/usr/arm-none-eabi/include/c++/15.2.0/cmath ****                                     double>::__type
 219:/usr/arm-none-eabi/include/c++/15.2.0/cmath ****     cosh(_Tp __x)
 220:/usr/arm-none-eabi/include/c++/15.2.0/cmath ****     { return __builtin_cosh(__x); }
 221:/usr/arm-none-eabi/include/c++/15.2.0/cmath **** 
 222:/usr/arm-none-eabi/include/c++/15.2.0/cmath ****   using ::exp;
 223:/usr/arm-none-eabi/include/c++/15.2.0/cmath **** 
 224:/usr/arm-none-eabi/include/c++/15.2.0/cmath **** #ifndef __CORRECT_ISO_CPP_MATH_H_PROTO
 225:/usr/arm-none-eabi/include/c++/15.2.0/cmath ****   inline _GLIBCXX_CONSTEXPR float
 226:/usr/arm-none-eabi/include/c++/15.2.0/cmath ****   exp(float __x)
 227:/usr/arm-none-eabi/include/c++/15.2.0/cmath ****   { return __builtin_expf(__x); }
 228:/usr/arm-none-eabi/include/c++/15.2.0/cmath **** 
 229:/usr/arm-none-eabi/include/c++/15.2.0/cmath ****   inline _GLIBCXX_CONSTEXPR long double
 230:/usr/arm-none-eabi/include/c++/15.2.0/cmath ****   exp(long double __x)
 231:/usr/arm-none-eabi/include/c++/15.2.0/cmath ****   { return __builtin_expl(__x); }
 232:/usr/arm-none-eabi/include/c++/15.2.0/cmath **** #endif
 233:/usr/arm-none-eabi/include/c++/15.2.0/cmath **** 
 234:/usr/arm-none-eabi/include/c++/15.2.0/cmath ****   template<typename _Tp>
 235:/usr/arm-none-eabi/include/c++/15.2.0/cmath ****     inline _GLIBCXX_CONSTEXPR
ARM GAS  /tmp/ccvgZOuh.s 			page 27


 236:/usr/arm-none-eabi/include/c++/15.2.0/cmath ****     typename __gnu_cxx::__enable_if<__is_integer<_Tp>::__value,
 237:/usr/arm-none-eabi/include/c++/15.2.0/cmath ****                                     double>::__type
 238:/usr/arm-none-eabi/include/c++/15.2.0/cmath ****     exp(_Tp __x)
 239:/usr/arm-none-eabi/include/c++/15.2.0/cmath ****     { return __builtin_exp(__x); }
 240:/usr/arm-none-eabi/include/c++/15.2.0/cmath **** 
 241:/usr/arm-none-eabi/include/c++/15.2.0/cmath ****   using ::fabs;
 242:/usr/arm-none-eabi/include/c++/15.2.0/cmath **** 
 243:/usr/arm-none-eabi/include/c++/15.2.0/cmath **** #ifndef __CORRECT_ISO_CPP_MATH_H_PROTO
 244:/usr/arm-none-eabi/include/c++/15.2.0/cmath ****   inline _GLIBCXX_CONSTEXPR float
 245:/usr/arm-none-eabi/include/c++/15.2.0/cmath ****   fabs(float __x)
 946              		.loc 3 245 3 view .LVU282
 947              	.LBB129:
 246:/usr/arm-none-eabi/include/c++/15.2.0/cmath ****   { return __builtin_fabsf(__x); }
 948              		.loc 3 246 5 view .LVU283
 949              		.loc 3 246 5 is_stmt 0 view .LVU284
 950              	.LBE129:
 951              	.LBE128:
 158:granularplayermod.cpp ****     phs2_.SetFreq(fabs(speed_));
 952              		.loc 1 158 17 discriminator 1 view .LVU285
 953 0092 FFF7FEFF 		bl	_ZN7daisysp6Phasor7SetFreqEf
 954              	.LVL55:
 159:granularplayermod.cpp **** 
 955              		.loc 1 159 5 is_stmt 1 view .LVU286
 956              	.LBB130:
 957              	.LBI130:
 245:/usr/arm-none-eabi/include/c++/15.2.0/cmath ****   { return __builtin_fabsf(__x); }
 958              		.loc 3 245 3 view .LVU287
 959              	.LBB131:
 960              		.loc 3 246 5 view .LVU288
 961              		.loc 3 246 31 is_stmt 0 view .LVU289
 962 0096 94ED040A 		vldr.32	s0, [r4, #16]
 963              	.LBE131:
 964              	.LBE130:
 159:granularplayermod.cpp **** 
 965              		.loc 1 159 18 discriminator 1 view .LVU290
 966 009a 4046     		mov	r0, r8
 967 009c B0EEC00A 		vabs.f32	s0, s0
 968 00a0 FFF7FEFF 		bl	_ZN7daisysp6Phasor7SetFreqEf
 969              	.LVL56:
 161:granularplayermod.cpp ****     phsImp2_.SetFreq(fabs(transposition_ / 2));
 970              		.loc 1 161 5 is_stmt 1 view .LVU291
 971              	.LBB132:
 972              	.LBI132:
 245:/usr/arm-none-eabi/include/c++/15.2.0/cmath ****   { return __builtin_fabsf(__x); }
 973              		.loc 3 245 3 view .LVU292
 974              	.LBB133:
 975              		.loc 3 246 5 view .LVU293
 976              		.loc 3 246 5 is_stmt 0 view .LVU294
 977              	.LBE133:
 978              	.LBE132:
 161:granularplayermod.cpp ****     phsImp2_.SetFreq(fabs(transposition_ / 2));
 979              		.loc 1 161 20 view .LVU295
 980 00a4 94ED050A 		vldr.32	s0, [r4, #20]
 161:granularplayermod.cpp ****     phsImp2_.SetFreq(fabs(transposition_ / 2));
 981              		.loc 1 161 20 discriminator 1 view .LVU296
 982 00a8 3846     		mov	r0, r7
 161:granularplayermod.cpp ****     phsImp2_.SetFreq(fabs(transposition_ / 2));
ARM GAS  /tmp/ccvgZOuh.s 			page 28


 983              		.loc 1 161 20 view .LVU297
 984 00aa 20EE080A 		vmul.f32	s0, s0, s16
 161:granularplayermod.cpp ****     phsImp2_.SetFreq(fabs(transposition_ / 2));
 985              		.loc 1 161 20 discriminator 1 view .LVU298
 986 00ae B0EEC00A 		vabs.f32	s0, s0
 987 00b2 FFF7FEFF 		bl	_ZN7daisysp6Phasor7SetFreqEf
 988              	.LVL57:
 989              		.loc 1 162 5 is_stmt 1 view .LVU299
 990              	.LBB134:
 991              	.LBI134:
 245:/usr/arm-none-eabi/include/c++/15.2.0/cmath ****   { return __builtin_fabsf(__x); }
 992              		.loc 3 245 3 view .LVU300
 993              	.LBB135:
 994              		.loc 3 246 5 view .LVU301
 995              		.loc 3 246 5 is_stmt 0 view .LVU302
 996              	.LBE135:
 997              	.LBE134:
 998              		.loc 1 162 21 view .LVU303
 999 00b6 94ED050A 		vldr.32	s0, [r4, #20]
 1000              		.loc 1 162 21 discriminator 1 view .LVU304
 1001 00ba 3046     		mov	r0, r6
 1002              		.loc 1 162 21 view .LVU305
 1003 00bc 20EE080A 		vmul.f32	s0, s0, s16
 1004              		.loc 1 162 21 discriminator 1 view .LVU306
 1005 00c0 B0EEC00A 		vabs.f32	s0, s0
 1006 00c4 FFF7FEFF 		bl	_ZN7daisysp6Phasor7SetFreqEf
 1007              	.LVL58:
 163:granularplayermod.cpp ****     idxSpeed_   = NegativeInvert(&phs_, speed_) * variable_size_;  // Speed phasors control the mov
 1008              		.loc 1 163 5 is_stmt 1 view .LVU307
 1009              	.LBB136:
 1010              	.LBI136:
  93:granularplayermod.cpp **** {
 1011              		.loc 1 93 7 view .LVU308
 1012              	.LBB137:
  96:granularplayermod.cpp **** }
 1013              		.loc 1 96 5 view .LVU309
  96:granularplayermod.cpp **** }
 1014              		.loc 1 96 28 is_stmt 0 view .LVU310
 1015 00c8 D4ED047A 		vldr.32	s15, [r4, #16]
  96:granularplayermod.cpp **** }
 1016              		.loc 1 96 42 discriminator 1 view .LVU311
 1017 00cc 4846     		mov	r0, r9
  96:granularplayermod.cpp **** }
 1018              		.loc 1 96 28 view .LVU312
 1019 00ce F5EEC07A 		vcmpe.f32	s15, #0
 1020 00d2 F1EE10FA 		vmrs	APSR_nzcv, FPSCR
 1021 00d6 40F34D81 		ble	.L89
  96:granularplayermod.cpp **** }
 1022              		.loc 1 96 42 discriminator 1 view .LVU313
 1023 00da FFF7FEFF 		bl	_ZN7daisysp6Phasor7ProcessEv
 1024              	.LVL59:
 1025              	.L52:
  96:granularplayermod.cpp **** }
 1026              		.loc 1 96 42 discriminator 1 view .LVU314
 1027              	.LBE137:
 1028              	.LBE136:
 1029              	.LBB141:
ARM GAS  /tmp/ccvgZOuh.s 			page 29


 1030              	.LBB142:
  96:granularplayermod.cpp **** }
 1031              		.loc 1 96 28 view .LVU315
 1032 00de 94ED047A 		vldr.32	s14, [r4, #16]
 1033              	.LBE142:
 1034              	.LBE141:
 1035              		.loc 1 163 51 discriminator 1 view .LVU316
 1036 00e2 05F6AC03 		addw	r3, r5, #2220
 1037              	.LBB149:
 1038              	.LBB145:
  96:granularplayermod.cpp **** }
 1039              		.loc 1 96 42 discriminator 1 view .LVU317
 1040 00e6 4046     		mov	r0, r8
  96:granularplayermod.cpp **** }
 1041              		.loc 1 96 28 view .LVU318
 1042 00e8 B5EEC07A 		vcmpe.f32	s14, #0
 1043              	.LBE145:
 1044              	.LBE149:
 1045              		.loc 1 163 49 discriminator 1 view .LVU319
 1046 00ec D3ED007A 		vldr.32	s15, [r3]
 1047              		.loc 1 163 17 discriminator 1 view .LVU320
 1048 00f0 05F62403 		addw	r3, r5, #2084
 1049              		.loc 1 163 49 discriminator 1 view .LVU321
 1050 00f4 67EE807A 		vmul.f32	s15, s15, s0
 1051              	.LBB150:
 1052              	.LBB146:
  96:granularplayermod.cpp **** }
 1053              		.loc 1 96 28 view .LVU322
 1054 00f8 F1EE10FA 		vmrs	APSR_nzcv, FPSCR
 1055              	.LBE146:
 1056              	.LBE150:
 1057              		.loc 1 163 17 discriminator 1 view .LVU323
 1058 00fc C3ED007A 		vstr.32	s15, [r3]
 164:granularplayermod.cpp ****     idxSpeed2_  = NegativeInvert(&phs2_, speed_) * variable_size_;
 1059              		.loc 1 164 5 is_stmt 1 view .LVU324
 1060              	.LVL60:
 1061              	.LBB151:
 1062              	.LBI141:
  93:granularplayermod.cpp **** {
 1063              		.loc 1 93 7 view .LVU325
 1064              	.LBB147:
  96:granularplayermod.cpp **** }
 1065              		.loc 1 96 5 view .LVU326
  96:granularplayermod.cpp **** }
 1066              		.loc 1 96 28 is_stmt 0 view .LVU327
 1067 0100 40F33181 		ble	.L90
  96:granularplayermod.cpp **** }
 1068              		.loc 1 96 42 discriminator 1 view .LVU328
 1069 0104 FFF7FEFF 		bl	_ZN7daisysp6Phasor7ProcessEv
 1070              	.LVL61:
 1071              	.L55:
  96:granularplayermod.cpp **** }
 1072              		.loc 1 96 42 discriminator 1 view .LVU329
 1073              	.LBE147:
 1074              	.LBE151:
 1075              	.LBB152:
 1076              	.LBB153:
ARM GAS  /tmp/ccvgZOuh.s 			page 30


  96:granularplayermod.cpp **** }
 1077              		.loc 1 96 28 view .LVU330
 1078 0108 94ED057A 		vldr.32	s14, [r4, #20]
 1079              	.LBE153:
 1080              	.LBE152:
 1081              		.loc 1 164 52 discriminator 1 view .LVU331
 1082 010c 05F6AC02 		addw	r2, r5, #2220
 1083              		.loc 1 164 17 discriminator 1 view .LVU332
 1084 0110 05F62803 		addw	r3, r5, #2088
 1085              	.LBB160:
 1086              	.LBB156:
  96:granularplayermod.cpp **** }
 1087              		.loc 1 96 42 discriminator 1 view .LVU333
 1088 0114 3846     		mov	r0, r7
  96:granularplayermod.cpp **** }
 1089              		.loc 1 96 28 view .LVU334
 1090 0116 B5EEC07A 		vcmpe.f32	s14, #0
 1091              	.LBE156:
 1092              	.LBE160:
 1093              		.loc 1 164 50 discriminator 1 view .LVU335
 1094 011a D2ED007A 		vldr.32	s15, [r2]
 1095 011e 27EE800A 		vmul.f32	s0, s15, s0
 1096              	.LBB161:
 1097              	.LBB157:
  96:granularplayermod.cpp **** }
 1098              		.loc 1 96 28 view .LVU336
 1099 0122 F1EE10FA 		vmrs	APSR_nzcv, FPSCR
 1100              	.LBE157:
 1101              	.LBE161:
 1102              		.loc 1 164 17 discriminator 1 view .LVU337
 1103 0126 83ED000A 		vstr.32	s0, [r3]
 165:granularplayermod.cpp ****     idxTransp_  = (NegativeInvert(&phsImp_, transposition_)
 1104              		.loc 1 165 5 is_stmt 1 view .LVU338
 1105              	.LVL62:
 1106              	.LBB162:
 1107              	.LBI152:
  93:granularplayermod.cpp **** {
 1108              		.loc 1 93 7 view .LVU339
 1109              	.LBB158:
  96:granularplayermod.cpp **** }
 1110              		.loc 1 96 5 view .LVU340
  96:granularplayermod.cpp **** }
 1111              		.loc 1 96 28 is_stmt 0 view .LVU341
 1112 012a 40F32F81 		ble	.L91
  96:granularplayermod.cpp **** }
 1113              		.loc 1 96 42 discriminator 1 view .LVU342
 1114 012e FFF7FEFF 		bl	_ZN7daisysp6Phasor7ProcessEv
 1115              	.LVL63:
 1116              	.L58:
  96:granularplayermod.cpp **** }
 1117              		.loc 1 96 42 discriminator 1 view .LVU343
 1118              	.LBE158:
 1119              	.LBE162:
 1120              	.LBB163:
 1121              	.LBI163:
  87:granularplayermod.cpp **** {
 1122              		.loc 1 87 7 is_stmt 1 view .LVU344
ARM GAS  /tmp/ccvgZOuh.s 			page 31


 1123              	.LBB164:
  90:granularplayermod.cpp **** }
 1124              		.loc 1 90 5 view .LVU345
  90:granularplayermod.cpp **** }
 1125              		.loc 1 90 26 is_stmt 0 view .LVU346
 1126 0132 94ED017A 		vldr.32	s14, [r4, #4]
 1127              	.LBE164:
 1128              	.LBE163:
 1129              		.loc 1 165 17 view .LVU347
 1130 0136 05F61C03 		addw	r3, r5, #2076
 1131              	.LBB168:
 1132              	.LBB165:
  90:granularplayermod.cpp **** }
 1133              		.loc 1 90 26 view .LVU348
 1134 013a D4ED037A 		vldr.32	s15, [r4, #12]
 1135              	.LBE165:
 1136              	.LBE168:
 1137              	.LBB169:
 1138              	.LBB170:
  96:granularplayermod.cpp **** }
 1139              		.loc 1 96 42 discriminator 1 view .LVU349
 1140 013e 3046     		mov	r0, r6
 1141              	.LBE170:
 1142              	.LBE169:
 1143              	.LBB177:
 1144              	.LBB166:
  90:granularplayermod.cpp **** }
 1145              		.loc 1 90 28 view .LVU350
 1146 0140 DFED9D6A 		vldr.32	s13, .L100+24
  90:granularplayermod.cpp **** }
 1147              		.loc 1 90 26 view .LVU351
 1148 0144 67EE877A 		vmul.f32	s15, s15, s14
 1149              	.LBE166:
 1150              	.LBE177:
 1151              	.LBB178:
 1152              	.LBB173:
  96:granularplayermod.cpp **** }
 1153              		.loc 1 96 28 view .LVU352
 1154 0148 94ED057A 		vldr.32	s14, [r4, #20]
 1155 014c B5EEC07A 		vcmpe.f32	s14, #0
 1156              	.LBE173:
 1157              	.LBE178:
 1158              	.LBB179:
 1159              	.LBB167:
  90:granularplayermod.cpp **** }
 1160              		.loc 1 90 28 view .LVU353
 1161 0150 67EEA67A 		vmul.f32	s15, s15, s13
 1162              	.LBE167:
 1163              	.LBE179:
 1164              	.LBB180:
 1165              	.LBB174:
  96:granularplayermod.cpp **** }
 1166              		.loc 1 96 28 view .LVU354
 1167 0154 F1EE10FA 		vmrs	APSR_nzcv, FPSCR
 1168              	.LBE174:
 1169              	.LBE180:
 166:granularplayermod.cpp ****                   * MsToSamps(grain_size_, sample_rate_));
ARM GAS  /tmp/ccvgZOuh.s 			page 32


 1170              		.loc 1 166 19 discriminator 1 view .LVU355
 1171 0158 27EE800A 		vmul.f32	s0, s15, s0
 165:granularplayermod.cpp ****                   * MsToSamps(grain_size_, sample_rate_));
 1172              		.loc 1 165 17 view .LVU356
 1173 015c 83ED000A 		vstr.32	s0, [r3]
 167:granularplayermod.cpp ****     idxTransp2_ = (NegativeInvert(&phsImp2_, transposition_)
 1174              		.loc 1 167 5 is_stmt 1 view .LVU357
 1175              	.LVL64:
 1176              	.LBB181:
 1177              	.LBI169:
  93:granularplayermod.cpp **** {
 1178              		.loc 1 93 7 view .LVU358
 1179              	.LBB175:
  96:granularplayermod.cpp **** }
 1180              		.loc 1 96 5 view .LVU359
  96:granularplayermod.cpp **** }
 1181              		.loc 1 96 28 is_stmt 0 view .LVU360
 1182 0160 40F30D81 		ble	.L92
  96:granularplayermod.cpp **** }
 1183              		.loc 1 96 42 discriminator 1 view .LVU361
 1184 0164 FFF7FEFF 		bl	_ZN7daisysp6Phasor7ProcessEv
 1185              	.LVL65:
 1186              	.L61:
  96:granularplayermod.cpp **** }
 1187              		.loc 1 96 42 discriminator 1 view .LVU362
 1188              	.LBE175:
 1189              	.LBE181:
 1190              	.LBB182:
 1191              	.LBI182:
  87:granularplayermod.cpp **** {
 1192              		.loc 1 87 7 is_stmt 1 view .LVU363
 1193              	.LBB183:
  90:granularplayermod.cpp **** }
 1194              		.loc 1 90 5 view .LVU364
  90:granularplayermod.cpp **** }
 1195              		.loc 1 90 26 is_stmt 0 view .LVU365
 1196 0168 D4ED016A 		vldr.32	s13, [r4, #4]
 1197              	.LBE183:
 1198              	.LBE182:
 1199              		.loc 1 167 17 view .LVU366
 1200 016c 04F5C153 		add	r3, r4, #6176
 1201              	.LBB188:
 1202              	.LBB184:
  90:granularplayermod.cpp **** }
 1203              		.loc 1 90 26 view .LVU367
 1204 0170 94ED037A 		vldr.32	s14, [r4, #12]
 1205              	.LBE184:
 1206              	.LBE188:
 168:granularplayermod.cpp ****                    * MsToSamps(grain_size_, sample_rate_));
 169:granularplayermod.cpp ****     idx_        = WrapIdx((uint32_t)(idxSpeed_ + idxTransp_ + rand_idx_mod_), variable_size_);
 1207              		.loc 1 169 63 view .LVU368
 1208 0174 04F5C458 		add	r8, r4, #6272
 1209              	.LBB189:
 1210              	.LBB185:
  90:granularplayermod.cpp **** }
 1211              		.loc 1 90 28 view .LVU369
 1212 0178 DFED8F7A 		vldr.32	s15, .L100+24
ARM GAS  /tmp/ccvgZOuh.s 			page 33


 1213              	.LBE185:
 1214              	.LBE189:
 170:granularplayermod.cpp ****     idx2_       = WrapIdx((uint32_t)(idxSpeed2_ + idxTransp2_ + rand_idx_mod2_), variable_size_);
 171:granularplayermod.cpp **** 
 172:granularplayermod.cpp **** 
 173:granularplayermod.cpp ****     // Check for when phase output equals 0.0, then generate a new random index modifier for next g
 174:granularplayermod.cpp ****     float phase_out1_imp = phsImp_.Process();
 1215              		.loc 1 174 43 view .LVU370
 1216 017c 3846     		mov	r0, r7
 1217              	.LBB190:
 1218              	.LBB186:
  90:granularplayermod.cpp **** }
 1219              		.loc 1 90 26 view .LVU371
 1220 017e 27EE267A 		vmul.f32	s14, s14, s13
 1221              	.LBE186:
 1222              	.LBE190:
 169:granularplayermod.cpp ****     idx2_       = WrapIdx((uint32_t)(idxSpeed2_ + idxTransp2_ + rand_idx_mod2_), variable_size_);
 1223              		.loc 1 169 61 view .LVU372
 1224 0182 D8ED006A 		vldr.32	s13, [r8]
 1225              	.LBB191:
 1226              	.LBB187:
  90:granularplayermod.cpp **** }
 1227              		.loc 1 90 28 view .LVU373
 1228 0186 27EE277A 		vmul.f32	s14, s14, s15
 1229              	.LBE187:
 1230              	.LBE191:
 168:granularplayermod.cpp ****     idx_        = WrapIdx((uint32_t)(idxSpeed_ + idxTransp_ + rand_idx_mod_), variable_size_);
 1231              		.loc 1 168 20 discriminator 1 view .LVU374
 1232 018a 27EE007A 		vmul.f32	s14, s14, s0
 167:granularplayermod.cpp ****                    * MsToSamps(grain_size_, sample_rate_));
 1233              		.loc 1 167 17 view .LVU375
 1234 018e 83ED007A 		vstr.32	s14, [r3]
 169:granularplayermod.cpp ****     idx2_       = WrapIdx((uint32_t)(idxSpeed2_ + idxTransp2_ + rand_idx_mod2_), variable_size_);
 1235              		.loc 1 169 5 is_stmt 1 view .LVU376
 169:granularplayermod.cpp ****     idx2_       = WrapIdx((uint32_t)(idxSpeed2_ + idxTransp2_ + rand_idx_mod2_), variable_size_);
 1236              		.loc 1 169 38 is_stmt 0 view .LVU377
 1237 0192 05F62403 		addw	r3, r5, #2084
 169:granularplayermod.cpp ****     idx2_       = WrapIdx((uint32_t)(idxSpeed2_ + idxTransp2_ + rand_idx_mod2_), variable_size_);
 1238              		.loc 1 169 48 view .LVU378
 1239 0196 D3ED007A 		vldr.32	s15, [r3]
 169:granularplayermod.cpp ****     idx2_       = WrapIdx((uint32_t)(idxSpeed2_ + idxTransp2_ + rand_idx_mod2_), variable_size_);
 1240              		.loc 1 169 50 view .LVU379
 1241 019a 05F61C03 		addw	r3, r5, #2076
 169:granularplayermod.cpp ****     idx2_       = WrapIdx((uint32_t)(idxSpeed2_ + idxTransp2_ + rand_idx_mod2_), variable_size_);
 1242              		.loc 1 169 48 view .LVU380
 1243 019e 93ED006A 		vldr.32	s12, [r3]
 169:granularplayermod.cpp ****     idx2_       = WrapIdx((uint32_t)(idxSpeed2_ + idxTransp2_ + rand_idx_mod2_), variable_size_);
 1244              		.loc 1 169 79 view .LVU381
 1245 01a2 05F6AC03 		addw	r3, r5, #2220
 169:granularplayermod.cpp ****     idx2_       = WrapIdx((uint32_t)(idxSpeed2_ + idxTransp2_ + rand_idx_mod2_), variable_size_);
 1246              		.loc 1 169 48 view .LVU382
 1247 01a6 77EE867A 		vadd.f32	s15, s15, s12
 169:granularplayermod.cpp ****     idx2_       = WrapIdx((uint32_t)(idxSpeed2_ + idxTransp2_ + rand_idx_mod2_), variable_size_);
 1248              		.loc 1 169 61 view .LVU383
 1249 01aa 77EEA67A 		vadd.f32	s15, s15, s13
 169:granularplayermod.cpp ****     idx2_       = WrapIdx((uint32_t)(idxSpeed2_ + idxTransp2_ + rand_idx_mod2_), variable_size_);
 1250              		.loc 1 169 26 view .LVU384
ARM GAS  /tmp/ccvgZOuh.s 			page 34


 1251 01ae D3ED006A 		vldr.32	s13, [r3]
 1252 01b2 FCEEE77A 		vcvt.u32.f32	s15, s15
 1253 01b6 17EE903A 		vmov	r3, s15	@ int
 1254 01ba FCEEE67A 		vcvt.u32.f32	s15, s13
 1255 01be 17EE902A 		vmov	r2, s15	@ int
 1256              	.LVL66:
 1257              	.LBB192:
 1258              	.LBI192:
  67:granularplayermod.cpp **** {
 1259              		.loc 1 67 10 is_stmt 1 view .LVU385
 1260              	.LBB193:
  71:granularplayermod.cpp ****     {
 1261              		.loc 1 71 5 view .LVU386
 1262 01c2 9342     		cmp	r3, r2
  73:granularplayermod.cpp ****         return idx;
 1263              		.loc 1 73 9 view .LVU387
  73:granularplayermod.cpp ****         return idx;
 1264              		.loc 1 73 13 is_stmt 0 view .LVU388
 1265 01c4 28BF     		it	cs
 1266 01c6 9B1A     		subcs	r3, r3, r2
 1267              	.LVL67:
  74:granularplayermod.cpp ****     }
 1268              		.loc 1 74 9 is_stmt 1 view .LVU389
  74:granularplayermod.cpp ****     }
 1269              		.loc 1 74 9 is_stmt 0 view .LVU390
 1270              	.LBE193:
 1271              	.LBE192:
 169:granularplayermod.cpp ****     idx2_       = WrapIdx((uint32_t)(idxSpeed2_ + idxTransp2_ + rand_idx_mod2_), variable_size_);
 1272              		.loc 1 169 17 discriminator 1 view .LVU391
 1273 01c8 C5F83438 		str	r3, [r5, #2100]
 170:granularplayermod.cpp **** 
 1274              		.loc 1 170 5 is_stmt 1 view .LVU392
 170:granularplayermod.cpp **** 
 1275              		.loc 1 170 38 is_stmt 0 view .LVU393
 1276 01cc 05F62803 		addw	r3, r5, #2088
 170:granularplayermod.cpp **** 
 1277              		.loc 1 170 63 view .LVU394
 1278 01d0 93ED000A 		vldr.32	s0, [r3]
 170:granularplayermod.cpp **** 
 1279              		.loc 1 170 65 view .LVU395
 1280 01d4 05F68403 		addw	r3, r5, #2180
 170:granularplayermod.cpp **** 
 1281              		.loc 1 170 63 view .LVU396
 1282 01d8 D3ED007A 		vldr.32	s15, [r3]
 1283 01dc 30EE270A 		vadd.f32	s0, s0, s15
 1284 01e0 30EE070A 		vadd.f32	s0, s0, s14
 170:granularplayermod.cpp **** 
 1285              		.loc 1 170 26 view .LVU397
 1286 01e4 FCEEC07A 		vcvt.u32.f32	s15, s0
 1287 01e8 17EE903A 		vmov	r3, s15	@ int
 1288              	.LVL68:
 1289              	.LBB194:
 1290              	.LBI194:
  67:granularplayermod.cpp **** {
 1291              		.loc 1 67 10 is_stmt 1 view .LVU398
 1292              	.LBB195:
  71:granularplayermod.cpp ****     {
ARM GAS  /tmp/ccvgZOuh.s 			page 35


 1293              		.loc 1 71 5 view .LVU399
 1294 01ec 9A42     		cmp	r2, r3
  73:granularplayermod.cpp ****         return idx;
 1295              		.loc 1 73 9 view .LVU400
  73:granularplayermod.cpp ****         return idx;
 1296              		.loc 1 73 13 is_stmt 0 view .LVU401
 1297 01ee 98BF     		it	ls
 1298 01f0 9B1A     		subls	r3, r3, r2
 1299              	.LVL69:
  74:granularplayermod.cpp ****     }
 1300              		.loc 1 74 9 is_stmt 1 view .LVU402
  74:granularplayermod.cpp ****     }
 1301              		.loc 1 74 9 is_stmt 0 view .LVU403
 1302              	.LBE195:
 1303              	.LBE194:
 170:granularplayermod.cpp **** 
 1304              		.loc 1 170 17 discriminator 1 view .LVU404
 1305 01f2 C5F83838 		str	r3, [r5, #2104]
 1306              		.loc 1 174 5 is_stmt 1 view .LVU405
 1307              		.loc 1 174 43 is_stmt 0 view .LVU406
 1308 01f6 FFF7FEFF 		bl	_ZN7daisysp6Phasor7ProcessEv
 1309              	.LVL70:
 1310 01fa B0EE408A 		vmov.f32	s16, s0
 1311              	.LVL71:
 175:granularplayermod.cpp ****     float phase_out2_imp = phsImp2_.Process();
 1312              		.loc 1 175 5 is_stmt 1 view .LVU407
 1313              		.loc 1 175 44 is_stmt 0 view .LVU408
 1314 01fe 3046     		mov	r0, r6
 1315 0200 FFF7FEFF 		bl	_ZN7daisysp6Phasor7ProcessEv
 1316              	.LVL72:
 1317              		.loc 1 175 44 view .LVU409
 1318 0204 F0EE408A 		vmov.f32	s17, s0
 1319              	.LVL73:
 176:granularplayermod.cpp **** 
 177:granularplayermod.cpp ****     if (phase_out1_imp < 0.01 && switch1 == true) { // TESTING
 1320              		.loc 1 177 5 is_stmt 1 view .LVU410
 1321              		.loc 1 177 9 is_stmt 0 view .LVU411
 1322 0208 B7EEC87A 		vcvt.f64.f32	d7, s16
 1323              		.loc 1 177 5 view .LVU412
 1324 020c 9FED646B 		vldr.64	d6, .L100
 1325 0210 B4EEC67B 		vcmpe.f64	d7, d6
 1326 0214 F1EE10FA 		vmrs	APSR_nzcv, FPSCR
 1327 0218 28D5     		bpl	.L93
 1328              		.loc 1 177 31 discriminator 1 view .LVU413
 1329 021a 95F89038 		ldrb	r3, [r5, #2192]	@ zero_extendqisi2
 1330 021e 002B     		cmp	r3, #0
 1331 0220 40F00281 		bne	.L97
 1332              	.LVL74:
 1333              	.L66:
 178:granularplayermod.cpp ****         rand_idx_mod_ = newRandIndex(true);
 179:granularplayermod.cpp ****         switch1 = false;
 180:granularplayermod.cpp ****     }
 181:granularplayermod.cpp ****     if (phase_out1_imp > 0.9)
 182:granularplayermod.cpp ****         switch1 = true;
 183:granularplayermod.cpp **** 
 184:granularplayermod.cpp **** 
 185:granularplayermod.cpp ****     if (phase_out2_imp < 0.01 && switch2 == true) { // TESTING
ARM GAS  /tmp/ccvgZOuh.s 			page 36


 1334              		.loc 1 185 5 is_stmt 1 view .LVU414
 1335              		.loc 1 185 9 is_stmt 0 view .LVU415
 1336 0224 B7EEE87A 		vcvt.f64.f32	d7, s17
 1337              		.loc 1 185 5 view .LVU416
 1338 0228 9FED5D6B 		vldr.64	d6, .L100
 1339 022c B4EEC67B 		vcmpe.f64	d7, d6
 1340 0230 F1EE10FA 		vmrs	APSR_nzcv, FPSCR
 1341 0234 25D5     		bpl	.L94
 1342              		.loc 1 185 31 discriminator 1 view .LVU417
 1343 0236 95F89138 		ldrb	r3, [r5, #2193]	@ zero_extendqisi2
 1344 023a 002B     		cmp	r3, #0
 1345 023c 40F02681 		bne	.L70
 186:granularplayermod.cpp ****         rand_idx_mod2_ = newRandIndex(false);
 187:granularplayermod.cpp ****         switch2 = false;
 188:granularplayermod.cpp ****     }
 189:granularplayermod.cpp ****     if (phase_out2_imp > 0.9)
 190:granularplayermod.cpp ****         switch2 = true;
 191:granularplayermod.cpp **** 
 192:granularplayermod.cpp **** 
 193:granularplayermod.cpp ****     if (env_mode_ == 0) {
 194:granularplayermod.cpp **** 
 195:granularplayermod.cpp ****         sig_        = sample_[idx_] * cosEnv_[(uint32_t)(phase_out1_imp * 512)];
 196:granularplayermod.cpp ****         sig2_       = sample_[idx2_] * cosEnv_[(uint32_t)(phase_out2_imp * 512)];
 197:granularplayermod.cpp ****         
 198:granularplayermod.cpp **** 
 199:granularplayermod.cpp ****     } else if (env_mode_ == 1) {
 200:granularplayermod.cpp **** 
 201:granularplayermod.cpp ****         sig_        = sample_[idx_] * linEnv_[(uint32_t)(phase_out1_imp * 512)];
 202:granularplayermod.cpp ****         sig2_       = sample_[idx2_] * linEnv_[(uint32_t)(phase_out2_imp * 512)];   
 203:granularplayermod.cpp **** 
 204:granularplayermod.cpp **** 
 205:granularplayermod.cpp ****     } else if (env_mode_ == 2) {
 206:granularplayermod.cpp **** 
 207:granularplayermod.cpp ****         sig_        = sample_[idx_] * adLinEnv_[(uint32_t)(phase_out1_imp * 512)];
 208:granularplayermod.cpp ****         sig2_       = sample_[idx2_] * adLinEnv_[(uint32_t)(phase_out2_imp * 512)];   
 209:granularplayermod.cpp **** 
 210:granularplayermod.cpp ****     }
 211:granularplayermod.cpp **** 
 212:granularplayermod.cpp ****     outl_ = (sig_ * (1.0 - grain_pan1_) + sig2_ * (1.0 - grain_pan2_)) / 2;
 1346              		.loc 1 212 58 view .LVU418
 1347 0240 05F69C03 		addw	r3, r5, #2204
 1348 0244 D3ED006A 		vldr.32	s13, [r3]
 193:granularplayermod.cpp **** 
 1349              		.loc 1 193 5 is_stmt 1 view .LVU419
 193:granularplayermod.cpp **** 
 1350              		.loc 1 193 9 is_stmt 0 view .LVU420
 1351 0248 D5F89438 		ldr	r3, [r5, #2196]
 193:granularplayermod.cpp **** 
 1352              		.loc 1 193 5 view .LVU421
 1353 024c 5BB3     		cbz	r3, .L98
 1354              	.L74:
 199:granularplayermod.cpp **** 
 1355              		.loc 1 199 12 is_stmt 1 view .LVU422
 1356 024e 012B     		cmp	r3, #1
 1357 0250 00F0B680 		beq	.L99
 205:granularplayermod.cpp **** 
 1358              		.loc 1 205 12 view .LVU423
ARM GAS  /tmp/ccvgZOuh.s 			page 37


 1359 0254 022B     		cmp	r3, #2
 1360 0256 00F04D81 		beq	.L77
 1361              		.loc 1 212 14 is_stmt 0 view .LVU424
 1362 025a 05F62C02 		addw	r2, r5, #2092
 1363              		.loc 1 212 43 view .LVU425
 1364 025e 05F50363 		add	r3, r5, #2096
 1365              		.loc 1 212 14 view .LVU426
 1366 0262 92ED006A 		vldr.32	s12, [r2]
 1367              		.loc 1 212 43 view .LVU427
 1368 0266 D3ED005A 		vldr.32	s11, [r3]
 1369 026a 4BE0     		b	.L75
 1370              	.LVL75:
 1371              	.L93:
 181:granularplayermod.cpp ****         switch1 = true;
 1372              		.loc 1 181 5 is_stmt 1 view .LVU428
 1373 026c 9FED4E6B 		vldr.64	d6, .L100+8
 1374 0270 B4EEC67B 		vcmpe.f64	d7, d6
 1375 0274 F1EE10FA 		vmrs	APSR_nzcv, FPSCR
 1376 0278 D4DD     		ble	.L66
 182:granularplayermod.cpp **** 
 1377              		.loc 1 182 9 view .LVU429
 182:granularplayermod.cpp **** 
 1378              		.loc 1 182 17 is_stmt 0 view .LVU430
 1379 027a 0123     		movs	r3, #1
 1380 027c 85F89038 		strb	r3, [r5, #2192]
 1381 0280 D0E7     		b	.L66
 1382              	.LVL76:
 1383              	.L94:
 189:granularplayermod.cpp ****         switch2 = true;
 1384              		.loc 1 189 5 is_stmt 1 view .LVU431
 1385 0282 9FED495B 		vldr.64	d5, .L100+8
 1386              		.loc 1 212 58 is_stmt 0 view .LVU432
 1387 0286 05F69C03 		addw	r3, r5, #2204
 189:granularplayermod.cpp ****         switch2 = true;
 1388              		.loc 1 189 5 view .LVU433
 1389 028a B4EEC57B 		vcmpe.f64	d7, d5
 1390              		.loc 1 212 58 view .LVU434
 1391 028e D3ED006A 		vldr.32	s13, [r3]
 189:granularplayermod.cpp ****         switch2 = true;
 1392              		.loc 1 189 5 view .LVU435
 1393 0292 F1EE10FA 		vmrs	APSR_nzcv, FPSCR
 1394 0296 02DD     		ble	.L71
 190:granularplayermod.cpp **** 
 1395              		.loc 1 190 9 is_stmt 1 view .LVU436
 190:granularplayermod.cpp **** 
 1396              		.loc 1 190 17 is_stmt 0 view .LVU437
 1397 0298 0123     		movs	r3, #1
 1398 029a 85F89138 		strb	r3, [r5, #2193]
 1399              	.L71:
 193:granularplayermod.cpp **** 
 1400              		.loc 1 193 5 is_stmt 1 view .LVU438
 193:granularplayermod.cpp **** 
 1401              		.loc 1 193 9 is_stmt 0 view .LVU439
 1402 029e D5F89438 		ldr	r3, [r5, #2196]
 193:granularplayermod.cpp **** 
 1403              		.loc 1 193 5 view .LVU440
 1404 02a2 002B     		cmp	r3, #0
ARM GAS  /tmp/ccvgZOuh.s 			page 38


 1405 02a4 D3D1     		bne	.L74
 1406              	.L98:
 195:granularplayermod.cpp ****         sig2_       = sample_[idx2_] * cosEnv_[(uint32_t)(phase_out2_imp * 512)];
 1407              		.loc 1 195 9 is_stmt 1 view .LVU441
 195:granularplayermod.cpp ****         sig2_       = sample_[idx2_] * cosEnv_[(uint32_t)(phase_out2_imp * 512)];
 1408              		.loc 1 195 73 is_stmt 0 view .LVU442
 1409 02a6 DFED457A 		vldr.32	s15, .L100+28
 195:granularplayermod.cpp ****         sig2_       = sample_[idx2_] * cosEnv_[(uint32_t)(phase_out2_imp * 512)];
 1410              		.loc 1 195 21 view .LVU443
 1411 02aa 05F62C01 		addw	r1, r5, #2092
 195:granularplayermod.cpp ****         sig2_       = sample_[idx2_] * cosEnv_[(uint32_t)(phase_out2_imp * 512)];
 1412              		.loc 1 195 23 view .LVU444
 1413 02ae 2268     		ldr	r2, [r4]
 195:granularplayermod.cpp ****         sig2_       = sample_[idx2_] * cosEnv_[(uint32_t)(phase_out2_imp * 512)];
 1414              		.loc 1 195 73 view .LVU445
 1415 02b0 28EE278A 		vmul.f32	s16, s16, s15
 1416              	.LVL77:
 195:granularplayermod.cpp ****         sig2_       = sample_[idx2_] * cosEnv_[(uint32_t)(phase_out2_imp * 512)];
 1417              		.loc 1 195 35 view .LVU446
 1418 02b4 D5F83438 		ldr	r3, [r5, #2100]
 196:granularplayermod.cpp ****         
 1419              		.loc 1 196 74 view .LVU447
 1420 02b8 68EEA77A 		vmul.f32	s15, s17, s15
 195:granularplayermod.cpp ****         sig2_       = sample_[idx2_] * cosEnv_[(uint32_t)(phase_out2_imp * 512)];
 1421              		.loc 1 195 35 view .LVU448
 1422 02bc 02EB8303 		add	r3, r2, r3, lsl #2
 195:granularplayermod.cpp ****         sig2_       = sample_[idx2_] * cosEnv_[(uint32_t)(phase_out2_imp * 512)];
 1423              		.loc 1 195 47 view .LVU449
 1424 02c0 BCEEC88A 		vcvt.u32.f32	s16, s16
 195:granularplayermod.cpp ****         sig2_       = sample_[idx2_] * cosEnv_[(uint32_t)(phase_out2_imp * 512)];
 1425              		.loc 1 195 37 view .LVU450
 1426 02c4 93ED006A 		vldr.32	s12, [r3]
 196:granularplayermod.cpp ****         
 1427              		.loc 1 196 48 view .LVU451
 1428 02c8 FCEEE77A 		vcvt.u32.f32	s15, s15
 195:granularplayermod.cpp ****         sig2_       = sample_[idx2_] * cosEnv_[(uint32_t)(phase_out2_imp * 512)];
 1429              		.loc 1 195 79 view .LVU452
 1430 02cc 18EE103A 		vmov	r3, s16	@ int
 1431 02d0 04EB8303 		add	r3, r4, r3, lsl #2
 195:granularplayermod.cpp ****         sig2_       = sample_[idx2_] * cosEnv_[(uint32_t)(phase_out2_imp * 512)];
 1432              		.loc 1 195 37 view .LVU453
 1433 02d4 93ED077A 		vldr.32	s14, [r3, #28]
 196:granularplayermod.cpp ****         
 1434              		.loc 1 196 36 view .LVU454
 1435 02d8 D5F83838 		ldr	r3, [r5, #2104]
 195:granularplayermod.cpp ****         sig2_       = sample_[idx2_] * cosEnv_[(uint32_t)(phase_out2_imp * 512)];
 1436              		.loc 1 195 37 view .LVU455
 1437 02dc 26EE076A 		vmul.f32	s12, s12, s14
 196:granularplayermod.cpp ****         
 1438              		.loc 1 196 36 view .LVU456
 1439 02e0 02EB8302 		add	r2, r2, r3, lsl #2
 196:granularplayermod.cpp ****         
 1440              		.loc 1 196 80 view .LVU457
 1441 02e4 17EE903A 		vmov	r3, s15	@ int
 1442 02e8 04EB8303 		add	r3, r4, r3, lsl #2
 195:granularplayermod.cpp ****         sig2_       = sample_[idx2_] * cosEnv_[(uint32_t)(phase_out2_imp * 512)];
 1443              		.loc 1 195 21 view .LVU458
ARM GAS  /tmp/ccvgZOuh.s 			page 39


 1444 02ec 81ED006A 		vstr.32	s12, [r1]
 196:granularplayermod.cpp ****         
 1445              		.loc 1 196 9 is_stmt 1 view .LVU459
 196:granularplayermod.cpp ****         
 1446              		.loc 1 196 38 is_stmt 0 view .LVU460
 1447 02f0 D2ED005A 		vldr.32	s11, [r2]
 1448 02f4 D3ED077A 		vldr.32	s15, [r3, #28]
 196:granularplayermod.cpp ****         
 1449              		.loc 1 196 21 view .LVU461
 1450 02f8 05F50363 		add	r3, r5, #2096
 196:granularplayermod.cpp ****         
 1451              		.loc 1 196 38 view .LVU462
 1452 02fc 65EEA75A 		vmul.f32	s11, s11, s15
 196:granularplayermod.cpp ****         
 1453              		.loc 1 196 21 view .LVU463
 1454 0300 C3ED005A 		vstr.32	s11, [r3]
 1455              	.L75:
 1456              		.loc 1 212 5 is_stmt 1 view .LVU464
 1457              		.loc 1 212 26 is_stmt 0 view .LVU465
 1458 0304 B7EE001B 		vmov.f64	d1, #1.0e+0
 1459              		.loc 1 212 28 view .LVU466
 1460 0308 05F69803 		addw	r3, r5, #2200
 1461              		.loc 1 212 58 view .LVU467
 1462 030c B7EEE67A 		vcvt.f64.f32	d7, s13
 1463              		.loc 1 212 11 view .LVU468
 1464 0310 04F5C554 		add	r4, r4, #6304
 1465              	.LVL78:
 1466              		.loc 1 212 43 view .LVU469
 1467 0314 B7EEE50A 		vcvt.f64.f32	d0, s11
 1468              		.loc 1 212 28 view .LVU470
 1469 0318 D3ED004A 		vldr.32	s9, [r3]
 213:granularplayermod.cpp ****     outr_ = (sig_ * grain_pan1_ + sig2_ * grain_pan2_) / 2;
 1470              		.loc 1 213 41 view .LVU471
 1471 031c 66EEA56A 		vmul.f32	s13, s13, s11
 1472              		.loc 1 213 11 view .LVU472
 1473 0320 05F6A405 		addw	r5, r5, #2212
 212:granularplayermod.cpp ****     outr_ = (sig_ * grain_pan1_ + sig2_ * grain_pan2_) / 2;
 1474              		.loc 1 212 56 view .LVU473
 1475 0324 31EE477B 		vsub.f64	d7, d1, d7
 212:granularplayermod.cpp ****     outr_ = (sig_ * grain_pan1_ + sig2_ * grain_pan2_) / 2;
 1476              		.loc 1 212 28 view .LVU474
 1477 0328 B7EEE45A 		vcvt.f64.f32	d5, s9
 212:granularplayermod.cpp ****     outr_ = (sig_ * grain_pan1_ + sig2_ * grain_pan2_) / 2;
 1478              		.loc 1 212 14 view .LVU475
 1479 032c B7EEC62A 		vcvt.f64.f32	d2, s12
 212:granularplayermod.cpp ****     outr_ = (sig_ * grain_pan1_ + sig2_ * grain_pan2_) / 2;
 1480              		.loc 1 212 49 view .LVU476
 1481 0330 27EE007B 		vmul.f64	d7, d7, d0
 212:granularplayermod.cpp ****     outr_ = (sig_ * grain_pan1_ + sig2_ * grain_pan2_) / 2;
 1482              		.loc 1 212 26 view .LVU477
 1483 0334 31EE455B 		vsub.f64	d5, d1, d5
 212:granularplayermod.cpp ****     outr_ = (sig_ * grain_pan1_ + sig2_ * grain_pan2_) / 2;
 1484              		.loc 1 212 72 view .LVU478
 1485 0338 B6EE003B 		vmov.f64	d3, #5.0e-1
 1486              		.loc 1 213 56 view .LVU479
 1487 033c E4EE866A 		vfma.f32	s13, s9, s12
 212:granularplayermod.cpp ****     outr_ = (sig_ * grain_pan1_ + sig2_ * grain_pan2_) / 2;
ARM GAS  /tmp/ccvgZOuh.s 			page 40


 1488              		.loc 1 212 72 view .LVU480
 1489 0340 A2EE057B 		vfma.f64	d7, d2, d5
 1490              		.loc 1 213 56 view .LVU481
 1491 0344 B6EE004A 		vmov.f32	s8, #5.0e-1
 1492 0348 66EE846A 		vmul.f32	s13, s13, s8
 212:granularplayermod.cpp ****     outr_ = (sig_ * grain_pan1_ + sig2_ * grain_pan2_) / 2;
 1493              		.loc 1 212 72 view .LVU482
 1494 034c 27EE037B 		vmul.f64	d7, d7, d3
 1495 0350 B7EEC77B 		vcvt.f32.f64	s14, d7
 1496 0354 84ED007A 		vstr.32	s14, [r4]
 1497              		.loc 1 213 5 is_stmt 1 view .LVU483
 1498              		.loc 1 213 11 is_stmt 0 view .LVU484
 1499 0358 C5ED006A 		vstr.32	s13, [r5]
 214:granularplayermod.cpp **** 
 215:granularplayermod.cpp **** }...
 1500              		.loc 1 215 1 view .LVU485
 1501 035c 03B0     		add	sp, sp, #12
 1502              		.cfi_remember_state
 1503              		.cfi_def_cfa_offset 44
 1504              		@ sp needed
 1505 035e BDEC048B 		vldm	sp!, {d8-d9}
 1506              		.cfi_restore 82
 1507              		.cfi_restore 83
 1508              		.cfi_restore 80
 1509              		.cfi_restore 81
 1510              		.cfi_def_cfa_offset 28
 1511              	.LVL79:
 1512              		.loc 1 215 1 view .LVU486
 1513 0362 BDE8F083 		pop	{r4, r5, r6, r7, r8, r9, pc}
 1514              	.LVL80:
 1515              	.L90:
 1516              		.cfi_restore_state
 1517              	.LBB196:
 1518              	.LBB148:
 1519              	.LBB143:
 1520              	.LBI143:
  93:granularplayermod.cpp **** float GranularPlayerMod::NegativeInvert(Phasor* phs, float frequency)
 1521              		.loc 1 93 7 is_stmt 1 view .LVU487
 1522              	.LBB144:
  96:granularplayermod.cpp ****     return (frequency > 0) ? phs->Process() : ((phs->Process() * -1) + 1);
 1523              		.loc 1 96 61 is_stmt 0 discriminator 2 view .LVU488
 1524 0366 FFF7FEFF 		bl	_ZN7daisysp6Phasor7ProcessEv
 1525              	.LVL81:
  96:granularplayermod.cpp ****     return (frequency > 0) ? phs->Process() : ((phs->Process() * -1) + 1);
 1526              		.loc 1 96 73 discriminator 4 view .LVU489
 1527 036a F7EE007A 		vmov.f32	s15, #1.0e+0
 1528 036e 37EEC00A 		vsub.f32	s0, s15, s0
 1529              	.LVL82:
  96:granularplayermod.cpp ****     return (frequency > 0) ? phs->Process() : ((phs->Process() * -1) + 1);
 1530              		.loc 1 96 73 discriminator 4 view .LVU490
 1531 0372 C9E6     		b	.L55
 1532              	.LVL83:
 1533              	.L89:
  96:granularplayermod.cpp ****     return (frequency > 0) ? phs->Process() : ((phs->Process() * -1) + 1);
 1534              		.loc 1 96 73 discriminator 4 view .LVU491
 1535              	.LBE144:
 1536              	.LBE143:
ARM GAS  /tmp/ccvgZOuh.s 			page 41


 1537              	.LBE148:
 1538              	.LBE196:
 1539              	.LBB197:
 1540              	.LBB140:
 1541              	.LBB138:
 1542              	.LBI138:
  93:granularplayermod.cpp **** float GranularPlayerMod::NegativeInvert(Phasor* phs, float frequency)
 1543              		.loc 1 93 7 is_stmt 1 view .LVU492
 1544              	.LBB139:
  96:granularplayermod.cpp ****     return (frequency > 0) ? phs->Process() : ((phs->Process() * -1) + 1);
 1545              		.loc 1 96 61 is_stmt 0 discriminator 2 view .LVU493
 1546 0374 FFF7FEFF 		bl	_ZN7daisysp6Phasor7ProcessEv
 1547              	.LVL84:
  96:granularplayermod.cpp ****     return (frequency > 0) ? phs->Process() : ((phs->Process() * -1) + 1);
 1548              		.loc 1 96 73 discriminator 4 view .LVU494
 1549 0378 38EEC00A 		vsub.f32	s0, s17, s0
 1550              	.LVL85:
  96:granularplayermod.cpp ****     return (frequency > 0) ? phs->Process() : ((phs->Process() * -1) + 1);
 1551              		.loc 1 96 73 discriminator 4 view .LVU495
 1552 037c AFE6     		b	.L52
 1553              	.LVL86:
 1554              	.L92:
  96:granularplayermod.cpp ****     return (frequency > 0) ? phs->Process() : ((phs->Process() * -1) + 1);
 1555              		.loc 1 96 73 discriminator 4 view .LVU496
 1556              	.LBE139:
 1557              	.LBE138:
 1558              	.LBE140:
 1559              	.LBE197:
 1560              	.LBB198:
 1561              	.LBB176:
 1562              	.LBB171:
 1563              	.LBI171:
  93:granularplayermod.cpp **** float GranularPlayerMod::NegativeInvert(Phasor* phs, float frequency)
 1564              		.loc 1 93 7 is_stmt 1 view .LVU497
 1565              	.LBB172:
  96:granularplayermod.cpp ****     return (frequency > 0) ? phs->Process() : ((phs->Process() * -1) + 1);
 1566              		.loc 1 96 61 is_stmt 0 discriminator 2 view .LVU498
 1567 037e FFF7FEFF 		bl	_ZN7daisysp6Phasor7ProcessEv
 1568              	.LVL87:
  96:granularplayermod.cpp ****     return (frequency > 0) ? phs->Process() : ((phs->Process() * -1) + 1);
 1569              		.loc 1 96 73 discriminator 4 view .LVU499
 1570 0382 F7EE007A 		vmov.f32	s15, #1.0e+0
 1571 0386 37EEC00A 		vsub.f32	s0, s15, s0
 1572              	.LVL88:
  96:granularplayermod.cpp ****     return (frequency > 0) ? phs->Process() : ((phs->Process() * -1) + 1);
 1573              		.loc 1 96 73 discriminator 4 view .LVU500
 1574 038a EDE6     		b	.L61
 1575              	.LVL89:
 1576              	.L91:
  96:granularplayermod.cpp ****     return (frequency > 0) ? phs->Process() : ((phs->Process() * -1) + 1);
 1577              		.loc 1 96 73 discriminator 4 view .LVU501
 1578              	.LBE172:
 1579              	.LBE171:
 1580              	.LBE176:
 1581              	.LBE198:
 1582              	.LBB199:
 1583              	.LBB159:
ARM GAS  /tmp/ccvgZOuh.s 			page 42


 1584              	.LBB154:
 1585              	.LBI154:
  93:granularplayermod.cpp **** float GranularPlayerMod::NegativeInvert(Phasor* phs, float frequency)
 1586              		.loc 1 93 7 is_stmt 1 view .LVU502
 1587              	.LBB155:
  96:granularplayermod.cpp ****     return (frequency > 0) ? phs->Process() : ((phs->Process() * -1) + 1);
 1588              		.loc 1 96 61 is_stmt 0 discriminator 2 view .LVU503
 1589 038c FFF7FEFF 		bl	_ZN7daisysp6Phasor7ProcessEv
 1590              	.LVL90:
  96:granularplayermod.cpp ****     return (frequency > 0) ? phs->Process() : ((phs->Process() * -1) + 1);
 1591              		.loc 1 96 73 discriminator 4 view .LVU504
 1592 0390 F7EE007A 		vmov.f32	s15, #1.0e+0
 1593 0394 37EEC00A 		vsub.f32	s0, s15, s0
 1594              	.LVL91:
  96:granularplayermod.cpp ****     return (frequency > 0) ? phs->Process() : ((phs->Process() * -1) + 1);
 1595              		.loc 1 96 73 discriminator 4 view .LVU505
 1596 0398 CBE6     		b	.L58
 1597              	.L101:
 1598 039a 00BFAFF3 		.align	3
 1598      0080
 1599              	.L100:
 1600 03a0 7B14AE47 		.word	1202590843
 1601 03a4 E17A843F 		.word	1065646817
 1602 03a8 CDCCCCCC 		.word	-858993459
 1603 03ac CCCCEC3F 		.word	1072483532
 1604 03b0 0E745A3A 		.word	979006478
 1605 03b4 00007A44 		.word	1148846080
 1606 03b8 6F12833A 		.word	981668463
 1607 03bc 00000044 		.word	1140850688
 1608              	.LVL92:
 1609              	.L99:
  96:granularplayermod.cpp ****     return (frequency > 0) ? phs->Process() : ((phs->Process() * -1) + 1);
 1610              		.loc 1 96 73 discriminator 4 view .LVU506
 1611              	.LBE155:
 1612              	.LBE154:
 1613              	.LBE159:
 1614              	.LBE199:
 201:granularplayermod.cpp ****         sig_        = sample_[idx_] * linEnv_[(uint32_t)(phase_out1_imp * 512)];
 1615              		.loc 1 201 9 is_stmt 1 view .LVU507
 201:granularplayermod.cpp ****         sig_        = sample_[idx_] * linEnv_[(uint32_t)(phase_out1_imp * 512)];
 1616              		.loc 1 201 73 is_stmt 0 view .LVU508
 1617 03c0 5FED027A 		vldr.32	s15, .L100+28
 201:granularplayermod.cpp ****         sig_        = sample_[idx_] * linEnv_[(uint32_t)(phase_out1_imp * 512)];
 1618              		.loc 1 201 23 view .LVU509
 1619 03c4 2268     		ldr	r2, [r4]
 201:granularplayermod.cpp ****         sig_        = sample_[idx_] * linEnv_[(uint32_t)(phase_out1_imp * 512)];
 1620              		.loc 1 201 73 view .LVU510
 1621 03c6 28EE278A 		vmul.f32	s16, s16, s15
 1622              	.LVL93:
 201:granularplayermod.cpp ****         sig_        = sample_[idx_] * linEnv_[(uint32_t)(phase_out1_imp * 512)];
 1623              		.loc 1 201 35 view .LVU511
 1624 03ca D5F83438 		ldr	r3, [r5, #2100]
 202:granularplayermod.cpp ****         sig2_       = sample_[idx2_] * linEnv_[(uint32_t)(phase_out2_imp * 512)];   
 1625              		.loc 1 202 74 view .LVU512
 1626 03ce 68EEA77A 		vmul.f32	s15, s17, s15
 202:granularplayermod.cpp ****         sig2_       = sample_[idx2_] * linEnv_[(uint32_t)(phase_out2_imp * 512)];   
 1627              		.loc 1 202 36 view .LVU513
ARM GAS  /tmp/ccvgZOuh.s 			page 43


 1628 03d2 D5F83808 		ldr	r0, [r5, #2104]
 201:granularplayermod.cpp ****         sig_        = sample_[idx_] * linEnv_[(uint32_t)(phase_out1_imp * 512)];
 1629              		.loc 1 201 35 view .LVU514
 1630 03d6 02EB8301 		add	r1, r2, r3, lsl #2
 201:granularplayermod.cpp ****         sig_        = sample_[idx_] * linEnv_[(uint32_t)(phase_out1_imp * 512)];
 1631              		.loc 1 201 47 view .LVU515
 1632 03da BCEEC87A 		vcvt.u32.f32	s14, s16
 202:granularplayermod.cpp ****         sig2_       = sample_[idx2_] * linEnv_[(uint32_t)(phase_out2_imp * 512)];   
 1633              		.loc 1 202 36 view .LVU516
 1634 03de 02EB8002 		add	r2, r2, r0, lsl #2
 202:granularplayermod.cpp ****         sig2_       = sample_[idx2_] * linEnv_[(uint32_t)(phase_out2_imp * 512)];   
 1635              		.loc 1 202 48 view .LVU517
 1636 03e2 FCEEE77A 		vcvt.u32.f32	s15, s15
 201:granularplayermod.cpp ****         sig_        = sample_[idx_] * linEnv_[(uint32_t)(phase_out1_imp * 512)];
 1637              		.loc 1 201 37 view .LVU518
 1638 03e6 91ED006A 		vldr.32	s12, [r1]
 201:granularplayermod.cpp ****         sig_        = sample_[idx_] * linEnv_[(uint32_t)(phase_out1_imp * 512)];
 1639              		.loc 1 201 21 view .LVU519
 1640 03ea 05F62C01 		addw	r1, r5, #2092
 201:granularplayermod.cpp ****         sig_        = sample_[idx_] * linEnv_[(uint32_t)(phase_out1_imp * 512)];
 1641              		.loc 1 201 47 view .LVU520
 1642 03ee 17EE103A 		vmov	r3, s14	@ int
 201:granularplayermod.cpp ****         sig_        = sample_[idx_] * linEnv_[(uint32_t)(phase_out1_imp * 512)];
 1643              		.loc 1 201 79 view .LVU521
 1644 03f2 03F20623 		addw	r3, r3, #518
 1645 03f6 04EB8303 		add	r3, r4, r3, lsl #2
 201:granularplayermod.cpp ****         sig_        = sample_[idx_] * linEnv_[(uint32_t)(phase_out1_imp * 512)];
 1646              		.loc 1 201 37 view .LVU522
 1647 03fa 93ED017A 		vldr.32	s14, [r3, #4]
 202:granularplayermod.cpp ****         sig2_       = sample_[idx2_] * linEnv_[(uint32_t)(phase_out2_imp * 512)];   
 1648              		.loc 1 202 48 view .LVU523
 1649 03fe 17EE903A 		vmov	r3, s15	@ int
 201:granularplayermod.cpp ****         sig_        = sample_[idx_] * linEnv_[(uint32_t)(phase_out1_imp * 512)];
 1650              		.loc 1 201 37 view .LVU524
 1651 0402 26EE076A 		vmul.f32	s12, s12, s14
 202:granularplayermod.cpp ****         sig2_       = sample_[idx2_] * linEnv_[(uint32_t)(phase_out2_imp * 512)];   
 1652              		.loc 1 202 80 view .LVU525
 1653 0406 03F20623 		addw	r3, r3, #518
 1654              	.L96:
 208:granularplayermod.cpp ****         sig2_       = sample_[idx2_] * adLinEnv_[(uint32_t)(phase_out2_imp * 512)];   
 1655              		.loc 1 208 82 view .LVU526
 1656 040a 04EB8303 		add	r3, r4, r3, lsl #2
 207:granularplayermod.cpp ****         sig_        = sample_[idx_] * adLinEnv_[(uint32_t)(phase_out1_imp * 512)];
 1657              		.loc 1 207 21 view .LVU527
 1658 040e 81ED006A 		vstr.32	s12, [r1]
 208:granularplayermod.cpp ****         sig2_       = sample_[idx2_] * adLinEnv_[(uint32_t)(phase_out2_imp * 512)];   
 1659              		.loc 1 208 9 is_stmt 1 view .LVU528
 208:granularplayermod.cpp ****         sig2_       = sample_[idx2_] * adLinEnv_[(uint32_t)(phase_out2_imp * 512)];   
 1660              		.loc 1 208 38 is_stmt 0 view .LVU529
 1661 0412 D2ED005A 		vldr.32	s11, [r2]
 1662 0416 D3ED017A 		vldr.32	s15, [r3, #4]
 208:granularplayermod.cpp ****         sig2_       = sample_[idx2_] * adLinEnv_[(uint32_t)(phase_out2_imp * 512)];   
 1663              		.loc 1 208 21 view .LVU530
 1664 041a 05F50363 		add	r3, r5, #2096
 208:granularplayermod.cpp ****         sig2_       = sample_[idx2_] * adLinEnv_[(uint32_t)(phase_out2_imp * 512)];   
 1665              		.loc 1 208 38 view .LVU531
 1666 041e 65EEA75A 		vmul.f32	s11, s11, s15
ARM GAS  /tmp/ccvgZOuh.s 			page 44


 208:granularplayermod.cpp ****         sig2_       = sample_[idx2_] * adLinEnv_[(uint32_t)(phase_out2_imp * 512)];   
 1667              		.loc 1 208 21 view .LVU532
 1668 0422 C3ED005A 		vstr.32	s11, [r3]
 1669 0426 6DE7     		b	.L75
 1670              	.LVL94:
 1671              	.L97:
 178:granularplayermod.cpp ****         rand_idx_mod_ = newRandIndex(true);
 1672              		.loc 1 178 9 is_stmt 1 view .LVU533
 1673              	.LBB200:
 1674              	.LBI200:
  99:granularplayermod.cpp **** float GranularPlayerMod::newRandIndex(bool isFirstGrain)
 1675              		.loc 1 99 7 view .LVU534
 1676              	.LBB201:
 107:granularplayermod.cpp ****     float r = static_cast <float> (rand()) / static_cast <float> (RAND_MAX);
 1677              		.loc 1 107 5 view .LVU535
 107:granularplayermod.cpp ****     float r = static_cast <float> (rand()) / static_cast <float> (RAND_MAX);
 1678              		.loc 1 107 40 is_stmt 0 view .LVU536
 1679 0428 FFF7FEFF 		bl	rand
 1680              	.LVL95:
 107:granularplayermod.cpp ****     float r = static_cast <float> (rand()) / static_cast <float> (RAND_MAX);
 1681              		.loc 1 107 40 view .LVU537
 1682 042c 07EE100A 		vmov	s14, r0	@ int
 111:granularplayermod.cpp ****         grain_pan1_ =  0.5 + ((r - 0.5) * spread_);
 1683              		.loc 1 111 43 view .LVU538
 1684 0430 05F6A802 		addw	r2, r5, #2216
 111:granularplayermod.cpp ****         grain_pan1_ =  0.5 + ((r - 0.5) * spread_);
 1685              		.loc 1 111 34 view .LVU539
 1686 0434 B6EE006B 		vmov.f64	d6, #5.0e-1
 107:granularplayermod.cpp ****     float r = static_cast <float> (rand()) / static_cast <float> (RAND_MAX);
 1687              		.loc 1 107 75 discriminator 1 view .LVU540
 1688 0438 BAEEE07A 		vcvt.f32.s32	s14, s14, #31
 1689              	.LVL96:
 110:granularplayermod.cpp ****     if (isFirstGrain) {
 1690              		.loc 1 110 5 is_stmt 1 view .LVU541
 111:granularplayermod.cpp ****         grain_pan1_ =  0.5 + ((r - 0.5) * spread_);
 1691              		.loc 1 111 9 view .LVU542
 118:granularplayermod.cpp ****     float width_in_samples = MsToSamps(width_, sample_rate_);
 1692              		.loc 1 118 39 is_stmt 0 view .LVU543
 1693 043c 05F67C03 		addw	r3, r5, #2172
 111:granularplayermod.cpp ****         grain_pan1_ =  0.5 + ((r - 0.5) * spread_);
 1694              		.loc 1 111 43 view .LVU544
 1695 0440 92ED005A 		vldr.32	s10, [r2]
 117:granularplayermod.cpp ****     float rand_zero_centered = r - 0.5;
 1696              		.loc 1 117 11 view .LVU545
 1697 0444 B6EE003A 		vmov.f32	s6, #5.0e-1
 1698              	.LBB202:
 1699              	.LBB203:
  90:granularplayermod.cpp ****     return (ms * 0.001f) * samplerate;
 1700              		.loc 1 90 26 view .LVU546
 1701 0448 D4ED013A 		vldr.32	s7, [r4, #4]
 1702              	.LBE203:
 1703              	.LBE202:
 111:granularplayermod.cpp ****         grain_pan1_ =  0.5 + ((r - 0.5) * spread_);
 1704              		.loc 1 111 21 view .LVU547
 1705 044c 05F69802 		addw	r2, r5, #2200
 111:granularplayermod.cpp ****         grain_pan1_ =  0.5 + ((r - 0.5) * spread_);
 1706              		.loc 1 111 32 view .LVU548
ARM GAS  /tmp/ccvgZOuh.s 			page 45


 1707 0450 B7EEC74A 		vcvt.f64.f32	d4, s14
 1708              	.LBB208:
 1709              	.LBB204:
  90:granularplayermod.cpp ****     return (ms * 0.001f) * samplerate;
 1710              		.loc 1 90 26 view .LVU549
 1711 0454 D3ED007A 		vldr.32	s15, [r3]
 1712              	.LBE204:
 1713              	.LBE208:
 111:granularplayermod.cpp ****         grain_pan1_ =  0.5 + ((r - 0.5) * spread_);
 1714              		.loc 1 111 43 view .LVU550
 1715 0458 B7EEC55A 		vcvt.f64.f32	d5, s10
 1716              	.LBE201:
 1717              	.LBE200:
 179:granularplayermod.cpp ****         switch1 = false;
 1718              		.loc 1 179 17 view .LVU551
 1719 045c 0023     		movs	r3, #0
 1720              	.LBB213:
 1721              	.LBB212:
 1722              	.LBB209:
 1723              	.LBB205:
  90:granularplayermod.cpp ****     return (ms * 0.001f) * samplerate;
 1724              		.loc 1 90 26 view .LVU552
 1725 045e 67EEA37A 		vmul.f32	s15, s15, s7
  90:granularplayermod.cpp ****     return (ms * 0.001f) * samplerate;
 1726              		.loc 1 90 28 view .LVU553
 1727 0462 5FED2B3A 		vldr.32	s7, .L100+24
 1728              	.LBE205:
 1729              	.LBE209:
 111:granularplayermod.cpp ****         grain_pan1_ =  0.5 + ((r - 0.5) * spread_);
 1730              		.loc 1 111 34 view .LVU554
 1731 0466 34EE464B 		vsub.f64	d4, d4, d6
 117:granularplayermod.cpp ****     float rand_zero_centered = r - 0.5;
 1732              		.loc 1 117 11 view .LVU555
 1733 046a 37EE437A 		vsub.f32	s14, s14, s6
 1734              	.LVL97:
 1735              	.LBB210:
 1736              	.LBB206:
  90:granularplayermod.cpp ****     return (ms * 0.001f) * samplerate;
 1737              		.loc 1 90 28 view .LVU556
 1738 046e 67EEA37A 		vmul.f32	s15, s15, s7
 1739              	.LBE206:
 1740              	.LBE210:
 111:granularplayermod.cpp ****         grain_pan1_ =  0.5 + ((r - 0.5) * spread_);
 1741              		.loc 1 111 28 view .LVU557
 1742 0472 A4EE056B 		vfma.f64	d6, d4, d5
 121:granularplayermod.cpp ****     float rand_idx_in_samples_float = width_in_samples * rand_zero_centered;
 1743              		.loc 1 121 11 view .LVU558
 1744 0476 67EE877A 		vmul.f32	s15, s15, s14
 111:granularplayermod.cpp ****         grain_pan1_ =  0.5 + ((r - 0.5) * spread_);
 1745              		.loc 1 111 28 view .LVU559
 1746 047a B7EEC66B 		vcvt.f32.f64	s12, d6
 1747 047e 82ED006A 		vstr.32	s12, [r2]
 117:granularplayermod.cpp ****     float rand_zero_centered = r - 0.5;
 1748              		.loc 1 117 5 is_stmt 1 view .LVU560
 1749              	.LVL98:
 118:granularplayermod.cpp ****     float width_in_samples = MsToSamps(width_, sample_rate_);
 1750              		.loc 1 118 5 view .LVU561
ARM GAS  /tmp/ccvgZOuh.s 			page 46


 1751              	.LBB211:
 1752              	.LBI202:
  87:granularplayermod.cpp **** float GranularPlayerMod::MsToSamps(float ms, float samplerate)
 1753              		.loc 1 87 7 view .LVU562
 1754              	.LBB207:
  90:granularplayermod.cpp ****     return (ms * 0.001f) * samplerate;
 1755              		.loc 1 90 5 view .LVU563
  90:granularplayermod.cpp ****     return (ms * 0.001f) * samplerate;
 1756              		.loc 1 90 5 is_stmt 0 view .LVU564
 1757              	.LBE207:
 1758              	.LBE211:
 121:granularplayermod.cpp ****     float rand_idx_in_samples_float = width_in_samples * rand_zero_centered;
 1759              		.loc 1 121 5 is_stmt 1 view .LVU565
 123:granularplayermod.cpp ****     return rand_idx_in_samples_float;
 1760              		.loc 1 123 5 view .LVU566
 123:granularplayermod.cpp ****     return rand_idx_in_samples_float;
 1761              		.loc 1 123 5 is_stmt 0 view .LVU567
 1762              	.LBE212:
 1763              	.LBE213:
 178:granularplayermod.cpp ****         rand_idx_mod_ = newRandIndex(true);
 1764              		.loc 1 178 23 discriminator 1 view .LVU568
 1765 0482 C8ED007A 		vstr.32	s15, [r8]
 179:granularplayermod.cpp ****         switch1 = false;
 1766              		.loc 1 179 9 is_stmt 1 view .LVU569
 179:granularplayermod.cpp ****         switch1 = false;
 1767              		.loc 1 179 17 is_stmt 0 view .LVU570
 1768 0486 85F89038 		strb	r3, [r5, #2192]
 181:granularplayermod.cpp ****     if (phase_out1_imp > 0.9)
 1769              		.loc 1 181 5 is_stmt 1 view .LVU571
 1770 048a CBE6     		b	.L66
 1771              	.LVL99:
 1772              	.L70:
 186:granularplayermod.cpp ****         rand_idx_mod2_ = newRandIndex(false);
 1773              		.loc 1 186 9 view .LVU572
 1774              	.LBB214:
 1775              	.LBI214:
  99:granularplayermod.cpp **** float GranularPlayerMod::newRandIndex(bool isFirstGrain)
 1776              		.loc 1 99 7 view .LVU573
 1777              	.LBB215:
 107:granularplayermod.cpp ****     float r = static_cast <float> (rand()) / static_cast <float> (RAND_MAX);
 1778              		.loc 1 107 5 view .LVU574
 107:granularplayermod.cpp ****     float r = static_cast <float> (rand()) / static_cast <float> (RAND_MAX);
 1779              		.loc 1 107 40 is_stmt 0 view .LVU575
 1780 048c FFF7FEFF 		bl	rand
 1781              	.LVL100:
 1782 0490 07EE100A 		vmov	s14, r0	@ int
 113:granularplayermod.cpp ****         grain_pan2_ =  0.5 + ((r - 0.5) * spread_);
 1783              		.loc 1 113 43 view .LVU576
 1784 0494 05F6A802 		addw	r2, r5, #2216
 113:granularplayermod.cpp ****         grain_pan2_ =  0.5 + ((r - 0.5) * spread_);
 1785              		.loc 1 113 34 view .LVU577
 1786 0498 B6EE006B 		vmov.f64	d6, #5.0e-1
 107:granularplayermod.cpp ****     float r = static_cast <float> (rand()) / static_cast <float> (RAND_MAX);
 1787              		.loc 1 107 75 discriminator 1 view .LVU578
 1788 049c BAEEE07A 		vcvt.f32.s32	s14, s14, #31
 1789              	.LVL101:
 110:granularplayermod.cpp ****     if (isFirstGrain) {
ARM GAS  /tmp/ccvgZOuh.s 			page 47


 1790              		.loc 1 110 5 is_stmt 1 view .LVU579
 113:granularplayermod.cpp ****         grain_pan2_ =  0.5 + ((r - 0.5) * spread_);
 1791              		.loc 1 113 9 view .LVU580
 118:granularplayermod.cpp ****     float width_in_samples = MsToSamps(width_, sample_rate_);
 1792              		.loc 1 118 39 is_stmt 0 view .LVU581
 1793 04a0 05F67C03 		addw	r3, r5, #2172
 113:granularplayermod.cpp ****         grain_pan2_ =  0.5 + ((r - 0.5) * spread_);
 1794              		.loc 1 113 43 view .LVU582
 1795 04a4 92ED005A 		vldr.32	s10, [r2]
 117:granularplayermod.cpp ****     float rand_zero_centered = r - 0.5;
 1796              		.loc 1 117 11 view .LVU583
 1797 04a8 B6EE003A 		vmov.f32	s6, #5.0e-1
 1798              	.LBB216:
 1799              	.LBB217:
  90:granularplayermod.cpp ****     return (ms * 0.001f) * samplerate;
 1800              		.loc 1 90 26 view .LVU584
 1801 04ac D4ED013A 		vldr.32	s7, [r4, #4]
 1802              	.LBE217:
 1803              	.LBE216:
 113:granularplayermod.cpp ****         grain_pan2_ =  0.5 + ((r - 0.5) * spread_);
 1804              		.loc 1 113 21 view .LVU585
 1805 04b0 05F69C02 		addw	r2, r5, #2204
 113:granularplayermod.cpp ****         grain_pan2_ =  0.5 + ((r - 0.5) * spread_);
 1806              		.loc 1 113 32 view .LVU586
 1807 04b4 B7EEC74A 		vcvt.f64.f32	d4, s14
 1808              	.LBB222:
 1809              	.LBB218:
  90:granularplayermod.cpp ****     return (ms * 0.001f) * samplerate;
 1810              		.loc 1 90 26 view .LVU587
 1811 04b8 D3ED007A 		vldr.32	s15, [r3]
 1812              	.LBE218:
 1813              	.LBE222:
 113:granularplayermod.cpp ****         grain_pan2_ =  0.5 + ((r - 0.5) * spread_);
 1814              		.loc 1 113 43 view .LVU588
 1815 04bc B7EEC55A 		vcvt.f64.f32	d5, s10
 1816              	.LBE215:
 1817              	.LBE214:
 186:granularplayermod.cpp ****         rand_idx_mod2_ = newRandIndex(false);
 1818              		.loc 1 186 24 discriminator 1 view .LVU589
 1819 04c0 05F68403 		addw	r3, r5, #2180
 1820              	.LBB228:
 1821              	.LBB226:
 1822              	.LBB223:
 1823              	.LBB219:
  90:granularplayermod.cpp ****     return (ms * 0.001f) * samplerate;
 1824              		.loc 1 90 26 view .LVU590
 1825 04c4 67EEA37A 		vmul.f32	s15, s15, s7
  90:granularplayermod.cpp ****     return (ms * 0.001f) * samplerate;
 1826              		.loc 1 90 28 view .LVU591
 1827 04c8 5FED453A 		vldr.32	s7, .L100+24
 1828              	.LBE219:
 1829              	.LBE223:
 113:granularplayermod.cpp ****         grain_pan2_ =  0.5 + ((r - 0.5) * spread_);
 1830              		.loc 1 113 34 view .LVU592
 1831 04cc 34EE464B 		vsub.f64	d4, d4, d6
 1832              	.LBE226:
 1833              	.LBE228:
ARM GAS  /tmp/ccvgZOuh.s 			page 48


 187:granularplayermod.cpp ****         switch2 = false;
 1834              		.loc 1 187 17 view .LVU593
 1835 04d0 0021     		movs	r1, #0
 1836              	.LBB229:
 1837              	.LBB227:
 117:granularplayermod.cpp ****     float rand_zero_centered = r - 0.5;
 1838              		.loc 1 117 11 view .LVU594
 1839 04d2 37EE437A 		vsub.f32	s14, s14, s6
 1840              	.LVL102:
 1841              	.LBB224:
 1842              	.LBB220:
  90:granularplayermod.cpp ****     return (ms * 0.001f) * samplerate;
 1843              		.loc 1 90 28 view .LVU595
 1844 04d6 67EEA37A 		vmul.f32	s15, s15, s7
 1845              	.LBE220:
 1846              	.LBE224:
 113:granularplayermod.cpp ****         grain_pan2_ =  0.5 + ((r - 0.5) * spread_);
 1847              		.loc 1 113 28 view .LVU596
 1848 04da A4EE056B 		vfma.f64	d6, d4, d5
 121:granularplayermod.cpp ****     float rand_idx_in_samples_float = width_in_samples * rand_zero_centered;
 1849              		.loc 1 121 11 view .LVU597
 1850 04de 67EE877A 		vmul.f32	s15, s15, s14
 113:granularplayermod.cpp ****         grain_pan2_ =  0.5 + ((r - 0.5) * spread_);
 1851              		.loc 1 113 28 view .LVU598
 1852 04e2 F7EEC66B 		vcvt.f32.f64	s13, d6
 113:granularplayermod.cpp ****         grain_pan2_ =  0.5 + ((r - 0.5) * spread_);
 1853              		.loc 1 113 21 view .LVU599
 1854 04e6 C2ED006A 		vstr.32	s13, [r2]
 117:granularplayermod.cpp ****     float rand_zero_centered = r - 0.5;
 1855              		.loc 1 117 5 is_stmt 1 view .LVU600
 1856              	.LVL103:
 118:granularplayermod.cpp ****     float width_in_samples = MsToSamps(width_, sample_rate_);
 1857              		.loc 1 118 5 view .LVU601
 1858              	.LBB225:
 1859              	.LBI216:
  87:granularplayermod.cpp **** float GranularPlayerMod::MsToSamps(float ms, float samplerate)
 1860              		.loc 1 87 7 view .LVU602
 1861              	.LBB221:
  90:granularplayermod.cpp ****     return (ms * 0.001f) * samplerate;
 1862              		.loc 1 90 5 view .LVU603
  90:granularplayermod.cpp ****     return (ms * 0.001f) * samplerate;
 1863              		.loc 1 90 5 is_stmt 0 view .LVU604
 1864              	.LBE221:
 1865              	.LBE225:
 121:granularplayermod.cpp ****     float rand_idx_in_samples_float = width_in_samples * rand_zero_centered;
 1866              		.loc 1 121 5 is_stmt 1 view .LVU605
 123:granularplayermod.cpp ****     return rand_idx_in_samples_float;
 1867              		.loc 1 123 5 view .LVU606
 123:granularplayermod.cpp ****     return rand_idx_in_samples_float;
 1868              		.loc 1 123 5 is_stmt 0 view .LVU607
 1869              	.LBE227:
 1870              	.LBE229:
 186:granularplayermod.cpp ****         rand_idx_mod2_ = newRandIndex(false);
 1871              		.loc 1 186 24 discriminator 1 view .LVU608
 1872 04ea C3ED007A 		vstr.32	s15, [r3]
 187:granularplayermod.cpp ****         switch2 = false;
 1873              		.loc 1 187 9 is_stmt 1 view .LVU609
ARM GAS  /tmp/ccvgZOuh.s 			page 49


 187:granularplayermod.cpp ****         switch2 = false;
 1874              		.loc 1 187 17 is_stmt 0 view .LVU610
 1875 04ee 85F89118 		strb	r1, [r5, #2193]
 189:granularplayermod.cpp ****     if (phase_out2_imp > 0.9)
 1876              		.loc 1 189 5 is_stmt 1 view .LVU611
 1877 04f2 D4E6     		b	.L71
 1878              	.LVL104:
 1879              	.L77:
 207:granularplayermod.cpp ****         sig_        = sample_[idx_] * adLinEnv_[(uint32_t)(phase_out1_imp * 512)];
 1880              		.loc 1 207 9 view .LVU612
 207:granularplayermod.cpp ****         sig_        = sample_[idx_] * adLinEnv_[(uint32_t)(phase_out1_imp * 512)];
 1881              		.loc 1 207 75 is_stmt 0 view .LVU613
 1882 04f4 5FED4F7A 		vldr.32	s15, .L100+28
 207:granularplayermod.cpp ****         sig_        = sample_[idx_] * adLinEnv_[(uint32_t)(phase_out1_imp * 512)];
 1883              		.loc 1 207 23 view .LVU614
 1884 04f8 2268     		ldr	r2, [r4]
 207:granularplayermod.cpp ****         sig_        = sample_[idx_] * adLinEnv_[(uint32_t)(phase_out1_imp * 512)];
 1885              		.loc 1 207 75 view .LVU615
 1886 04fa 28EE278A 		vmul.f32	s16, s16, s15
 1887              	.LVL105:
 207:granularplayermod.cpp ****         sig_        = sample_[idx_] * adLinEnv_[(uint32_t)(phase_out1_imp * 512)];
 1888              		.loc 1 207 35 view .LVU616
 1889 04fe D5F83438 		ldr	r3, [r5, #2100]
 208:granularplayermod.cpp ****         sig2_       = sample_[idx2_] * adLinEnv_[(uint32_t)(phase_out2_imp * 512)];   
 1890              		.loc 1 208 76 view .LVU617
 1891 0502 28EEA70A 		vmul.f32	s0, s17, s15
 208:granularplayermod.cpp ****         sig2_       = sample_[idx2_] * adLinEnv_[(uint32_t)(phase_out2_imp * 512)];   
 1892              		.loc 1 208 36 view .LVU618
 1893 0506 D5F83808 		ldr	r0, [r5, #2104]
 207:granularplayermod.cpp ****         sig_        = sample_[idx_] * adLinEnv_[(uint32_t)(phase_out1_imp * 512)];
 1894              		.loc 1 207 35 view .LVU619
 1895 050a 02EB8301 		add	r1, r2, r3, lsl #2
 207:granularplayermod.cpp ****         sig_        = sample_[idx_] * adLinEnv_[(uint32_t)(phase_out1_imp * 512)];
 1896              		.loc 1 207 49 view .LVU620
 1897 050e FCEEC87A 		vcvt.u32.f32	s15, s16
 208:granularplayermod.cpp ****         sig2_       = sample_[idx2_] * adLinEnv_[(uint32_t)(phase_out2_imp * 512)];   
 1898              		.loc 1 208 36 view .LVU621
 1899 0512 02EB8002 		add	r2, r2, r0, lsl #2
 207:granularplayermod.cpp ****         sig_        = sample_[idx_] * adLinEnv_[(uint32_t)(phase_out1_imp * 512)];
 1900              		.loc 1 207 37 view .LVU622
 1901 0516 91ED006A 		vldr.32	s12, [r1]
 207:granularplayermod.cpp ****         sig_        = sample_[idx_] * adLinEnv_[(uint32_t)(phase_out1_imp * 512)];
 1902              		.loc 1 207 21 view .LVU623
 1903 051a 05F62C01 		addw	r1, r5, #2092
 207:granularplayermod.cpp ****         sig_        = sample_[idx_] * adLinEnv_[(uint32_t)(phase_out1_imp * 512)];
 1904              		.loc 1 207 49 view .LVU624
 1905 051e 17EE903A 		vmov	r3, s15	@ int
 207:granularplayermod.cpp ****         sig_        = sample_[idx_] * adLinEnv_[(uint32_t)(phase_out1_imp * 512)];
 1906              		.loc 1 207 81 view .LVU625
 1907 0522 03F20643 		addw	r3, r3, #1030
 1908 0526 04EB8303 		add	r3, r4, r3, lsl #2
 207:granularplayermod.cpp ****         sig_        = sample_[idx_] * adLinEnv_[(uint32_t)(phase_out1_imp * 512)];
 1909              		.loc 1 207 37 view .LVU626
 1910 052a D3ED017A 		vldr.32	s15, [r3, #4]
 1911 052e 26EE276A 		vmul.f32	s12, s12, s15
 208:granularplayermod.cpp ****         sig2_       = sample_[idx2_] * adLinEnv_[(uint32_t)(phase_out2_imp * 512)];   
 1912              		.loc 1 208 50 view .LVU627
ARM GAS  /tmp/ccvgZOuh.s 			page 50


 1913 0532 FCEEC07A 		vcvt.u32.f32	s15, s0
 1914 0536 17EE903A 		vmov	r3, s15	@ int
 208:granularplayermod.cpp ****         sig2_       = sample_[idx2_] * adLinEnv_[(uint32_t)(phase_out2_imp * 512)];   
 1915              		.loc 1 208 82 view .LVU628
 1916 053a 03F20643 		addw	r3, r3, #1030
 1917 053e 64E7     		b	.L96
 1918              		.cfi_endproc
 1919              	.LFE4894:
 1921              		.text
 1922              	.Letext0:
 1923              		.file 4 "/usr/arm-none-eabi/include/machine/_default_types.h"
 1924              		.file 5 "/usr/arm-none-eabi/include/sys/_stdint.h"
 1925              		.file 6 "/usr/arm-none-eabi/include/stdint.h"
 1926              		.file 7 "/usr/lib/gcc/arm-none-eabi/15.2.0/include/stddef.h"
 1927              		.file 8 "/usr/arm-none-eabi/include/c++/15.2.0/type_traits"
 1928              		.file 9 "/usr/arm-none-eabi/include/c++/15.2.0/concepts"
 1929              		.file 10 "/usr/arm-none-eabi/include/c++/15.2.0/bits/iterator_concepts.h"
 1930              		.file 11 "/usr/arm-none-eabi/include/c++/15.2.0/bits/utility.h"
 1931              		.file 12 "/usr/arm-none-eabi/include/c++/15.2.0/compare"
 1932              		.file 13 "/usr/arm-none-eabi/include/c++/15.2.0/debug/debug.h"
 1933              		.file 14 "/usr/arm-none-eabi/include/c++/15.2.0/bits/std_abs.h"
 1934              		.file 15 "/usr/arm-none-eabi/include/c++/15.2.0/cstdint"
 1935              		.file 16 "/usr/arm-none-eabi/include/c++/15.2.0/cstdlib"
 1936              		.file 17 "/usr/arm-none-eabi/include/c++/15.2.0/cwchar"
 1937              		.file 18 "/usr/arm-none-eabi/include/c++/15.2.0/clocale"
 1938              		.file 19 "/usr/arm-none-eabi/include/c++/15.2.0/numbers"
 1939              		.file 20 "/usr/arm-none-eabi/include/c++/15.2.0/cstdio"
 1940              		.file 21 "/usr/arm-none-eabi/include/c++/15.2.0/arm-none-eabi/thumb/v7e-m+dp/hard/bits/c++config.h
 1941              		.file 22 "/usr/arm-none-eabi/include/c++/15.2.0/cstddef"
 1942              		.file 23 "/usr/arm-none-eabi/include/c++/15.2.0/cstring"
 1943              		.file 24 "/usr/arm-none-eabi/include/c++/15.2.0/bits/predefined_ops.h"
 1944              		.file 25 "/usr/arm-none-eabi/include/sys/_types.h"
 1945              		.file 26 "/usr/arm-none-eabi/include/sys/reent.h"
 1946              		.file 27 "/usr/arm-none-eabi/include/sys/lock.h"
 1947              		.file 28 "/usr/arm-none-eabi/include/math.h"
 1948              		.file 29 "/usr/arm-none-eabi/include/stdlib.h"
 1949              		.file 30 "/usr/arm-none-eabi/include/c++/15.2.0/bits/ptr_traits.h"
 1950              		.file 31 "/usr/arm-none-eabi/include/c++/15.2.0/math.h"
 1951              		.file 32 "../../DaisySP/Source/Control/adenv.h"
 1952              		.file 33 "../../DaisySP/Source/Utility/dsp.h"
 1953              		.file 34 "/usr/lib/gcc/arm-none-eabi/15.2.0/include/stdarg.h"
 1954              		.file 35 "/usr/arm-none-eabi/include/wchar.h"
 1955              		.file 36 "/usr/arm-none-eabi/include/locale.h"
 1956              		.file 37 "/usr/arm-none-eabi/include/stdio.h"
 1957              		.file 38 "/usr/arm-none-eabi/include/c++/15.2.0/pstl/execution_defs.h"
 1958              		.file 39 "/usr/arm-none-eabi/include/c++/15.2.0/stdlib.h"
 1959              		.file 40 "/usr/arm-none-eabi/include/string.h"
 1960              		.file 41 "granularplayermod.h"
 1961              		.file 42 "/usr/arm-none-eabi/include/c++/15.2.0/bits/memory_resource.h"
 1962              		.file 43 "<built-in>"
ARM GAS  /tmp/ccvgZOuh.s 			page 51

