ARM GAS  /tmp/ccwR8Rt4.s 			page 1


   1              		.cpu cortex-m7
   2              		.arch armv7e-m
   3              		.fpu fpv5-d16
   4              		.eabi_attribute 28, 1
   5              		.eabi_attribute 20, 1
   6              		.eabi_attribute 21, 1
   7              		.eabi_attribute 23, 3
   8              		.eabi_attribute 24, 1
   9              		.eabi_attribute 25, 1
  10              		.eabi_attribute 26, 1
  11              		.eabi_attribute 30, 2
  12              		.eabi_attribute 34, 1
  13              		.eabi_attribute 18, 4
  14              		.file	"audio_utilities.cpp"
  15              		.text
  16              	.Ltext0:
  17              		.cfi_sections	.debug_frame
  18              		.file 1 "Util/audio_utilities.cpp"
  19              		.section	.text._Z13tempo_to_freqm,"ax",%progbits
  20              		.align	1
  21              		.p2align 2,,3
  22              		.global	_Z13tempo_to_freqm
  23              		.syntax unified
  24              		.thumb
  25              		.thumb_func
  27              	_Z13tempo_to_freqm:
  28              	.LVL0:
  29              	.LFB1475:
   1:Util/audio_utilities.cpp **** #include "audio_utilities.h"
   2:Util/audio_utilities.cpp **** 
   3:Util/audio_utilities.cpp **** float tempo_to_freq(uint32_t tempo) { return static_cast<float>(tempo) / 60.0f; }
  30              		.loc 1 3 37 view -0
  31              		.cfi_startproc
  32              		@ args = 0, pretend = 0, frame = 0
  33              		@ frame_needed = 0, uses_anonymous_args = 0
  34              		@ link register save eliminated.
  35              		.loc 1 3 39 view .LVU1
  36              		.loc 1 3 37 is_stmt 0 view .LVU2
  37 0000 07EE900A 		vmov	s15, r0	@ int
  38              		.loc 1 3 74 view .LVU3
  39 0004 9FED030A 		vldr.32	s0, .L3
  40              		.loc 1 3 46 view .LVU4
  41 0008 F8EE677A 		vcvt.f32.u32	s15, s15
  42              		.loc 1 3 81 view .LVU5
  43 000c 87EE800A 		vdiv.f32	s0, s15, s0
  44 0010 7047     		bx	lr
  45              	.L4:
  46 0012 00BF     		.align	2
  47              	.L3:
  48 0014 00007042 		.word	1114636288
  49              		.cfi_endproc
  50              	.LFE1475:
  52              		.section	.text._Z13freq_to_tempof,"ax",%progbits
  53              		.align	1
  54              		.p2align 2,,3
  55              		.global	_Z13freq_to_tempof
  56              		.syntax unified
ARM GAS  /tmp/ccwR8Rt4.s 			page 2


  57              		.thumb
  58              		.thumb_func
  60              	_Z13freq_to_tempof:
  61              	.LVL1:
  62              	.LFB1476:
   4:Util/audio_utilities.cpp **** 
   5:Util/audio_utilities.cpp **** uint32_t freq_to_tempo(float freq) { return freq * 60.0f; }
  63              		.loc 1 5 36 is_stmt 1 view -0
  64              		.cfi_startproc
  65              		@ args = 0, pretend = 0, frame = 0
  66              		@ frame_needed = 0, uses_anonymous_args = 0
  67              		@ link register save eliminated.
  68              		.loc 1 5 38 view .LVU7
  69              		.loc 1 5 50 is_stmt 0 view .LVU8
  70 0000 DFED047A 		vldr.32	s15, .L6
  71 0004 20EE270A 		vmul.f32	s0, s0, s15
  72              	.LVL2:
  73              		.loc 1 5 59 view .LVU9
  74 0008 FCEEC07A 		vcvt.u32.f32	s15, s0
  75 000c 17EE900A 		vmov	r0, s15	@ int
  76 0010 7047     		bx	lr
  77              	.L7:
  78 0012 00BF     		.align	2
  79              	.L6:
  80 0014 00007042 		.word	1114636288
  81              		.cfi_endproc
  82              	.LFE1476:
  84              		.section	.text._Z11ms_to_tempom,"ax",%progbits
  85              		.align	1
  86              		.p2align 2,,3
  87              		.global	_Z11ms_to_tempom
  88              		.syntax unified
  89              		.thumb
  90              		.thumb_func
  92              	_Z11ms_to_tempom:
  93              	.LVL3:
  94              	.LFB1477:
   6:Util/audio_utilities.cpp **** 
   7:Util/audio_utilities.cpp **** uint32_t ms_to_tempo(uint32_t ms) { return 60000 / ms; }
  95              		.loc 1 7 35 is_stmt 1 view -0
  96              		.cfi_startproc
  97              		@ args = 0, pretend = 0, frame = 0
  98              		@ frame_needed = 0, uses_anonymous_args = 0
  99              		@ link register save eliminated.
 100              		.loc 1 7 37 view .LVU11
 101              		.loc 1 7 52 is_stmt 0 view .LVU12
 102 0000 4EF66023 		movw	r3, #60000
 103              		.loc 1 7 56 view .LVU13
 104 0004 B3FBF0F0 		udiv	r0, r3, r0
 105              	.LVL4:
 106              		.loc 1 7 56 view .LVU14
 107 0008 7047     		bx	lr
 108              		.cfi_endproc
 109              	.LFE1477:
 111 000a 00BF     		.section	.text._Z10s_to_tempof,"ax",%progbits
 112              		.align	1
 113              		.p2align 2,,3
ARM GAS  /tmp/ccwR8Rt4.s 			page 3


 114              		.global	_Z10s_to_tempof
 115              		.syntax unified
 116              		.thumb
 117              		.thumb_func
 119              	_Z10s_to_tempof:
 120              	.LVL5:
 121              	.LFB1478:
   8:Util/audio_utilities.cpp **** 
   9:Util/audio_utilities.cpp **** uint32_t s_to_tempo(float seconds) { return 60 / seconds; }...
 122              		.loc 1 9 36 is_stmt 1 view -0
 123              		.cfi_startproc
 124              		@ args = 0, pretend = 0, frame = 0
 125              		@ frame_needed = 0, uses_anonymous_args = 0
 126              		@ link register save eliminated.
 127              		.loc 1 9 38 view .LVU16
 128              		.loc 1 9 48 is_stmt 0 view .LVU17
 129 0000 9FED047A 		vldr.32	s14, .L10
 130 0004 C7EE007A 		vdiv.f32	s15, s14, s0
 131              		.loc 1 9 59 view .LVU18
 132 0008 FCEEE77A 		vcvt.u32.f32	s15, s15
 133 000c 17EE900A 		vmov	r0, s15	@ int
 134 0010 7047     		bx	lr
 135              	.L11:
 136 0012 00BF     		.align	2
 137              	.L10:
 138 0014 00007042 		.word	1114636288
 139              		.cfi_endproc
 140              	.LFE1478:
 142              		.text
 143              	.Letext0:
 144              		.file 2 "/usr/arm-none-eabi/include/machine/_default_types.h"
 145              		.file 3 "/usr/arm-none-eabi/include/sys/_stdint.h"
 146              		.file 4 "/usr/arm-none-eabi/include/c++/15.2.0/type_traits"
 147              		.file 5 "/usr/arm-none-eabi/include/c++/15.2.0/cmath"
 148              		.file 6 "/usr/arm-none-eabi/include/c++/15.2.0/concepts"
 149              		.file 7 "/usr/arm-none-eabi/include/c++/15.2.0/bits/iterator_concepts.h"
 150              		.file 8 "/usr/arm-none-eabi/include/c++/15.2.0/compare"
 151              		.file 9 "/usr/arm-none-eabi/include/c++/15.2.0/debug/debug.h"
 152              		.file 10 "/usr/arm-none-eabi/include/c++/15.2.0/bits/std_abs.h"
 153              		.file 11 "/usr/arm-none-eabi/include/c++/15.2.0/bits/utility.h"
 154              		.file 12 "/usr/arm-none-eabi/include/c++/15.2.0/arm-none-eabi/thumb/v7e-m+dp/hard/bits/c++config.h
 155              		.file 13 "/usr/arm-none-eabi/include/c++/15.2.0/bits/predefined_ops.h"
 156              		.file 14 "/usr/arm-none-eabi/include/math.h"
 157              		.file 15 "/usr/arm-none-eabi/include/c++/15.2.0/bits/ptr_traits.h"
 158              		.file 16 "/usr/arm-none-eabi/include/c++/15.2.0/math.h"
ARM GAS  /tmp/ccwR8Rt4.s 			page 4

