ARM GAS  /tmp/cc3dlQC7.s 			page 1


   1              		.cpu cortex-m7
   2              		.arch armv7e-m
   3              		.fpu fpv5-d16
   4              		.eabi_attribute 28, 1
   5              		.eabi_attribute 20, 1
   6              		.eabi_attribute 21, 1
   7              		.eabi_attribute 23, 3
   8              		.eabi_attribute 24, 1
   9              		.eabi_attribute 25, 1
  10              		.eabi_attribute 26, 1
  11              		.eabi_attribute 30, 2
  12              		.eabi_attribute 34, 1
  13              		.eabi_attribute 18, 4
  14              		.file	"base_effect_module.cpp"
  15              		.text
  16              	.Ltext0:
  17              		.cfi_sections	.debug_frame
  18              		.file 1 "Util/base_effect_module.cpp"
  19              		.section	.text._ZNK10bkshepherd16BaseEffectModule27AlternateFootswitchForTempoEv,"axG",%progbits,_
  20              		.align	1
  21              		.p2align 2,,3
  22              		.weak	_ZNK10bkshepherd16BaseEffectModule27AlternateFootswitchForTempoEv
  23              		.syntax unified
  24              		.thumb
  25              		.thumb_func
  27              	_ZNK10bkshepherd16BaseEffectModule27AlternateFootswitchForTempoEv:
  28              	.LVL0:
  29              	.LFB3531:
  30              		.file 2 "Util/base_effect_module.h"
   1:Util/base_effect_module.h **** #pragma once
   2:Util/base_effect_module.h **** #ifndef BASE_EFFECT_MODULE_H
   3:Util/base_effect_module.h **** #define BASE_EFFECT_MODULE_H
   4:Util/base_effect_module.h **** 
   5:Util/base_effect_module.h **** #include "daisy_seed.h"
   6:Util/base_effect_module.h **** #include <stdint.h>
   7:Util/base_effect_module.h **** #ifdef __cplusplus
   8:Util/base_effect_module.h **** 
   9:Util/base_effect_module.h **** /** @file base_effect_module.h */
  10:Util/base_effect_module.h **** 
  11:Util/base_effect_module.h **** using namespace daisy;
  12:Util/base_effect_module.h **** 
  13:Util/base_effect_module.h **** namespace bkshepherd {
  14:Util/base_effect_module.h **** 
  15:Util/base_effect_module.h **** /** Parameter Value Types */
  16:Util/base_effect_module.h **** enum ParameterValueType {
  17:Util/base_effect_module.h ****     Raw,    // Raw 32bit Unsigned Int Parameter Value
  18:Util/base_effect_module.h ****     Float,  // Float Value
  19:Util/base_effect_module.h ****     Bool,   // Boolean Value
  20:Util/base_effect_module.h ****     Binned, // Binned Value (1 to valueBinCount)
  21:Util/base_effect_module.h ****     Unknown,
  22:Util/base_effect_module.h **** };
  23:Util/base_effect_module.h **** 
  24:Util/base_effect_module.h **** union ParameterValue {
  25:Util/base_effect_module.h ****     uint32_t uint_value;
  26:Util/base_effect_module.h ****     float float_value;
  27:Util/base_effect_module.h **** };
  28:Util/base_effect_module.h **** 
ARM GAS  /tmp/cc3dlQC7.s 			page 2


  29:Util/base_effect_module.h **** enum ParameterValueCurve {
  30:Util/base_effect_module.h ****     Linear,
  31:Util/base_effect_module.h ****     Log,
  32:Util/base_effect_module.h ****     InverseLog,
  33:Util/base_effect_module.h **** };
  34:Util/base_effect_module.h **** 
  35:Util/base_effect_module.h **** // Meta data for an individual Effect Parameter.  Effects may have zero or more Parameters.
  36:Util/base_effect_module.h **** // This data structure contains information about the Effect Parameter.
  37:Util/base_effect_module.h **** struct ParameterMetaData {
  38:Util/base_effect_module.h ****     const char *name;             // The Name of this Parameter that gets displayed on the Screen w
  39:Util/base_effect_module.h ****     ParameterValueType valueType; // The Type of this Parameter value.
  40:Util/base_effect_module.h ****     ParameterValueCurve valueCurve =
  41:Util/base_effect_module.h ****         ParameterValueCurve::Linear; // The curve used to move between the min and max value for th
  42:Util/base_effect_module.h ****     int valueBinCount;               // The number of distinct choices allowed for this parameter v
  43:Util/base_effect_module.h ****     const char **valueBinNames;      // The human readable display names for the bins
  44:Util/base_effect_module.h ****     ParameterValue defaultValue;     // The Raw Default Value set for this parameter the first time
  45:Util/base_effect_module.h ****     int knobMapping;   // The ID of the Physical Knob mapped to this Parameter. -1 if this Paramete
  46:Util/base_effect_module.h ****     int midiCCMapping; // The Midi CC ID mapped to this Parameter. -1 of this Parameter is not cont
  47:Util/base_effect_module.h ****     int minValue = 0;  // The minimum value of the parameter
  48:Util/base_effect_module.h ****     int maxValue = 1;  // The maximum value of the parameter
  49:Util/base_effect_module.h ****     float fineStepSize = 0.01f; // For Float Parameters, this will set the fineStepSize multiple in
  50:Util/base_effect_module.h **** };
  51:Util/base_effect_module.h **** 
  52:Util/base_effect_module.h **** class BaseEffectModule {
  53:Util/base_effect_module.h ****   public:
  54:Util/base_effect_module.h ****     BaseEffectModule();
  55:Util/base_effect_module.h ****     virtual ~BaseEffectModule();
  56:Util/base_effect_module.h **** 
  57:Util/base_effect_module.h ****     /** Initializes the module
  58:Util/base_effect_module.h ****         \param sample_rate  The sample rate of the audio engine being run.
  59:Util/base_effect_module.h ****     */
  60:Util/base_effect_module.h ****     virtual void Init(float sample_rate);
  61:Util/base_effect_module.h **** 
  62:Util/base_effect_module.h ****     /** Gets the Name of the Effect to display
  63:Util/base_effect_module.h ****         \return Value Name of the Effect
  64:Util/base_effect_module.h ****     */
  65:Util/base_effect_module.h ****     const char *GetName();
  66:Util/base_effect_module.h **** 
  67:Util/base_effect_module.h ****     /** Gets the total number of Effect Parameters
  68:Util/base_effect_module.h ****      \return the number of parameters for this effect.
  69:Util/base_effect_module.h ****     */
  70:Util/base_effect_module.h ****     uint16_t GetParameterCount() const;
  71:Util/base_effect_module.h **** 
  72:Util/base_effect_module.h ****     /** Gets the total number of stored presets for this effect
  73:Util/base_effect_module.h ****      \return the number of presets for this effect.
  74:Util/base_effect_module.h ****     */
  75:Util/base_effect_module.h ****     uint16_t GetPresetCount() const;
  76:Util/base_effect_module.h **** 
  77:Util/base_effect_module.h ****     /** Sets the total number of stored presets for this effect, called by guitar_pedal_storage
  78:Util/base_effect_module.h ****      \param the number of presets for this effect.
  79:Util/base_effect_module.h ****     */
  80:Util/base_effect_module.h ****     void SetPresetCount(uint16_t preset_count);
  81:Util/base_effect_module.h **** 
  82:Util/base_effect_module.h ****     /** Sets the start index of the Settings Array
  83:Util/base_effect_module.h ****      \param the array index where settings for the effect start
  84:Util/base_effect_module.h ****     */
  85:Util/base_effect_module.h ****     void SetSettingsArrayStartIdx(uint32_t start_idx);
ARM GAS  /tmp/cc3dlQC7.s 			page 3


  86:Util/base_effect_module.h **** 
  87:Util/base_effect_module.h ****     /** Gets the start position in settings for this effect
  88:Util/base_effect_module.h ****      \return the the start position in settings array for this effect.
  89:Util/base_effect_module.h ****     */
  90:Util/base_effect_module.h ****     uint32_t GetSettingsArrayStartIdx() const;
  91:Util/base_effect_module.h **** 
  92:Util/base_effect_module.h ****     /** Sets the start index of the Settings Array
  93:Util/base_effect_module.h ****      \param the array index where settings for the effect start
  94:Util/base_effect_module.h ****     */
  95:Util/base_effect_module.h ****     void SetCurrentPreset(uint32_t currentPreset);
  96:Util/base_effect_module.h **** 
  97:Util/base_effect_module.h ****     /** Gets the start position in settings for this effect
  98:Util/base_effect_module.h ****      \return the the start position in settings array for this effect.
  99:Util/base_effect_module.h ****     */
 100:Util/base_effect_module.h ****     uint32_t GetCurrentPreset() const;
 101:Util/base_effect_module.h **** 
 102:Util/base_effect_module.h ****     /** Gets the Name of an Effect Parameter
 103:Util/base_effect_module.h ****      \return Value Name of the Effect Parameter
 104:Util/base_effect_module.h ****     */
 105:Util/base_effect_module.h ****     const char *GetParameterName(int parameter_id) const;
 106:Util/base_effect_module.h **** 
 107:Util/base_effect_module.h ****     /** Gets the Type of an Effect Parameter
 108:Util/base_effect_module.h ****      \return a ParameterValueType representing Type of the Effect Parameter. 0 is raw u_int32_t, 1 
 109:Util/base_effect_module.h ****      (return "ParameterValueType::Unknown" is this is unknown)
 110:Util/base_effect_module.h ****     */
 111:Util/base_effect_module.h ****     ParameterValueType GetParameterType(int parameter_id) const;
 112:Util/base_effect_module.h **** 
 113:Util/base_effect_module.h ****     /** Gets the curve of an Effect Parameter
 114:Util/base_effect_module.h ****      \return a ParameterValueType representing curve of the Effect Parameter.
 115:Util/base_effect_module.h ****     */
 116:Util/base_effect_module.h ****     ParameterValueCurve GetParameterValueCurve(int parameter_id) const;
 117:Util/base_effect_module.h **** 
 118:Util/base_effect_module.h ****     /** Gets the Bin Count of a Binned Int Effect Parameter
 119:Util/base_effect_module.h ****      \return the number of Bins for this Binned Int type Effect Parameter or -1 if this isn't a Bin
 120:Util/base_effect_module.h ****     */
 121:Util/base_effect_module.h ****     int GetParameterBinCount(int parameter_id) const;
 122:Util/base_effect_module.h **** 
 123:Util/base_effect_module.h ****     /** Gets the Bin Name of a Binned Int Effect Parameter
 124:Util/base_effect_module.h ****      \param parameter_id Id of the parameter to retrieve.
 125:Util/base_effect_module.h ****      \return the Names of the Bins for this Binned Int type Efffect Parameter or nullptr if there a
 126:Util/base_effect_module.h ****     */
 127:Util/base_effect_module.h ****     const char **GetParameterBinNames(int parameter_id) const;
 128:Util/base_effect_module.h **** 
 129:Util/base_effect_module.h ****     /** Gets the Default Value for an Effect Parameter as a Float value
 130:Util/base_effect_module.h ****      \param parameter_id Id of the parameter to retrieve.
 131:Util/base_effect_module.h ****      \return the float Value of the specified parameter.
 132:Util/base_effect_module.h ****     */
 133:Util/base_effect_module.h ****     const float GetParameterDefaultValueAsFloat(int parameter_id) const;
 134:Util/base_effect_module.h **** 
 135:Util/base_effect_module.h ****     /** Gets the Raw uint32_t value of an Effect Parameter
 136:Util/base_effect_module.h ****      \param parameter_id Id of the parameter to retrieve.
 137:Util/base_effect_module.h ****      \return the raw Value of the specified parameter.
 138:Util/base_effect_module.h ****     */
 139:Util/base_effect_module.h ****     uint32_t GetParameterRaw(int parameter_id) const;
 140:Util/base_effect_module.h **** 
 141:Util/base_effect_module.h ****     /** Gets the value of an Effect Parameter as a float
 142:Util/base_effect_module.h ****         \param parameter_id Id of the parameter to retrieve.
ARM GAS  /tmp/cc3dlQC7.s 			page 4


 143:Util/base_effect_module.h ****         \return the float Value for given parameter.
 144:Util/base_effect_module.h ****     */
 145:Util/base_effect_module.h ****     float GetParameterAsFloat(int parameter_id) const;
 146:Util/base_effect_module.h **** 
 147:Util/base_effect_module.h ****     /** Gets the value of an Effect Parameter as a bool (True of False)
 148:Util/base_effect_module.h ****      \param parameter_id Id of the parameter to retrieve.
 149:Util/base_effect_module.h ****      \return the Value of the specified parameter mapped to True / False
 150:Util/base_effect_module.h ****     */
 151:Util/base_effect_module.h ****     bool GetParameterAsBool(int parameter_id) const;
 152:Util/base_effect_module.h **** 
 153:Util/base_effect_module.h ****     /** Gets the value of an Effect Parameter as a Binned Integer Value (1..Bin Count)
 154:Util/base_effect_module.h ****      \param parameter_id Id of the parameter to retrieve.
 155:Util/base_effect_module.h ****      \return the bin number as an int value (1..Bin Count) of the specified parameter
 156:Util/base_effect_module.h ****     */
 157:Util/base_effect_module.h ****     int GetParameterAsBinnedValue(int parameter_id) const;
 158:Util/base_effect_module.h **** 
 159:Util/base_effect_module.h ****     /** Gets the Parameter ID of the Effect Parameter mapped to Knob.
 160:Util/base_effect_module.h ****      \param knob_id Id of the Knob to retrieve.
 161:Util/base_effect_module.h ****      \return the Parameter ID mapped to the specified knob, or -1 if no Parameter is Mapped to that
 162:Util/base_effect_module.h ****     */
 163:Util/base_effect_module.h ****     virtual int GetMappedParameterIDForKnob(int knob_id) const;
 164:Util/base_effect_module.h **** 
 165:Util/base_effect_module.h ****     /** Gets the Parameter ID of the Effect Parameter mapped to this Midi CC ID.
 166:Util/base_effect_module.h ****      \param midiCC_id Id of the MidiCC to retrieve.
 167:Util/base_effect_module.h ****      \return the Parameter ID mapped to the specified MidiCC, or -1 if no Parameter is Mapped to th
 168:Util/base_effect_module.h ****     */
 169:Util/base_effect_module.h ****     int GetMappedParameterIDForMidiCC(int midiCC_id) const;
 170:Util/base_effect_module.h **** 
 171:Util/base_effect_module.h ****     /** Sets the note and velocity of a midi key pressed event.
 172:Util/base_effect_module.h ****      \notenumber Midi note number pressed
 173:Util/base_effect_module.h ****      \velocity Midi note velocity (how hard the key was pressed)
 174:Util/base_effect_module.h ****      \Expected to be overridden by the active effect
 175:Util/base_effect_module.h ****     */
 176:Util/base_effect_module.h ****     virtual void OnNoteOn(float notenumber, float velocity);
 177:Util/base_effect_module.h **** 
 178:Util/base_effect_module.h ****     /** Sets the note and velocity of a midi key released event.
 179:Util/base_effect_module.h ****      \notenumber Midi note number pressed
 180:Util/base_effect_module.h ****      \velocity Midi note velocity (how quickly the key was released)
 181:Util/base_effect_module.h ****      \Expected to be overridden by the active effect
 182:Util/base_effect_module.h ****     */
 183:Util/base_effect_module.h ****     virtual void OnNoteOff(float notenumber, float velocity);
 184:Util/base_effect_module.h **** 
 185:Util/base_effect_module.h ****     /** Sets the Raw Value for a Particular Effect Parameter.  If the Parameter ID isn't valid, the
 186:Util/base_effect_module.h ****         \param parameter_id Id of the parameter to set (0 .. m_paramCount - 1).
 187:Util/base_effect_module.h ****         \param value the uint32_t Value to set on the parameter.
 188:Util/base_effect_module.h ****     */
 189:Util/base_effect_module.h ****     void SetParameterRaw(int parameter_id, uint32_t value);
 190:Util/base_effect_module.h **** 
 191:Util/base_effect_module.h ****     /** Sets the Value for a Particular Effect Parameter using a float magnitude value ranging from
 192:Util/base_effect_module.h ****      * If the Parameter ID isn't valid or if the Parameter Type is RAW, there is no effect. This fu
 193:Util/base_effect_module.h ****      * magnitude value onto the underlying Parameter Type in the following ways:
 194:Util/base_effect_module.h ****      * RAW Parameters - NOT SUPPORTED, there will be no effect.
 195:Util/base_effect_module.h ****      * Bool Parameters - values < 0.5f are mapped to False, values >= 0.5 are mapped to True.
 196:Util/base_effect_module.h ****      * Float Parameters - values between 0.0f and 1.0f are mapped to a float value between the Min 
 197:Util/base_effect_module.h ****      * Binned Parameters - values between 0.0f and 1.0f are divided equally between the total numbe
 198:Util/base_effect_module.h ****      accordingly.
 199:Util/base_effect_module.h ****         \param parameter_id Id of the parameter to set. \param value the float magnitude value to s
ARM GAS  /tmp/cc3dlQC7.s 			page 5


 200:Util/base_effect_module.h ****     */
 201:Util/base_effect_module.h ****     void SetParameterAsMagnitude(int parameter_id, float value);
 202:Util/base_effect_module.h **** 
 203:Util/base_effect_module.h ****     /** Sets the Value for a Particular Effect Parameter using a float.  If the Parameter ID isn't 
 204:Util/base_effect_module.h ****         \param parameter_id Id of the parameter to set.
 205:Util/base_effect_module.h ****         \param value the Float value to set the paramter to.
 206:Util/base_effect_module.h ****     */
 207:Util/base_effect_module.h ****     void SetParameterAsFloat(int parameter_id, float value);
 208:Util/base_effect_module.h **** 
 209:Util/base_effect_module.h ****     /** Sets the Value for a Particular Effect Parameter using a bool.  If the Parameter ID isn't v
 210:Util/base_effect_module.h ****         \param parameter_id Id of the parameter to set.
 211:Util/base_effect_module.h ****         \param value the bool value to set the paramter to.
 212:Util/base_effect_module.h ****     */
 213:Util/base_effect_module.h ****     void SetParameterAsBool(int parameter_id, bool value);
 214:Util/base_effect_module.h **** 
 215:Util/base_effect_module.h ****     /** Sets the Value for a Particular Effect Parameter using a Binned Value.  If the Parameter ID
 216:Util/base_effect_module.h ****         \param parameter_id Id of the parameter to set.
 217:Util/base_effect_module.h ****         \param value the int value (1..Bin Count) of the bin to set the paramter to.
 218:Util/base_effect_module.h ****     */
 219:Util/base_effect_module.h ****     void SetParameterAsBinnedValue(int parameter_id, int value);
 220:Util/base_effect_module.h **** 
 221:Util/base_effect_module.h ****     /** Processes the Effect in Mono for a single sample.  This should only be called once per samp
 222:Util/base_effect_module.h ****      call ProcessStereo too. \param in Input sample.
 223:Util/base_effect_module.h ****     */
 224:Util/base_effect_module.h ****     virtual void ProcessMono(float in);
 225:Util/base_effect_module.h **** 
 226:Util/base_effect_module.h ****     /** Processes the Effect in Stereo for a single left & right sample.  This should only be calle
 227:Util/base_effect_module.h ****      called, don't call ProcessMono too. \param inL, inR Input sample Left and Right.
 228:Util/base_effect_module.h ****     */
 229:Util/base_effect_module.h ****     virtual void ProcessStereo(float inL, float inR);
 230:Util/base_effect_module.h **** 
 231:Util/base_effect_module.h ****     /**  Gets the most recently calculated Sample Value for the Left Stereo Channel (or Mono)
 232:Util/base_effect_module.h ****      \return Last floating point sample for the left channel.
 233:Util/base_effect_module.h ****     */
 234:Util/base_effect_module.h ****     float GetAudioLeft() const;
 235:Util/base_effect_module.h **** 
 236:Util/base_effect_module.h ****     /** Gets the most recently calculated Sample Value for the Right Stereo Channel
 237:Util/base_effect_module.h ****      \return Last floating point sample for the right channel.
 238:Util/base_effect_module.h ****     */
 239:Util/base_effect_module.h ****     float GetAudioRight() const;
 240:Util/base_effect_module.h **** 
 241:Util/base_effect_module.h ****     /** Returns a value that can be used to drive the Effect LED brightness for a specific led.
 242:Util/base_effect_module.h ****      \return float value 0..1 for the intended LED brightness.
 243:Util/base_effect_module.h ****     */
 244:Util/base_effect_module.h ****     virtual float GetBrightnessForLED(int led_id) const;
 245:Util/base_effect_module.h **** 
 246:Util/base_effect_module.h ****     /** Sets the state of this Effect
 247:Util/base_effect_module.h ****      * @param isEnabled True for Enabled, False for Bypassed.
 248:Util/base_effect_module.h ****      */
 249:Util/base_effect_module.h ****     virtual void SetEnabled(bool isEnabled);
 250:Util/base_effect_module.h **** 
 251:Util/base_effect_module.h ****     /** Returns the status of the Effect
 252:Util/base_effect_module.h ****      \return Value True if the Effect is Enabled and False if the Effect is Bypassed
 253:Util/base_effect_module.h ****     */
 254:Util/base_effect_module.h ****     bool IsEnabled() const;
 255:Util/base_effect_module.h **** 
 256:Util/base_effect_module.h ****     /** Sets the Tempo of this Effect
ARM GAS  /tmp/cc3dlQC7.s 			page 6


 257:Util/base_effect_module.h ****      * @param bpm the Tempo in Beats Per Minute (BPM) as a uint32_t
 258:Util/base_effect_module.h ****      */
 259:Util/base_effect_module.h ****     virtual void SetTempo(uint32_t bpm);
 260:Util/base_effect_module.h **** 
 261:Util/base_effect_module.h ****     /** Handles updating the custom UI for this Effect.
 262:Util/base_effect_module.h ****      * @param elapsedTime a float value of how much time (in seconds) has elapsed since the last up
 263:Util/base_effect_module.h ****      */
 264:Util/base_effect_module.h ****     virtual void UpdateUI(float elapsedTime);
 265:Util/base_effect_module.h **** 
 266:Util/base_effect_module.h ****     /** Handles drawing the custom UI for this Effect.
 267:Util/base_effect_module.h ****      * @param display           The display to draw to
 268:Util/base_effect_module.h ****      * @param currentIndex      The index in the menu
 269:Util/base_effect_module.h ****      * @param numItemsTotal     The total number of items in the menu
 270:Util/base_effect_module.h ****      * @param boundsToDrawIn    The Rectangle to draw the item into
 271:Util/base_effect_module.h ****      * @param isEditing         True if the enter button was pressed and the value is being edited 
 272:Util/base_effect_module.h ****      */
 273:Util/base_effect_module.h ****     virtual void DrawUI(OneBitGraphicsDisplay &display, int currentIndex, int numItemsTotal, Rectan
 274:Util/base_effect_module.h **** 
 275:Util/base_effect_module.h ****     /** Gets the minimum value for the parameter
 276:Util/base_effect_module.h ****         \param parameter_id Id of the parameter to set (0 .. m_paramCount - 1).
 277:Util/base_effect_module.h ****         \return int value for minimum parameter value.
 278:Util/base_effect_module.h ****     */
 279:Util/base_effect_module.h ****     int GetParameterMin(int parameter_id) const;
 280:Util/base_effect_module.h **** 
 281:Util/base_effect_module.h ****     /** Gets the maximum value for the parameter
 282:Util/base_effect_module.h ****         \param parameter_id Id of the parameter to set (0 .. m_paramCount - 1).
 283:Util/base_effect_module.h ****         \return int value for maximum parameter value.
 284:Util/base_effect_module.h ****     */
 285:Util/base_effect_module.h ****     int GetParameterMax(int parameter_id) const;
 286:Util/base_effect_module.h **** 
 287:Util/base_effect_module.h ****     /** Gets the Fine Step size for the parameter id as a float value
 288:Util/base_effect_module.h ****         \param parameter_id Id of the parameter to set (0 .. m_paramCount - 1).
 289:Util/base_effect_module.h ****         \return Fine step size for given parameter.
 290:Util/base_effect_module.h ****     */
 291:Util/base_effect_module.h ****     float GetParameterFineStepSize(int parameter_id) const;
 292:Util/base_effect_module.h **** 
 293:Util/base_effect_module.h ****     /** This function gets called when a MIDI CC message is received by the pedal when this effect 
 294:Util/base_effect_module.h ****      * implementation checks to see if any Midi Parameters on this Effect map to the midi CC number
 295:Util/base_effect_module.h ****      * 0..127 to a float 0.0f - 1.0f and then calls the SetParameterAsMagnitude helper function to 
 296:Util/base_effect_module.h ****      * map to the underlying parameter type. \param control_num, midicc number \param value, midi v
 297:Util/base_effect_module.h ****      */
 298:Util/base_effect_module.h ****     virtual void MidiCCValueNotification(uint8_t control_num, uint8_t value);
 299:Util/base_effect_module.h **** 
 300:Util/base_effect_module.h ****     /** Effect can override this and return false to disable the tap tempo functionality to utilize
 301:Util/base_effect_module.h ****      * effects, etc) \return Value True if the Effect uses the alternate footswitch for tap tempo
 302:Util/base_effect_module.h ****      */
 303:Util/base_effect_module.h ****     virtual bool AlternateFootswitchForTempo() const { return true; };
  31              		.loc 2 303 18 view -0
  32              		.cfi_startproc
  33              		@ args = 0, pretend = 0, frame = 0
  34              		@ frame_needed = 0, uses_anonymous_args = 0
  35              		@ link register save eliminated.
  36              		.loc 2 303 56 view .LVU1
  37              		.loc 2 303 69 is_stmt 0 view .LVU2
  38 0000 0120     		movs	r0, #1
  39              	.LVL1:
  40              		.loc 2 303 69 view .LVU3
ARM GAS  /tmp/cc3dlQC7.s 			page 7


  41 0002 7047     		bx	lr
  42              		.cfi_endproc
  43              	.LFE3531:
  45              		.section	.text._ZN10bkshepherd16BaseEffectModule26AlternateFootswitchPressedEv,"axG",%progbits,_ZN
  46              		.align	1
  47              		.p2align 2,,3
  48              		.weak	_ZN10bkshepherd16BaseEffectModule26AlternateFootswitchPressedEv
  49              		.syntax unified
  50              		.thumb
  51              		.thumb_func
  53              	_ZN10bkshepherd16BaseEffectModule26AlternateFootswitchPressedEv:
  54              	.LVL2:
  55              	.LFB3532:
 304:Util/base_effect_module.h ****     /** Overridable callback when alternate footswitch is pressed */
 305:Util/base_effect_module.h ****     virtual void AlternateFootswitchPressed(){};
  56              		.loc 2 305 18 is_stmt 1 view -0
  57              		.cfi_startproc
  58              		@ args = 0, pretend = 0, frame = 0
  59              		@ frame_needed = 0, uses_anonymous_args = 0
  60              		@ link register save eliminated.
  61              		.loc 2 305 47 is_stmt 0 view .LVU5
  62 0000 7047     		bx	lr
  63              		.cfi_endproc
  64              	.LFE3532:
  66 0002 00BF     		.section	.text._ZN10bkshepherd16BaseEffectModule27AlternateFootswitchReleasedEv,"axG",%progbits,_Z
  67              		.align	1
  68              		.p2align 2,,3
  69              		.weak	_ZN10bkshepherd16BaseEffectModule27AlternateFootswitchReleasedEv
  70              		.syntax unified
  71              		.thumb
  72              		.thumb_func
  74              	_ZN10bkshepherd16BaseEffectModule27AlternateFootswitchReleasedEv:
  75              	.LVL3:
  76              	.LFB3533:
 306:Util/base_effect_module.h ****     /** Overridable callback when alternate footswitch is released */
 307:Util/base_effect_module.h ****     virtual void AlternateFootswitchReleased(){};
  77              		.loc 2 307 18 is_stmt 1 view -0
  78              		.cfi_startproc
  79              		@ args = 0, pretend = 0, frame = 0
  80              		@ frame_needed = 0, uses_anonymous_args = 0
  81              		@ link register save eliminated.
  82              		.loc 2 307 48 is_stmt 0 view .LVU7
  83 0000 7047     		bx	lr
  84              		.cfi_endproc
  85              	.LFE3533:
  87 0002 00BF     		.section	.text._ZN10bkshepherd16BaseEffectModule33AlternateFootswitchHeldFor1SecondEv,"axG",%progb
  88              		.align	1
  89              		.p2align 2,,3
  90              		.weak	_ZN10bkshepherd16BaseEffectModule33AlternateFootswitchHeldFor1SecondEv
  91              		.syntax unified
  92              		.thumb
  93              		.thumb_func
  95              	_ZN10bkshepherd16BaseEffectModule33AlternateFootswitchHeldFor1SecondEv:
  96              	.LVL4:
  97              	.LFB3534:
 308:Util/base_effect_module.h ****     /** Overridable callback when alternate footswitch is held for 1 second */
 309:Util/base_effect_module.h ****     virtual void AlternateFootswitchHeldFor1Second(){};
ARM GAS  /tmp/cc3dlQC7.s 			page 8


  98              		.loc 2 309 18 is_stmt 1 view -0
  99              		.cfi_startproc
 100              		@ args = 0, pretend = 0, frame = 0
 101              		@ frame_needed = 0, uses_anonymous_args = 0
 102              		@ link register save eliminated.
 103              		.loc 2 309 54 is_stmt 0 view .LVU9
 104 0000 7047     		bx	lr
 105              		.cfi_endproc
 106              	.LFE3534:
 108 0002 00BF     		.section	.text._ZN10bkshepherd16BaseEffectModule4InitEf,"ax",%progbits
 109              		.align	1
 110              		.p2align 2,,3
 111              		.global	_ZN10bkshepherd16BaseEffectModule4InitEf
 112              		.syntax unified
 113              		.thumb
 114              		.thumb_func
 116              	_ZN10bkshepherd16BaseEffectModule4InitEf:
 117              	.LVL5:
 118              	.LFB3545:
   1:Util/base_effect_module.cpp **** #include "base_effect_module.h"
   2:Util/base_effect_module.cpp **** #include "../Util/audio_utilities.h"
   3:Util/base_effect_module.cpp **** 
   4:Util/base_effect_module.cpp **** // This can be used to show the CPU on the default UI
   5:Util/base_effect_module.cpp **** constexpr bool showCPU = false;
   6:Util/base_effect_module.cpp **** 
   7:Util/base_effect_module.cpp **** using namespace bkshepherd;
   8:Util/base_effect_module.cpp **** 
   9:Util/base_effect_module.cpp **** // Default Constructor
  10:Util/base_effect_module.cpp **** BaseEffectModule::BaseEffectModule()
  11:Util/base_effect_module.cpp ****     : m_paramCount(0), m_presetCount(1), m_currentPreset(0), m_params(nullptr), m_audioLeft(0.0f), 
  12:Util/base_effect_module.cpp ****       m_settingsArrayStartIdx(0), m_isEnabled(false) {
  13:Util/base_effect_module.cpp ****     m_name = "Base";
  14:Util/base_effect_module.cpp ****     m_paramMetaData = nullptr;
  15:Util/base_effect_module.cpp **** }
  16:Util/base_effect_module.cpp **** 
  17:Util/base_effect_module.cpp **** // Destructor
  18:Util/base_effect_module.cpp **** BaseEffectModule::~BaseEffectModule() {
  19:Util/base_effect_module.cpp ****     if (m_params != nullptr) {
  20:Util/base_effect_module.cpp ****         delete[] m_params;
  21:Util/base_effect_module.cpp ****     }
  22:Util/base_effect_module.cpp **** }
  23:Util/base_effect_module.cpp **** 
  24:Util/base_effect_module.cpp **** void BaseEffectModule::Init(float sample_rate) { m_sampleRate = sample_rate; }
 119              		.loc 1 24 48 is_stmt 1 view -0
 120              		.cfi_startproc
 121              		@ args = 0, pretend = 0, frame = 0
 122              		@ frame_needed = 0, uses_anonymous_args = 0
 123              		@ link register save eliminated.
 124              		.loc 1 24 50 view .LVU11
 125              		.loc 1 24 63 is_stmt 0 view .LVU12
 126 0000 80ED0B0A 		vstr.32	s0, [r0, #44]
 127              		.loc 1 24 78 view .LVU13
 128 0004 7047     		bx	lr
 129              		.cfi_endproc
 130              	.LFE3545:
 132 0006 00BF     		.section	.text._ZNK10bkshepherd16BaseEffectModule27GetMappedParameterIDForKnobEi,"ax",%progbits
 133              		.align	1
ARM GAS  /tmp/cc3dlQC7.s 			page 9


 134              		.p2align 2,,3
 135              		.global	_ZNK10bkshepherd16BaseEffectModule27GetMappedParameterIDForKnobEi
 136              		.syntax unified
 137              		.thumb
 138              		.thumb_func
 140              	_ZNK10bkshepherd16BaseEffectModule27GetMappedParameterIDForKnobEi:
 141              	.LVL6:
 142              	.LFB3565:
  25:Util/base_effect_module.cpp **** 
  26:Util/base_effect_module.cpp **** const char *BaseEffectModule::GetName() { return m_name; }
  27:Util/base_effect_module.cpp **** 
  28:Util/base_effect_module.cpp **** void BaseEffectModule::InitParams(int count) {
  29:Util/base_effect_module.cpp ****     // Remove any existing parameter storage
  30:Util/base_effect_module.cpp ****     if (m_params != nullptr) {
  31:Util/base_effect_module.cpp ****         delete[] m_params;
  32:Util/base_effect_module.cpp ****         m_params = nullptr;
  33:Util/base_effect_module.cpp ****     }
  34:Util/base_effect_module.cpp **** 
  35:Util/base_effect_module.cpp ****     m_paramCount = 0;
  36:Util/base_effect_module.cpp **** 
  37:Util/base_effect_module.cpp ****     if (count > 0) {
  38:Util/base_effect_module.cpp ****         // Create new parameter storage
  39:Util/base_effect_module.cpp ****         m_paramCount = count;
  40:Util/base_effect_module.cpp ****         m_params = new uint32_t[m_paramCount];
  41:Util/base_effect_module.cpp **** 
  42:Util/base_effect_module.cpp ****         // Init all parameters to their default value or zero if there is no meta data
  43:Util/base_effect_module.cpp ****         for (int i = 0; i < m_paramCount; i++) {
  44:Util/base_effect_module.cpp ****             if (m_paramMetaData != nullptr) {
  45:Util/base_effect_module.cpp ****                 if (GetParameterType(i) == ParameterValueType::Float) {
  46:Util/base_effect_module.cpp ****                     uint32_t tmp;
  47:Util/base_effect_module.cpp ****                     float value = m_paramMetaData[i].defaultValue.float_value;
  48:Util/base_effect_module.cpp ****                     std::memcpy(&tmp, &value, sizeof(float));
  49:Util/base_effect_module.cpp ****                     m_params[i] = tmp;
  50:Util/base_effect_module.cpp ****                 } else {
  51:Util/base_effect_module.cpp ****                     m_params[i] = m_paramMetaData[i].defaultValue.uint_value;
  52:Util/base_effect_module.cpp ****                 }
  53:Util/base_effect_module.cpp **** 
  54:Util/base_effect_module.cpp ****             } else {
  55:Util/base_effect_module.cpp ****                 m_params[i] = 0;
  56:Util/base_effect_module.cpp ****             }
  57:Util/base_effect_module.cpp ****         }
  58:Util/base_effect_module.cpp ****     }
  59:Util/base_effect_module.cpp **** }
  60:Util/base_effect_module.cpp **** 
  61:Util/base_effect_module.cpp **** uint16_t BaseEffectModule::GetParameterCount() const { return m_paramCount; }
  62:Util/base_effect_module.cpp **** 
  63:Util/base_effect_module.cpp **** uint16_t BaseEffectModule::GetPresetCount() const { return m_presetCount; }
  64:Util/base_effect_module.cpp **** 
  65:Util/base_effect_module.cpp **** void BaseEffectModule::SetPresetCount(uint16_t preset_count) { m_presetCount = preset_count; }
  66:Util/base_effect_module.cpp **** 
  67:Util/base_effect_module.cpp **** void BaseEffectModule::SetCurrentPreset(uint32_t preset) { m_currentPreset = preset; }
  68:Util/base_effect_module.cpp **** 
  69:Util/base_effect_module.cpp **** uint32_t BaseEffectModule::GetCurrentPreset() const { return m_currentPreset; }
  70:Util/base_effect_module.cpp **** 
  71:Util/base_effect_module.cpp **** void BaseEffectModule::SetSettingsArrayStartIdx(uint32_t start_idx) { m_settingsArrayStartIdx = sta
  72:Util/base_effect_module.cpp **** 
  73:Util/base_effect_module.cpp **** uint32_t BaseEffectModule::GetSettingsArrayStartIdx() const { return m_settingsArrayStartIdx; }
ARM GAS  /tmp/cc3dlQC7.s 			page 10


  74:Util/base_effect_module.cpp **** 
  75:Util/base_effect_module.cpp **** const char *BaseEffectModule::GetParameterName(int parameter_id) const {
  76:Util/base_effect_module.cpp ****     // Make sure parameter_id is valid.
  77:Util/base_effect_module.cpp ****     if (m_params == nullptr || parameter_id < 0 || parameter_id >= m_paramCount || m_paramMetaData 
  78:Util/base_effect_module.cpp ****         return "Unknown";
  79:Util/base_effect_module.cpp ****     }
  80:Util/base_effect_module.cpp **** 
  81:Util/base_effect_module.cpp ****     return m_paramMetaData[parameter_id].name;
  82:Util/base_effect_module.cpp **** }
  83:Util/base_effect_module.cpp **** 
  84:Util/base_effect_module.cpp **** ParameterValueType BaseEffectModule::GetParameterType(int parameter_id) const {
  85:Util/base_effect_module.cpp ****     // Make sure parameter_id is valid.
  86:Util/base_effect_module.cpp ****     if (m_params == nullptr || parameter_id < 0 || parameter_id >= m_paramCount || m_paramMetaData 
  87:Util/base_effect_module.cpp ****         return ParameterValueType::Unknown;
  88:Util/base_effect_module.cpp ****     }
  89:Util/base_effect_module.cpp **** 
  90:Util/base_effect_module.cpp ****     return m_paramMetaData[parameter_id].valueType;
  91:Util/base_effect_module.cpp **** }
  92:Util/base_effect_module.cpp **** 
  93:Util/base_effect_module.cpp **** ParameterValueCurve BaseEffectModule::GetParameterValueCurve(int parameter_id) const {
  94:Util/base_effect_module.cpp ****     // Make sure parameter_id is valid.
  95:Util/base_effect_module.cpp ****     if (m_params == nullptr || parameter_id < 0 || parameter_id >= m_paramCount || m_paramMetaData 
  96:Util/base_effect_module.cpp ****         return ParameterValueCurve::Linear;
  97:Util/base_effect_module.cpp ****     }
  98:Util/base_effect_module.cpp **** 
  99:Util/base_effect_module.cpp ****     return m_paramMetaData[parameter_id].valueCurve;
 100:Util/base_effect_module.cpp **** }
 101:Util/base_effect_module.cpp **** 
 102:Util/base_effect_module.cpp **** int BaseEffectModule::GetParameterBinCount(int parameter_id) const {
 103:Util/base_effect_module.cpp ****     // Make sure parameter_id is valid.
 104:Util/base_effect_module.cpp ****     if (m_params == nullptr || parameter_id < 0 || parameter_id >= m_paramCount || m_paramMetaData 
 105:Util/base_effect_module.cpp ****         return -1;
 106:Util/base_effect_module.cpp ****     }
 107:Util/base_effect_module.cpp **** 
 108:Util/base_effect_module.cpp ****     // Check to see if this is a binned type, if not return -1
 109:Util/base_effect_module.cpp ****     if (GetParameterType(parameter_id) != ParameterValueType::Binned) {
 110:Util/base_effect_module.cpp ****         return -1;
 111:Util/base_effect_module.cpp ****     }
 112:Util/base_effect_module.cpp **** 
 113:Util/base_effect_module.cpp ****     return m_paramMetaData[parameter_id].valueBinCount;
 114:Util/base_effect_module.cpp **** }
 115:Util/base_effect_module.cpp **** 
 116:Util/base_effect_module.cpp **** const char **BaseEffectModule::GetParameterBinNames(int parameter_id) const {
 117:Util/base_effect_module.cpp ****     // Make sure parameter_id is valid.
 118:Util/base_effect_module.cpp ****     if (m_params == nullptr || parameter_id < 0 || parameter_id >= m_paramCount || m_paramMetaData 
 119:Util/base_effect_module.cpp ****         return nullptr;
 120:Util/base_effect_module.cpp ****     }
 121:Util/base_effect_module.cpp **** 
 122:Util/base_effect_module.cpp ****     // Make sure this is a Binned Int type parameter
 123:Util/base_effect_module.cpp ****     int binCount = GetParameterBinCount(parameter_id);
 124:Util/base_effect_module.cpp **** 
 125:Util/base_effect_module.cpp ****     // If this is not a binned value type aways return nullptr
 126:Util/base_effect_module.cpp ****     if (binCount == -1) {
 127:Util/base_effect_module.cpp ****         return nullptr;
 128:Util/base_effect_module.cpp ****     }
 129:Util/base_effect_module.cpp **** 
 130:Util/base_effect_module.cpp ****     return m_paramMetaData[parameter_id].valueBinNames;
ARM GAS  /tmp/cc3dlQC7.s 			page 11


 131:Util/base_effect_module.cpp **** }
 132:Util/base_effect_module.cpp **** 
 133:Util/base_effect_module.cpp **** const float BaseEffectModule::GetParameterDefaultValueAsFloat(int parameter_id) const {
 134:Util/base_effect_module.cpp ****     // Make sure parameter_id is valid.
 135:Util/base_effect_module.cpp ****     if (m_params == nullptr || parameter_id < 0 || parameter_id >= m_paramCount || m_paramMetaData 
 136:Util/base_effect_module.cpp ****         return 0.0f;
 137:Util/base_effect_module.cpp ****     }
 138:Util/base_effect_module.cpp **** 
 139:Util/base_effect_module.cpp ****     return m_paramMetaData[parameter_id].defaultValue.float_value;
 140:Util/base_effect_module.cpp **** }
 141:Util/base_effect_module.cpp **** 
 142:Util/base_effect_module.cpp **** uint32_t BaseEffectModule::GetParameterRaw(int parameter_id) const {
 143:Util/base_effect_module.cpp ****     // Make sure parameter_id is valid.
 144:Util/base_effect_module.cpp ****     if (m_params == nullptr || parameter_id < 0 || parameter_id >= m_paramCount) {
 145:Util/base_effect_module.cpp ****         return 0;
 146:Util/base_effect_module.cpp ****     }
 147:Util/base_effect_module.cpp **** 
 148:Util/base_effect_module.cpp ****     return m_params[parameter_id];
 149:Util/base_effect_module.cpp **** }
 150:Util/base_effect_module.cpp **** 
 151:Util/base_effect_module.cpp **** float BaseEffectModule::GetParameterAsFloat(int parameter_id) const {
 152:Util/base_effect_module.cpp ****     if (parameter_id >= 0 || parameter_id < m_paramCount) {
 153:Util/base_effect_module.cpp ****         float ret;
 154:Util/base_effect_module.cpp ****         uint32_t tmp = m_params[parameter_id];
 155:Util/base_effect_module.cpp ****         std::memcpy(&ret, &tmp, sizeof(float));
 156:Util/base_effect_module.cpp ****         return ret;
 157:Util/base_effect_module.cpp ****     }
 158:Util/base_effect_module.cpp ****     return -1.0f;
 159:Util/base_effect_module.cpp **** }
 160:Util/base_effect_module.cpp **** 
 161:Util/base_effect_module.cpp **** bool BaseEffectModule::GetParameterAsBool(int parameter_id) const { return (GetParameterRaw(paramet
 162:Util/base_effect_module.cpp **** 
 163:Util/base_effect_module.cpp **** int BaseEffectModule::GetParameterAsBinnedValue(int parameter_id) const {
 164:Util/base_effect_module.cpp ****     int binCount = GetParameterBinCount(parameter_id);
 165:Util/base_effect_module.cpp **** 
 166:Util/base_effect_module.cpp ****     // If this is not a binned value type aways return 1
 167:Util/base_effect_module.cpp ****     if (binCount == -1) {
 168:Util/base_effect_module.cpp ****         return 1;
 169:Util/base_effect_module.cpp ****     }
 170:Util/base_effect_module.cpp **** 
 171:Util/base_effect_module.cpp ****     // Calculate the bin as raw stored value + 1
 172:Util/base_effect_module.cpp ****     int bin = (int)(GetParameterRaw(parameter_id) + 1);
 173:Util/base_effect_module.cpp **** 
 174:Util/base_effect_module.cpp ****     // A little sanity checking, make sure the bin is clamped to 1..BinCount
 175:Util/base_effect_module.cpp ****     if (bin < 1) {
 176:Util/base_effect_module.cpp ****         bin = 1;
 177:Util/base_effect_module.cpp ****     }
 178:Util/base_effect_module.cpp **** 
 179:Util/base_effect_module.cpp ****     if (bin > binCount) {
 180:Util/base_effect_module.cpp ****         bin = binCount;
 181:Util/base_effect_module.cpp ****     }
 182:Util/base_effect_module.cpp **** 
 183:Util/base_effect_module.cpp ****     return bin;
 184:Util/base_effect_module.cpp **** }
 185:Util/base_effect_module.cpp **** 
 186:Util/base_effect_module.cpp **** int BaseEffectModule::GetMappedParameterIDForKnob(int knob_id) const {
 143              		.loc 1 186 70 is_stmt 1 view -0
ARM GAS  /tmp/cc3dlQC7.s 			page 12


 144              		.cfi_startproc
 145              		@ args = 0, pretend = 0, frame = 0
 146              		@ frame_needed = 0, uses_anonymous_args = 0
 147              		@ link register save eliminated.
 187:Util/base_effect_module.cpp ****     if (m_paramMetaData != nullptr) {
 148              		.loc 1 187 5 view .LVU15
 149              	.LBB283:
 150              		.loc 1 187 9 is_stmt 0 view .LVU16
 151 0000 8369     		ldr	r3, [r0, #24]
 152              		.loc 1 187 5 view .LVU17
 153 0002 73B1     		cbz	r3, .L11
 154              	.LVL7:
 155              	.LBB284:
 188:Util/base_effect_module.cpp ****         for (int i = 0; i < m_paramCount; i++) {
 156              		.loc 1 188 27 is_stmt 1 discriminator 1 view .LVU18
 157              		.loc 1 188 29 is_stmt 0 discriminator 1 view .LVU19
 158 0004 D0F808C0 		ldr	ip, [r0, #8]
 159              		.loc 1 188 27 discriminator 1 view .LVU20
 160 0008 BCF1000F 		cmp	ip, #0
 161 000c 09DD     		ble	.L11
 162              		.loc 1 188 18 view .LVU21
 163 000e 0020     		movs	r0, #0
 164              	.LVL8:
 165              		.loc 1 188 18 view .LVU22
 166 0010 02E0     		b	.L9
 167              	.LVL9:
 168              	.L13:
 169              		.loc 1 188 9 discriminator 2 view .LVU23
 170 0012 0130     		adds	r0, r0, #1
 171              	.LVL10:
 172              		.loc 1 188 27 is_stmt 1 discriminator 1 view .LVU24
 173 0014 6045     		cmp	r0, ip
 174 0016 04D0     		beq	.L11
 175              	.LVL11:
 176              	.L9:
 189:Util/base_effect_module.cpp ****             if (m_paramMetaData[i].knobMapping == knob_id) {
 177              		.loc 1 189 13 view .LVU25
 188:Util/base_effect_module.cpp ****         for (int i = 0; i < m_paramCount; i++) {
 178              		.loc 1 188 9 discriminator 2 view .LVU26
 179              		.loc 1 189 13 is_stmt 0 view .LVU27
 180 0018 5A69     		ldr	r2, [r3, #20]
 188:Util/base_effect_module.cpp ****         for (int i = 0; i < m_paramCount; i++) {
 181              		.loc 1 188 27 discriminator 1 view .LVU28
 182 001a 2833     		adds	r3, r3, #40
 183              		.loc 1 189 13 view .LVU29
 184 001c 8A42     		cmp	r2, r1
 185 001e F8D1     		bne	.L13
 186              	.LBE284:
 187              	.LBE283:
 190:Util/base_effect_module.cpp ****                 return i;
 191:Util/base_effect_module.cpp ****             }
 192:Util/base_effect_module.cpp ****         }
 193:Util/base_effect_module.cpp ****     }
 194:Util/base_effect_module.cpp **** 
 195:Util/base_effect_module.cpp ****     return -1;
 196:Util/base_effect_module.cpp **** }
 188              		.loc 1 196 1 view .LVU30
ARM GAS  /tmp/cc3dlQC7.s 			page 13


 189 0020 7047     		bx	lr
 190              	.LVL12:
 191              	.L11:
 195:Util/base_effect_module.cpp **** }
 192              		.loc 1 195 13 view .LVU31
 193 0022 4FF0FF30 		mov	r0, #-1
 194              		.loc 1 196 1 view .LVU32
 195 0026 7047     		bx	lr
 196              		.cfi_endproc
 197              	.LFE3565:
 199              		.section	.text._ZN10bkshepherd16BaseEffectModule8OnNoteOnEff,"ax",%progbits
 200              		.align	1
 201              		.p2align 2,,3
 202              		.global	_ZN10bkshepherd16BaseEffectModule8OnNoteOnEff
 203              		.syntax unified
 204              		.thumb
 205              		.thumb_func
 207              	_ZN10bkshepherd16BaseEffectModule8OnNoteOnEff:
 208              	.LVL13:
 209              	.LFB3567:
 197:Util/base_effect_module.cpp **** 
 198:Util/base_effect_module.cpp **** int BaseEffectModule::GetMappedParameterIDForMidiCC(int midiCC_id) const {
 199:Util/base_effect_module.cpp ****     if (m_paramMetaData != nullptr) {
 200:Util/base_effect_module.cpp ****         for (int i = 0; i < m_paramCount; i++) {
 201:Util/base_effect_module.cpp ****             if (m_paramMetaData[i].midiCCMapping == midiCC_id) {
 202:Util/base_effect_module.cpp ****                 return i;
 203:Util/base_effect_module.cpp ****             }
 204:Util/base_effect_module.cpp ****         }
 205:Util/base_effect_module.cpp ****     }
 206:Util/base_effect_module.cpp **** 
 207:Util/base_effect_module.cpp ****     return -1;
 208:Util/base_effect_module.cpp **** }
 209:Util/base_effect_module.cpp **** 
 210:Util/base_effect_module.cpp **** void BaseEffectModule::OnNoteOn(float notenumber, float velocity) {
 210              		.loc 1 210 67 is_stmt 1 view -0
 211              		.cfi_startproc
 212              		@ args = 0, pretend = 0, frame = 0
 213              		@ frame_needed = 0, uses_anonymous_args = 0
 214              		@ link register save eliminated.
 211:Util/base_effect_module.cpp ****     // Triggered when a NoteOn midi message is received.
 212:Util/base_effect_module.cpp ****     // Do nothing.
 213:Util/base_effect_module.cpp ****     // Effect modules are expected to override this fucntion if they use a midi keyboard.
 214:Util/base_effect_module.cpp **** }
 215              		.loc 1 214 1 is_stmt 0 view .LVU34
 216 0000 7047     		bx	lr
 217              		.cfi_endproc
 218              	.LFE3567:
 220              		.global	_ZN10bkshepherd16BaseEffectModule9OnNoteOffEff
 221              		.thumb_set _ZN10bkshepherd16BaseEffectModule9OnNoteOffEff,_ZN10bkshepherd16BaseEffectModule8OnNote
 222 0002 00BF     		.section	.text._ZN10bkshepherd16BaseEffectModule11ProcessMonoEf,"ax",%progbits
 223              		.align	1
 224              		.p2align 2,,3
 225              		.global	_ZN10bkshepherd16BaseEffectModule11ProcessMonoEf
 226              		.syntax unified
 227              		.thumb
 228              		.thumb_func
 230              	_ZN10bkshepherd16BaseEffectModule11ProcessMonoEf:
ARM GAS  /tmp/cc3dlQC7.s 			page 14


 231              	.LVL14:
 232              	.LFB3577:
 215:Util/base_effect_module.cpp **** 
 216:Util/base_effect_module.cpp **** void BaseEffectModule::OnNoteOff(float notenumber, float velocity) {
 217:Util/base_effect_module.cpp ****     // Triggered when a NoteOff midi message is received.
 218:Util/base_effect_module.cpp ****     // Do nothing.
 219:Util/base_effect_module.cpp ****     // Effect modules are expected to override this fucntion if they use a midi keyboard.
 220:Util/base_effect_module.cpp **** }
 221:Util/base_effect_module.cpp **** 
 222:Util/base_effect_module.cpp **** int BaseEffectModule::GetParameterMin(int parameter_id) const {
 223:Util/base_effect_module.cpp ****     if (m_paramMetaData != nullptr && parameter_id < m_paramCount) {
 224:Util/base_effect_module.cpp ****         return m_paramMetaData[parameter_id].minValue;
 225:Util/base_effect_module.cpp ****     }
 226:Util/base_effect_module.cpp **** 
 227:Util/base_effect_module.cpp ****     return -1;
 228:Util/base_effect_module.cpp **** }
 229:Util/base_effect_module.cpp **** 
 230:Util/base_effect_module.cpp **** int BaseEffectModule::GetParameterMax(int parameter_id) const {
 231:Util/base_effect_module.cpp ****     if (m_paramMetaData != nullptr && parameter_id < m_paramCount) {
 232:Util/base_effect_module.cpp ****         return m_paramMetaData[parameter_id].maxValue;
 233:Util/base_effect_module.cpp ****     }
 234:Util/base_effect_module.cpp **** 
 235:Util/base_effect_module.cpp ****     return -1;
 236:Util/base_effect_module.cpp **** }
 237:Util/base_effect_module.cpp **** 
 238:Util/base_effect_module.cpp **** float BaseEffectModule::GetParameterFineStepSize(int parameter_id) const {
 239:Util/base_effect_module.cpp ****     if (m_paramMetaData != nullptr && parameter_id < m_paramCount) {
 240:Util/base_effect_module.cpp ****         return m_paramMetaData[parameter_id].fineStepSize;
 241:Util/base_effect_module.cpp ****     }
 242:Util/base_effect_module.cpp ****     return 0.01f;
 243:Util/base_effect_module.cpp **** }
 244:Util/base_effect_module.cpp **** 
 245:Util/base_effect_module.cpp **** void BaseEffectModule::SetParameterRaw(int parameter_id, uint32_t value) {
 246:Util/base_effect_module.cpp ****     // Make sure parameter_id is valid.
 247:Util/base_effect_module.cpp ****     if (m_params == nullptr || parameter_id < 0 || parameter_id >= m_paramCount) {
 248:Util/base_effect_module.cpp ****         return;
 249:Util/base_effect_module.cpp ****     }
 250:Util/base_effect_module.cpp **** 
 251:Util/base_effect_module.cpp ****     // Only update the value if it changed.
 252:Util/base_effect_module.cpp ****     if (value != m_params[parameter_id]) {
 253:Util/base_effect_module.cpp ****         m_params[parameter_id] = value;
 254:Util/base_effect_module.cpp **** 
 255:Util/base_effect_module.cpp ****         // Notify anyone listening if the parameter actually changed.
 256:Util/base_effect_module.cpp ****         ParameterChanged(parameter_id);
 257:Util/base_effect_module.cpp ****     }
 258:Util/base_effect_module.cpp **** }
 259:Util/base_effect_module.cpp **** 
 260:Util/base_effect_module.cpp **** void BaseEffectModule::SetParameterAsMagnitude(int parameter_id, float value) {
 261:Util/base_effect_module.cpp ****     // Handle different ParameterValueTypes Correctly
 262:Util/base_effect_module.cpp ****     ParameterValueType paramType = GetParameterType(parameter_id);
 263:Util/base_effect_module.cpp **** 
 264:Util/base_effect_module.cpp ****     if (paramType == ParameterValueType::Raw) {
 265:Util/base_effect_module.cpp ****         // This is an unsupported operation, so do nothing.
 266:Util/base_effect_module.cpp ****         return;
 267:Util/base_effect_module.cpp ****     } else if (paramType == ParameterValueType::Float) {
 268:Util/base_effect_module.cpp ****         const int min = GetParameterMin(parameter_id);
 269:Util/base_effect_module.cpp ****         const int max = GetParameterMax(parameter_id);
ARM GAS  /tmp/cc3dlQC7.s 			page 15


 270:Util/base_effect_module.cpp **** 
 271:Util/base_effect_module.cpp ****         // Make sure the value is in the valid range.
 272:Util/base_effect_module.cpp ****         if (value < 0.0f) {
 273:Util/base_effect_module.cpp ****             SetParameterAsFloat(parameter_id, min);
 274:Util/base_effect_module.cpp ****             return;
 275:Util/base_effect_module.cpp ****         } else if (value > 1.0f) {
 276:Util/base_effect_module.cpp ****             SetParameterAsFloat(parameter_id, max);
 277:Util/base_effect_module.cpp ****             return;
 278:Util/base_effect_module.cpp ****         }
 279:Util/base_effect_module.cpp **** 
 280:Util/base_effect_module.cpp ****         // Set the scaled parameter using the magnitude and the curve type
 281:Util/base_effect_module.cpp ****         switch (GetParameterValueCurve(parameter_id)) {
 282:Util/base_effect_module.cpp ****         case ParameterValueCurve::Log: {
 283:Util/base_effect_module.cpp ****             // Don't do log operations with a 0 or negative number,
 284:Util/base_effect_module.cpp ****             // automatically adjust value if necessary
 285:Util/base_effect_module.cpp ****             const float minToUse = std::max(0.01f, (float)min);
 286:Util/base_effect_module.cpp **** 
 287:Util/base_effect_module.cpp ****             // Logarithmic scaling: interpolate in the log domain
 288:Util/base_effect_module.cpp ****             const float tmp = std::pow(10.0, std::log10(minToUse) + value * (std::log10((float)max)
 289:Util/base_effect_module.cpp ****             SetParameterAsFloat(parameter_id, tmp);
 290:Util/base_effect_module.cpp ****             break;
 291:Util/base_effect_module.cpp ****         }
 292:Util/base_effect_module.cpp ****         case ParameterValueCurve::InverseLog: {
 293:Util/base_effect_module.cpp ****             // Don't do log operations with a 0 or negative number,
 294:Util/base_effect_module.cpp ****             // automatically adjust value if necessary
 295:Util/base_effect_module.cpp ****             const float minToUse = std::max(0.01f, (float)min);
 296:Util/base_effect_module.cpp **** 
 297:Util/base_effect_module.cpp ****             // Inverse Logarithmic scaling: reverse the mapping
 298:Util/base_effect_module.cpp ****             const float tmp = std::pow(10.0, std::log10(minToUse) + (1.0f - value) * (std::log10((f
 299:Util/base_effect_module.cpp ****             SetParameterAsFloat(parameter_id, tmp);
 300:Util/base_effect_module.cpp ****             break;
 301:Util/base_effect_module.cpp ****         }
 302:Util/base_effect_module.cpp ****         case ParameterValueCurve::Linear:
 303:Util/base_effect_module.cpp ****         default: {
 304:Util/base_effect_module.cpp ****             // Linear scaling: simple interpolation
 305:Util/base_effect_module.cpp ****             const float tmp = (value * ((float)max - (float)min) + (float)min);
 306:Util/base_effect_module.cpp ****             SetParameterAsFloat(parameter_id, tmp);
 307:Util/base_effect_module.cpp ****             break;
 308:Util/base_effect_module.cpp ****         }
 309:Util/base_effect_module.cpp ****         }
 310:Util/base_effect_module.cpp ****     } else if (paramType == ParameterValueType::Bool) {
 311:Util/base_effect_module.cpp ****         // Set the Bool Value to False if the magnitude is less then 0.5f, true otherwise
 312:Util/base_effect_module.cpp ****         if (value < 0.5f) {
 313:Util/base_effect_module.cpp ****             SetParameterAsBool(parameter_id, false);
 314:Util/base_effect_module.cpp ****             return;
 315:Util/base_effect_module.cpp ****         } else {
 316:Util/base_effect_module.cpp ****             SetParameterAsBool(parameter_id, true);
 317:Util/base_effect_module.cpp ****             return;
 318:Util/base_effect_module.cpp ****         }
 319:Util/base_effect_module.cpp ****     } else if (paramType == ParameterValueType::Binned) {
 320:Util/base_effect_module.cpp ****         // Make sure the value is in the valid range.
 321:Util/base_effect_module.cpp ****         if (value < 0.0f) {
 322:Util/base_effect_module.cpp ****             SetParameterAsBinnedValue(parameter_id, 1);
 323:Util/base_effect_module.cpp ****             return;
 324:Util/base_effect_module.cpp ****         } else if (value > 1.0f) {
 325:Util/base_effect_module.cpp ****             SetParameterAsBinnedValue(parameter_id, GetParameterBinCount(parameter_id));
 326:Util/base_effect_module.cpp ****             return;
ARM GAS  /tmp/cc3dlQC7.s 			page 16


 327:Util/base_effect_module.cpp ****         }
 328:Util/base_effect_module.cpp **** 
 329:Util/base_effect_module.cpp ****         // Map values 0..1 to the bins equally
 330:Util/base_effect_module.cpp ****         int mappedBin = (int)(value * GetParameterBinCount(parameter_id) + 1);
 331:Util/base_effect_module.cpp ****         SetParameterAsBinnedValue(parameter_id, mappedBin);
 332:Util/base_effect_module.cpp ****     }
 333:Util/base_effect_module.cpp **** }
 334:Util/base_effect_module.cpp **** 
 335:Util/base_effect_module.cpp **** void BaseEffectModule::SetParameterAsFloat(int parameter_id, float value) {
 336:Util/base_effect_module.cpp ****     if (parameter_id >= 0 || parameter_id < m_paramCount) {
 337:Util/base_effect_module.cpp ****         uint32_t tmp;
 338:Util/base_effect_module.cpp ****         std::memcpy(&tmp, &value, sizeof(float));
 339:Util/base_effect_module.cpp **** 
 340:Util/base_effect_module.cpp ****         // Only update the value if it changed.
 341:Util/base_effect_module.cpp ****         if (tmp != m_params[parameter_id]) {
 342:Util/base_effect_module.cpp ****             m_params[parameter_id] = tmp;
 343:Util/base_effect_module.cpp **** 
 344:Util/base_effect_module.cpp ****             // Notify anyone listening if the parameter actually changed.
 345:Util/base_effect_module.cpp ****             ParameterChanged(parameter_id);
 346:Util/base_effect_module.cpp ****         }
 347:Util/base_effect_module.cpp ****     }
 348:Util/base_effect_module.cpp **** }
 349:Util/base_effect_module.cpp **** 
 350:Util/base_effect_module.cpp **** void BaseEffectModule::SetParameterAsBool(int parameter_id, bool value) {
 351:Util/base_effect_module.cpp ****     if (value) {
 352:Util/base_effect_module.cpp ****         // Set raw value to 1 for True
 353:Util/base_effect_module.cpp ****         SetParameterRaw(parameter_id, 1U);
 354:Util/base_effect_module.cpp ****     } else {
 355:Util/base_effect_module.cpp ****         // Set raw value to 0 for False
 356:Util/base_effect_module.cpp ****         SetParameterRaw(parameter_id, 0U);
 357:Util/base_effect_module.cpp ****     }
 358:Util/base_effect_module.cpp **** }
 359:Util/base_effect_module.cpp **** 
 360:Util/base_effect_module.cpp **** void BaseEffectModule::SetParameterAsBinnedValue(int parameter_id, int value) {
 361:Util/base_effect_module.cpp ****     int binCount = GetParameterBinCount(parameter_id);
 362:Util/base_effect_module.cpp **** 
 363:Util/base_effect_module.cpp ****     // Make sure that this is a binned type value and we're within range
 364:Util/base_effect_module.cpp ****     if (binCount == -1 || value < 1 || value > binCount) {
 365:Util/base_effect_module.cpp ****         return;
 366:Util/base_effect_module.cpp ****     }
 367:Util/base_effect_module.cpp **** 
 368:Util/base_effect_module.cpp ****     SetParameterRaw(parameter_id, value - 1);
 369:Util/base_effect_module.cpp **** }
 370:Util/base_effect_module.cpp **** 
 371:Util/base_effect_module.cpp **** void BaseEffectModule::ProcessMono(float in) {
 233              		.loc 1 371 46 is_stmt 1 view -0
 234              		.cfi_startproc
 235              		@ args = 0, pretend = 0, frame = 0
 236              		@ frame_needed = 0, uses_anonymous_args = 0
 237              		@ link register save eliminated.
 372:Util/base_effect_module.cpp ****     m_audioLeft = in;
 238              		.loc 1 372 5 view .LVU36
 239              		.loc 1 372 17 is_stmt 0 view .LVU37
 240 0000 80ED070A 		vstr.32	s0, [r0, #28]
 373:Util/base_effect_module.cpp ****     m_audioRight = in;
 241              		.loc 1 373 5 is_stmt 1 view .LVU38
 242              		.loc 1 373 18 is_stmt 0 view .LVU39
ARM GAS  /tmp/cc3dlQC7.s 			page 17


 243 0004 80ED080A 		vstr.32	s0, [r0, #32]
 374:Util/base_effect_module.cpp **** }
 244              		.loc 1 374 1 view .LVU40
 245 0008 7047     		bx	lr
 246              		.cfi_endproc
 247              	.LFE3577:
 249 000a 00BF     		.section	.text._ZN10bkshepherd16BaseEffectModule13ProcessStereoEff,"ax",%progbits
 250              		.align	1
 251              		.p2align 2,,3
 252              		.global	_ZN10bkshepherd16BaseEffectModule13ProcessStereoEff
 253              		.syntax unified
 254              		.thumb
 255              		.thumb_func
 257              	_ZN10bkshepherd16BaseEffectModule13ProcessStereoEff:
 258              	.LVL15:
 259              	.LFB3578:
 375:Util/base_effect_module.cpp **** 
 376:Util/base_effect_module.cpp **** void BaseEffectModule::ProcessStereo(float inL, float inR) {
 260              		.loc 1 376 60 is_stmt 1 view -0
 261              		.cfi_startproc
 262              		@ args = 0, pretend = 0, frame = 0
 263              		@ frame_needed = 0, uses_anonymous_args = 0
 264              		@ link register save eliminated.
 377:Util/base_effect_module.cpp ****     m_audioLeft = inL;
 265              		.loc 1 377 5 view .LVU42
 266              		.loc 1 377 17 is_stmt 0 view .LVU43
 267 0000 80ED070A 		vstr.32	s0, [r0, #28]
 378:Util/base_effect_module.cpp ****     m_audioRight = inR;
 268              		.loc 1 378 5 is_stmt 1 view .LVU44
 269              		.loc 1 378 18 is_stmt 0 view .LVU45
 270 0004 C0ED080A 		vstr.32	s1, [r0, #32]
 379:Util/base_effect_module.cpp **** }
 271              		.loc 1 379 1 view .LVU46
 272 0008 7047     		bx	lr
 273              		.cfi_endproc
 274              	.LFE3578:
 276 000a 00BF     		.section	.text._ZNK10bkshepherd16BaseEffectModule19GetBrightnessForLEDEi,"ax",%progbits
 277              		.align	1
 278              		.p2align 2,,3
 279              		.global	_ZNK10bkshepherd16BaseEffectModule19GetBrightnessForLEDEi
 280              		.syntax unified
 281              		.thumb
 282              		.thumb_func
 284              	_ZNK10bkshepherd16BaseEffectModule19GetBrightnessForLEDEi:
 285              	.LVL16:
 286              	.LFB3581:
 380:Util/base_effect_module.cpp **** 
 381:Util/base_effect_module.cpp **** float BaseEffectModule::GetAudioLeft() const { return m_audioLeft; }
 382:Util/base_effect_module.cpp **** 
 383:Util/base_effect_module.cpp **** float BaseEffectModule::GetAudioRight() const { return m_audioRight; }
 384:Util/base_effect_module.cpp **** 
 385:Util/base_effect_module.cpp **** float BaseEffectModule::GetBrightnessForLED(int led_id) const {
 287              		.loc 1 385 63 is_stmt 1 view -0
 288              		.cfi_startproc
 289              		@ args = 0, pretend = 0, frame = 0
 290              		@ frame_needed = 0, uses_anonymous_args = 0
 291              		@ link register save eliminated.
ARM GAS  /tmp/cc3dlQC7.s 			page 18


 386:Util/base_effect_module.cpp ****     // By default will always return 1.0f if the effect is enabled and 0.0f if the effect is bypass
 387:Util/base_effect_module.cpp ****     // Each effect module is expected to override this function to treat the LEDs apropriately.
 388:Util/base_effect_module.cpp ****     // By convention LED_ID 0 should always reflect the status of the Effect as Enabled or Bypassed
 389:Util/base_effect_module.cpp **** 
 390:Util/base_effect_module.cpp ****     if (m_isEnabled) {
 292              		.loc 1 390 5 view .LVU48
 293 0000 90F82830 		ldrb	r3, [r0, #40]	@ zero_extendqisi2
 294 0004 13B9     		cbnz	r3, .L19
 391:Util/base_effect_module.cpp ****         return 1.0f;
 392:Util/base_effect_module.cpp ****     }
 393:Util/base_effect_module.cpp **** 
 394:Util/base_effect_module.cpp ****     return 0.0f;
 295              		.loc 1 394 12 is_stmt 0 view .LVU49
 296 0006 9FED030A 		vldr.32	s0, .L20
 297 000a 7047     		bx	lr
 298              	.L19:
 391:Util/base_effect_module.cpp ****         return 1.0f;
 299              		.loc 1 391 16 view .LVU50
 300 000c B7EE000A 		vmov.f32	s0, #1.0e+0
 395:Util/base_effect_module.cpp **** }
 301              		.loc 1 395 1 view .LVU51
 302 0010 7047     		bx	lr
 303              	.L21:
 304 0012 00BF     		.align	2
 305              	.L20:
 306 0014 00000000 		.word	0
 307              		.cfi_endproc
 308              	.LFE3581:
 310              		.section	.text._ZN10bkshepherd16BaseEffectModule10SetEnabledEb,"ax",%progbits
 311              		.align	1
 312              		.p2align 2,,3
 313              		.global	_ZN10bkshepherd16BaseEffectModule10SetEnabledEb
 314              		.syntax unified
 315              		.thumb
 316              		.thumb_func
 318              	_ZN10bkshepherd16BaseEffectModule10SetEnabledEb:
 319              	.LVL17:
 320              	.LFB3582:
 396:Util/base_effect_module.cpp **** 
 397:Util/base_effect_module.cpp **** void BaseEffectModule::SetEnabled(bool isEnabled) { m_isEnabled = isEnabled; }
 321              		.loc 1 397 51 is_stmt 1 view -0
 322              		.cfi_startproc
 323              		@ args = 0, pretend = 0, frame = 0
 324              		@ frame_needed = 0, uses_anonymous_args = 0
 325              		@ link register save eliminated.
 326              		.loc 1 397 53 view .LVU53
 327              		.loc 1 397 65 is_stmt 0 view .LVU54
 328 0000 80F82810 		strb	r1, [r0, #40]
 329              		.loc 1 397 78 view .LVU55
 330 0004 7047     		bx	lr
 331              		.cfi_endproc
 332              	.LFE3582:
 334 0006 00BF     		.section	.text._ZN10bkshepherd16BaseEffectModule8SetTempoEm,"ax",%progbits
 335              		.align	1
 336              		.p2align 2,,3
 337              		.global	_ZN10bkshepherd16BaseEffectModule8SetTempoEm
 338              		.syntax unified
ARM GAS  /tmp/cc3dlQC7.s 			page 19


 339              		.thumb
 340              		.thumb_func
 342              	_ZN10bkshepherd16BaseEffectModule8SetTempoEm:
 343              	.LVL18:
 344              	.LFB3584:
 398:Util/base_effect_module.cpp **** 
 399:Util/base_effect_module.cpp **** bool BaseEffectModule::IsEnabled() const { return m_isEnabled; }
 400:Util/base_effect_module.cpp **** 
 401:Util/base_effect_module.cpp **** void BaseEffectModule::SetTempo(uint32_t bpm) {
 345              		.loc 1 401 47 is_stmt 1 view -0
 346              		.cfi_startproc
 347              		@ args = 0, pretend = 0, frame = 0
 348              		@ frame_needed = 0, uses_anonymous_args = 0
 349              		@ link register save eliminated.
 402:Util/base_effect_module.cpp ****     // Do nothing.
 403:Util/base_effect_module.cpp **** 
 404:Util/base_effect_module.cpp ****     // Not all Effects are time based.
 405:Util/base_effect_module.cpp **** 
 406:Util/base_effect_module.cpp ****     // Effect modules are expected to override this fucntion if they are time based.
 407:Util/base_effect_module.cpp **** }
 350              		.loc 1 407 1 is_stmt 0 view .LVU57
 351 0000 7047     		bx	lr
 352              		.cfi_endproc
 353              	.LFE3584:
 355 0002 00BF     		.section	.text._ZN10bkshepherd16BaseEffectModule16ParameterChangedEi,"ax",%progbits
 356              		.align	1
 357              		.p2align 2,,3
 358              		.global	_ZN10bkshepherd16BaseEffectModule16ParameterChangedEi
 359              		.syntax unified
 360              		.thumb
 361              		.thumb_func
 363              	_ZN10bkshepherd16BaseEffectModule16ParameterChangedEi:
 364              	.LVL19:
 365              	.LFB3585:
 408:Util/base_effect_module.cpp **** 
 409:Util/base_effect_module.cpp **** void BaseEffectModule::ParameterChanged(int parameter_id) {
 366              		.loc 1 409 59 is_stmt 1 view -0
 367              		.cfi_startproc
 368              		@ args = 0, pretend = 0, frame = 0
 369              		@ frame_needed = 0, uses_anonymous_args = 0
 370              		@ link register save eliminated.
 410:Util/base_effect_module.cpp ****     // Do nothing.
 411:Util/base_effect_module.cpp **** }
 371              		.loc 1 411 1 is_stmt 0 view .LVU59
 372 0000 7047     		bx	lr
 373              		.cfi_endproc
 374              	.LFE3585:
 376 0002 00BF     		.section	.text._ZN10bkshepherd16BaseEffectModule8UpdateUIEf,"ax",%progbits
 377              		.align	1
 378              		.p2align 2,,3
 379              		.global	_ZN10bkshepherd16BaseEffectModule8UpdateUIEf
 380              		.syntax unified
 381              		.thumb
 382              		.thumb_func
 384              	_ZN10bkshepherd16BaseEffectModule8UpdateUIEf:
 385              	.LVL20:
 386              	.LFB3587:
ARM GAS  /tmp/cc3dlQC7.s 			page 20


 412:Util/base_effect_module.cpp **** 
 413:Util/base_effect_module.cpp **** void BaseEffectModule::MidiCCValueNotification(uint8_t control_num, uint8_t value) {
 414:Util/base_effect_module.cpp ****     // Handle the incoming Midi CC Value Notification if needed
 415:Util/base_effect_module.cpp ****     int effectParamID = GetMappedParameterIDForMidiCC(control_num);
 416:Util/base_effect_module.cpp **** 
 417:Util/base_effect_module.cpp ****     // If there is a param mapped to this CC value we need to handle it appropriately
 418:Util/base_effect_module.cpp ****     if (effectParamID != -1) {
 419:Util/base_effect_module.cpp ****         // Midi Value gets mapped into a 0.0-1.0 float and the sets the parameter value using the S
 420:Util/base_effect_module.cpp ****         // Essentially Midi values 0..127 will behave the same was as turning a Pot on the guitar p
 421:Util/base_effect_module.cpp ****         // This works for all parameter types except RAW.
 422:Util/base_effect_module.cpp ****         float mag = (float)value / 127.0f;
 423:Util/base_effect_module.cpp ****         SetParameterAsMagnitude(effectParamID, mag);
 424:Util/base_effect_module.cpp ****     }
 425:Util/base_effect_module.cpp **** }
 426:Util/base_effect_module.cpp **** 
 427:Util/base_effect_module.cpp **** void BaseEffectModule::UpdateUI(float elapsedTime) {
 387              		.loc 1 427 52 is_stmt 1 view -0
 388              		.cfi_startproc
 389              		@ args = 0, pretend = 0, frame = 0
 390              		@ frame_needed = 0, uses_anonymous_args = 0
 391              		@ link register save eliminated.
 428:Util/base_effect_module.cpp ****     // Do nothing.
 429:Util/base_effect_module.cpp **** 
 430:Util/base_effect_module.cpp ****     // Not all Effects will have custom UI that needs to udpate based on the passage of time.
 431:Util/base_effect_module.cpp **** 
 432:Util/base_effect_module.cpp ****     // Effect modules are expected to override this fucntion if they have custom UI requiring time 
 433:Util/base_effect_module.cpp **** }
 392              		.loc 1 433 1 is_stmt 0 view .LVU61
 393 0000 7047     		bx	lr
 394              		.cfi_endproc
 395              	.LFE3587:
 397 0002 00BF     		.section	.rodata._ZN10bkshepherd16BaseEffectModule6DrawUIERN5daisy21OneBitGraphicsDisplayEiiNS1_9R
 398              		.align	2
 399              	.LC0:
 400 0000 2E2E2E00 		.ascii	"...\000"
 401              		.section	.text._ZN10bkshepherd16BaseEffectModule6DrawUIERN5daisy21OneBitGraphicsDisplayEiiNS1_9Rec
 402              		.align	1
 403              		.p2align 2,,3
 404              		.global	_ZN10bkshepherd16BaseEffectModule6DrawUIERN5daisy21OneBitGraphicsDisplayEiiNS1_9RectangleE
 405              		.syntax unified
 406              		.thumb
 407              		.thumb_func
 409              	_ZN10bkshepherd16BaseEffectModule6DrawUIERN5daisy21OneBitGraphicsDisplayEiiNS1_9RectangleEb:
 410              	.LVL21:
 411              	.LFB3588:
 434:Util/base_effect_module.cpp **** 
 435:Util/base_effect_module.cpp **** void BaseEffectModule::DrawUI(OneBitGraphicsDisplay &display, int currentIndex, int numItemsTotal, 
 436:Util/base_effect_module.cpp ****                               bool isEditing) {
 412              		.loc 1 436 47 is_stmt 1 view -0
 413              		.cfi_startproc
 414              		@ args = 8, pretend = 0, frame = 48
 415              		@ frame_needed = 0, uses_anonymous_args = 0
 437:Util/base_effect_module.cpp ****     // By Default, the UI for an Effect Module is no different than it would be for the normal
 438:Util/base_effect_module.cpp ****     // FullScreenItemMenu. A specific Effect Module is welcome to override this whole function
 439:Util/base_effect_module.cpp ****     // to take over the full screen. Or overlay additional UI on top of this default UI.
 440:Util/base_effect_module.cpp **** 
 441:Util/base_effect_module.cpp ****     // Top Half of Screen is for the Effect Name and arrow indicators
ARM GAS  /tmp/cc3dlQC7.s 			page 21


 442:Util/base_effect_module.cpp ****     int topRowHeight = boundsToDrawIn.GetHeight() / 2;
 416              		.loc 1 442 5 view .LVU63
 436:Util/base_effect_module.cpp ****     // By Default, the UI for an Effect Module is no different than it would be for the normal
 417              		.loc 1 436 47 is_stmt 0 view .LVU64
 418 0000 2DE9F04F 		push	{r4, r5, r6, r7, r8, r9, r10, fp, lr}
 419              		.cfi_def_cfa_offset 36
 420              		.cfi_offset 4, -36
 421              		.cfi_offset 5, -32
 422              		.cfi_offset 6, -28
 423              		.cfi_offset 7, -24
 424              		.cfi_offset 8, -20
 425              		.cfi_offset 9, -16
 426              		.cfi_offset 10, -12
 427              		.cfi_offset 11, -8
 428              		.cfi_offset 14, -4
 429 0004 91B0     		sub	sp, sp, #68
 430              		.cfi_def_cfa_offset 104
 436:Util/base_effect_module.cpp ****     // By Default, the UI for an Effect Module is no different than it would be for the normal
 431              		.loc 1 436 47 view .LVU65
 432 0006 0F46     		mov	r7, r1
 443:Util/base_effect_module.cpp ****     auto topRowRect = boundsToDrawIn.RemoveFromTop(topRowHeight);
 444:Util/base_effect_module.cpp **** 
 445:Util/base_effect_module.cpp ****     // Determine if there a page before or after this page
 446:Util/base_effect_module.cpp ****     const bool hasPrev = currentIndex > 0;
 447:Util/base_effect_module.cpp ****     const bool hasNext = currentIndex < numItemsTotal - 1;
 433              		.loc 1 447 55 view .LVU66
 434 0008 591E     		subs	r1, r3, #1
 435              	.LVL22:
 436:Util/base_effect_module.cpp ****     // By Default, the UI for an Effect Module is no different than it would be for the normal
 436              		.loc 1 436 47 view .LVU67
 437 000a DDF86880 		ldr	r8, [sp, #104]
 438              	.LVL23:
 439              	.LBB405:
 440              	.LBI405:
 441              		.file 3 "../../libDaisy/src/hid/disp/graphics_common.h"
   1:../../libDaisy/src/hid/disp/graphics_common.h **** #pragma once
   2:../../libDaisy/src/hid/disp/graphics_common.h **** 
   3:../../libDaisy/src/hid/disp/graphics_common.h **** #include <cstdint>
   4:../../libDaisy/src/hid/disp/graphics_common.h **** 
   5:../../libDaisy/src/hid/disp/graphics_common.h **** namespace daisy
   6:../../libDaisy/src/hid/disp/graphics_common.h **** {
   7:../../libDaisy/src/hid/disp/graphics_common.h **** /** Justifications */
   8:../../libDaisy/src/hid/disp/graphics_common.h **** enum class Alignment
   9:../../libDaisy/src/hid/disp/graphics_common.h **** {
  10:../../libDaisy/src/hid/disp/graphics_common.h ****     centered,
  11:../../libDaisy/src/hid/disp/graphics_common.h ****     topLeft,
  12:../../libDaisy/src/hid/disp/graphics_common.h ****     topCentered,
  13:../../libDaisy/src/hid/disp/graphics_common.h ****     topRight,
  14:../../libDaisy/src/hid/disp/graphics_common.h ****     bottomLeft,
  15:../../libDaisy/src/hid/disp/graphics_common.h ****     bottomCentered,
  16:../../libDaisy/src/hid/disp/graphics_common.h ****     bottomRight,
  17:../../libDaisy/src/hid/disp/graphics_common.h ****     centeredLeft,
  18:../../libDaisy/src/hid/disp/graphics_common.h ****     centeredRight
  19:../../libDaisy/src/hid/disp/graphics_common.h **** };
  20:../../libDaisy/src/hid/disp/graphics_common.h **** 
  21:../../libDaisy/src/hid/disp/graphics_common.h **** class Rectangle
  22:../../libDaisy/src/hid/disp/graphics_common.h **** {
ARM GAS  /tmp/cc3dlQC7.s 			page 22


  23:../../libDaisy/src/hid/disp/graphics_common.h ****   public:
  24:../../libDaisy/src/hid/disp/graphics_common.h ****     Rectangle() : x_(0), y_(0), width_(0), height_(0) {}
  25:../../libDaisy/src/hid/disp/graphics_common.h **** 
  26:../../libDaisy/src/hid/disp/graphics_common.h ****     Rectangle(int16_t width, int16_t height)
  27:../../libDaisy/src/hid/disp/graphics_common.h ****     : x_(0), y_(0), width_(max(0, width)), height_(max(0, height))
  28:../../libDaisy/src/hid/disp/graphics_common.h ****     {
  29:../../libDaisy/src/hid/disp/graphics_common.h ****     }
  30:../../libDaisy/src/hid/disp/graphics_common.h **** 
  31:../../libDaisy/src/hid/disp/graphics_common.h ****     Rectangle(int16_t x, int16_t y, int16_t width, int16_t height)
  32:../../libDaisy/src/hid/disp/graphics_common.h ****     : x_(x), y_(y), width_(max(0, width)), height_(max(0, height))
  33:../../libDaisy/src/hid/disp/graphics_common.h ****     {
  34:../../libDaisy/src/hid/disp/graphics_common.h ****     }
  35:../../libDaisy/src/hid/disp/graphics_common.h **** 
  36:../../libDaisy/src/hid/disp/graphics_common.h ****     Rectangle(const Rectangle& other) { *this = other; }
  37:../../libDaisy/src/hid/disp/graphics_common.h **** 
  38:../../libDaisy/src/hid/disp/graphics_common.h ****     Rectangle& operator=(const Rectangle& other)
  39:../../libDaisy/src/hid/disp/graphics_common.h ****     {
  40:../../libDaisy/src/hid/disp/graphics_common.h ****         x_      = other.x_;
  41:../../libDaisy/src/hid/disp/graphics_common.h ****         y_      = other.y_;
  42:../../libDaisy/src/hid/disp/graphics_common.h ****         width_  = other.width_;
  43:../../libDaisy/src/hid/disp/graphics_common.h ****         height_ = other.height_;
  44:../../libDaisy/src/hid/disp/graphics_common.h ****         return *this;
  45:../../libDaisy/src/hid/disp/graphics_common.h ****     }
  46:../../libDaisy/src/hid/disp/graphics_common.h **** 
  47:../../libDaisy/src/hid/disp/graphics_common.h ****     bool operator==(const Rectangle& other) const
  48:../../libDaisy/src/hid/disp/graphics_common.h ****     {
  49:../../libDaisy/src/hid/disp/graphics_common.h ****         return (x_ == other.x_) && (y_ == other.y_) && (width_ == other.width_)
  50:../../libDaisy/src/hid/disp/graphics_common.h ****                && (height_ == other.height_);
  51:../../libDaisy/src/hid/disp/graphics_common.h ****     }
  52:../../libDaisy/src/hid/disp/graphics_common.h ****     bool operator!=(const Rectangle& other) const { return !(*this == other); }
  53:../../libDaisy/src/hid/disp/graphics_common.h **** 
  54:../../libDaisy/src/hid/disp/graphics_common.h ****     bool IsEmpty() const { return (width_ <= 0) || (height_ <= 0); }
  55:../../libDaisy/src/hid/disp/graphics_common.h **** 
  56:../../libDaisy/src/hid/disp/graphics_common.h ****     int16_t GetX() const { return x_; }
  57:../../libDaisy/src/hid/disp/graphics_common.h ****     int16_t GetY() const { return y_; }
  58:../../libDaisy/src/hid/disp/graphics_common.h ****     int16_t GetWidth() const { return width_; }
  59:../../libDaisy/src/hid/disp/graphics_common.h ****     int16_t GetHeight() const { return height_; }
 442              		.loc 3 59 13 is_stmt 1 view .LVU68
 443              	.LBB406:
 444              		.loc 3 59 33 view .LVU69
 445              	.LBE406:
 446              	.LBE405:
 436:Util/base_effect_module.cpp ****     // By Default, the UI for an Effect Module is no different than it would be for the normal
 447              		.loc 1 436 47 is_stmt 0 view .LVU70
 448 000e 0490     		str	r0, [sp, #16]
 449              	.LBB408:
 450              	.LBB407:
 451              		.loc 3 59 40 view .LVU71
 452 0010 B8F90600 		ldrsh	r0, [r8, #6]
 453              	.LVL24:
 454              		.loc 3 59 40 view .LVU72
 455              	.LBE407:
 456              	.LBE408:
 443:Util/base_effect_module.cpp ****     auto topRowRect = boundsToDrawIn.RemoveFromTop(topRowHeight);
 457              		.loc 1 443 5 is_stmt 1 view .LVU73
 458              	.LBB409:
 459              	.LBI409:
ARM GAS  /tmp/cc3dlQC7.s 			page 23


  60:../../libDaisy/src/hid/disp/graphics_common.h ****     int16_t GetRight() const { return x_ + width_; }
  61:../../libDaisy/src/hid/disp/graphics_common.h ****     int16_t GetBottom() const { return y_ + height_; }
  62:../../libDaisy/src/hid/disp/graphics_common.h ****     int16_t GetCenterX() const { return x_ + width_ / 2; }
  63:../../libDaisy/src/hid/disp/graphics_common.h ****     int16_t GetCenterY() const { return y_ + height_ / 2; }
  64:../../libDaisy/src/hid/disp/graphics_common.h **** 
  65:../../libDaisy/src/hid/disp/graphics_common.h ****     Rectangle WithX(int16_t x) const { return {x, y_, width_, height_}; }
  66:../../libDaisy/src/hid/disp/graphics_common.h ****     Rectangle WithY(int16_t y) const { return {x_, y, width_, height_}; }
  67:../../libDaisy/src/hid/disp/graphics_common.h ****     Rectangle WithWidth(int16_t width) const
  68:../../libDaisy/src/hid/disp/graphics_common.h ****     {
  69:../../libDaisy/src/hid/disp/graphics_common.h ****         return {x_, y_, width, height_};
  70:../../libDaisy/src/hid/disp/graphics_common.h ****     }
  71:../../libDaisy/src/hid/disp/graphics_common.h ****     Rectangle WithHeight(int16_t height) const
  72:../../libDaisy/src/hid/disp/graphics_common.h ****     {
  73:../../libDaisy/src/hid/disp/graphics_common.h ****         return {x_, y_, width_, height};
  74:../../libDaisy/src/hid/disp/graphics_common.h ****     }
  75:../../libDaisy/src/hid/disp/graphics_common.h ****     Rectangle WithSize(int16_t width, int16_t height) const
  76:../../libDaisy/src/hid/disp/graphics_common.h ****     {
  77:../../libDaisy/src/hid/disp/graphics_common.h ****         return {x_, y_, width, height};
  78:../../libDaisy/src/hid/disp/graphics_common.h ****     }
  79:../../libDaisy/src/hid/disp/graphics_common.h ****     Rectangle WithWidthKeepingCenter(int16_t width) const
  80:../../libDaisy/src/hid/disp/graphics_common.h ****     {
  81:../../libDaisy/src/hid/disp/graphics_common.h ****         return Rectangle(x_, y_, width, height_)
  82:../../libDaisy/src/hid/disp/graphics_common.h ****             .WithCenter(GetCenterX(), GetCenterY());
  83:../../libDaisy/src/hid/disp/graphics_common.h ****     }
  84:../../libDaisy/src/hid/disp/graphics_common.h ****     Rectangle WithHeightKeepingCenter(int16_t height) const
  85:../../libDaisy/src/hid/disp/graphics_common.h ****     {
  86:../../libDaisy/src/hid/disp/graphics_common.h ****         return Rectangle(x_, y_, width_, height)
  87:../../libDaisy/src/hid/disp/graphics_common.h ****             .WithCenter(GetCenterX(), GetCenterY());
  88:../../libDaisy/src/hid/disp/graphics_common.h ****     }
  89:../../libDaisy/src/hid/disp/graphics_common.h ****     Rectangle WithSizeKeepingCenter(int16_t width, int16_t height) const
  90:../../libDaisy/src/hid/disp/graphics_common.h ****     {
  91:../../libDaisy/src/hid/disp/graphics_common.h ****         return Rectangle(x_, y_, width, height)
  92:../../libDaisy/src/hid/disp/graphics_common.h ****             .WithCenter(GetCenterX(), GetCenterY());
  93:../../libDaisy/src/hid/disp/graphics_common.h ****     }
  94:../../libDaisy/src/hid/disp/graphics_common.h **** 
  95:../../libDaisy/src/hid/disp/graphics_common.h ****     Rectangle Reduced(int16_t sizeToReduce) const
  96:../../libDaisy/src/hid/disp/graphics_common.h ****     {
  97:../../libDaisy/src/hid/disp/graphics_common.h ****         return {int16_t(x_ + sizeToReduce),
  98:../../libDaisy/src/hid/disp/graphics_common.h ****                 int16_t(y_ + sizeToReduce),
  99:../../libDaisy/src/hid/disp/graphics_common.h ****                 int16_t(width_ - 2 * sizeToReduce),
 100:../../libDaisy/src/hid/disp/graphics_common.h ****                 int16_t(height_ - 2 * sizeToReduce)};
 101:../../libDaisy/src/hid/disp/graphics_common.h ****     }
 102:../../libDaisy/src/hid/disp/graphics_common.h ****     Rectangle Reduced(int16_t xToReduce, int16_t yToReduce) const
 103:../../libDaisy/src/hid/disp/graphics_common.h ****     {
 104:../../libDaisy/src/hid/disp/graphics_common.h ****         return {int16_t(x_ + xToReduce),
 105:../../libDaisy/src/hid/disp/graphics_common.h ****                 int16_t(y_ + yToReduce),
 106:../../libDaisy/src/hid/disp/graphics_common.h ****                 int16_t(width_ - 2 * xToReduce),
 107:../../libDaisy/src/hid/disp/graphics_common.h ****                 int16_t(height_ - 2 * yToReduce)};
 108:../../libDaisy/src/hid/disp/graphics_common.h ****     }
 109:../../libDaisy/src/hid/disp/graphics_common.h **** 
 110:../../libDaisy/src/hid/disp/graphics_common.h ****     Rectangle Translated(int16_t x, int16_t y) const
 111:../../libDaisy/src/hid/disp/graphics_common.h ****     {
 112:../../libDaisy/src/hid/disp/graphics_common.h ****         return {int16_t(x_ + x), int16_t(y_ + y), width_, height_};
 113:../../libDaisy/src/hid/disp/graphics_common.h ****     }
 114:../../libDaisy/src/hid/disp/graphics_common.h **** 
 115:../../libDaisy/src/hid/disp/graphics_common.h ****     Rectangle WithLeft(int16_t left) const
 116:../../libDaisy/src/hid/disp/graphics_common.h ****     {
ARM GAS  /tmp/cc3dlQC7.s 			page 24


 117:../../libDaisy/src/hid/disp/graphics_common.h ****         const auto newWidth = int16_t((x_ - left) + width_);
 118:../../libDaisy/src/hid/disp/graphics_common.h ****         return {left, y_, newWidth, height_};
 119:../../libDaisy/src/hid/disp/graphics_common.h ****     }
 120:../../libDaisy/src/hid/disp/graphics_common.h **** 
 121:../../libDaisy/src/hid/disp/graphics_common.h ****     Rectangle WithRight(int16_t right) const
 122:../../libDaisy/src/hid/disp/graphics_common.h ****     {
 123:../../libDaisy/src/hid/disp/graphics_common.h ****         const auto newWidth = int16_t(right - x_);
 124:../../libDaisy/src/hid/disp/graphics_common.h ****         return {x_, y_, newWidth, height_};
 125:../../libDaisy/src/hid/disp/graphics_common.h ****     }
 126:../../libDaisy/src/hid/disp/graphics_common.h **** 
 127:../../libDaisy/src/hid/disp/graphics_common.h ****     Rectangle WithTop(int16_t top) const
 128:../../libDaisy/src/hid/disp/graphics_common.h ****     {
 129:../../libDaisy/src/hid/disp/graphics_common.h ****         const auto newHeight = int16_t((y_ - top) + height_);
 130:../../libDaisy/src/hid/disp/graphics_common.h ****         return {x_, top, width_, newHeight};
 131:../../libDaisy/src/hid/disp/graphics_common.h ****     }
 132:../../libDaisy/src/hid/disp/graphics_common.h **** 
 133:../../libDaisy/src/hid/disp/graphics_common.h ****     Rectangle WithBottom(int16_t bottom) const
 134:../../libDaisy/src/hid/disp/graphics_common.h ****     {
 135:../../libDaisy/src/hid/disp/graphics_common.h ****         const auto newHeight = int16_t(bottom - y_);
 136:../../libDaisy/src/hid/disp/graphics_common.h ****         return {x_, y_, width_, newHeight};
 137:../../libDaisy/src/hid/disp/graphics_common.h ****     }
 138:../../libDaisy/src/hid/disp/graphics_common.h **** 
 139:../../libDaisy/src/hid/disp/graphics_common.h ****     Rectangle WithTrimmedLeft(int16_t pxToTrim) const
 140:../../libDaisy/src/hid/disp/graphics_common.h ****     {
 141:../../libDaisy/src/hid/disp/graphics_common.h ****         return {
 142:../../libDaisy/src/hid/disp/graphics_common.h ****             int16_t(x_ + pxToTrim), y_, int16_t(width_ - pxToTrim), height_};
 143:../../libDaisy/src/hid/disp/graphics_common.h ****     }
 144:../../libDaisy/src/hid/disp/graphics_common.h **** 
 145:../../libDaisy/src/hid/disp/graphics_common.h ****     Rectangle WithTrimmedRight(int16_t pxToTrim) const
 146:../../libDaisy/src/hid/disp/graphics_common.h ****     {
 147:../../libDaisy/src/hid/disp/graphics_common.h ****         return {x_, y_, int16_t(width_ - pxToTrim), height_};
 148:../../libDaisy/src/hid/disp/graphics_common.h ****     }
 149:../../libDaisy/src/hid/disp/graphics_common.h **** 
 150:../../libDaisy/src/hid/disp/graphics_common.h ****     Rectangle WithTrimmedTop(int16_t pxToTrim) const
 151:../../libDaisy/src/hid/disp/graphics_common.h ****     {
 152:../../libDaisy/src/hid/disp/graphics_common.h ****         return {
 153:../../libDaisy/src/hid/disp/graphics_common.h ****             x_, int16_t(y_ + pxToTrim), width_, int16_t(height_ - pxToTrim)};
 154:../../libDaisy/src/hid/disp/graphics_common.h ****     }
 155:../../libDaisy/src/hid/disp/graphics_common.h **** 
 156:../../libDaisy/src/hid/disp/graphics_common.h ****     Rectangle WithTrimmedBottom(int16_t pxToTrim) const
 157:../../libDaisy/src/hid/disp/graphics_common.h ****     {
 158:../../libDaisy/src/hid/disp/graphics_common.h ****         return {x_, y_, width_, int16_t(height_ - pxToTrim)};
 159:../../libDaisy/src/hid/disp/graphics_common.h ****     }
 160:../../libDaisy/src/hid/disp/graphics_common.h **** 
 161:../../libDaisy/src/hid/disp/graphics_common.h ****     Rectangle WithCenterX(int16_t centerX) const
 162:../../libDaisy/src/hid/disp/graphics_common.h ****     {
 163:../../libDaisy/src/hid/disp/graphics_common.h ****         return {int16_t(x_ + centerX - GetCenterX()), y_, width_, height_};
 164:../../libDaisy/src/hid/disp/graphics_common.h ****     }
 165:../../libDaisy/src/hid/disp/graphics_common.h **** 
 166:../../libDaisy/src/hid/disp/graphics_common.h ****     Rectangle WithCenterY(int16_t centerY) const
 167:../../libDaisy/src/hid/disp/graphics_common.h ****     {
 168:../../libDaisy/src/hid/disp/graphics_common.h ****         return {x_, int16_t(y_ + centerY - GetCenterY()), width_, height_};
 169:../../libDaisy/src/hid/disp/graphics_common.h ****     }
 170:../../libDaisy/src/hid/disp/graphics_common.h **** 
 171:../../libDaisy/src/hid/disp/graphics_common.h ****     Rectangle WithCenter(int16_t centerX, int16_t centerY) const
 172:../../libDaisy/src/hid/disp/graphics_common.h ****     {
 173:../../libDaisy/src/hid/disp/graphics_common.h ****         return {int16_t(x_ + centerX - GetCenterX()),
ARM GAS  /tmp/cc3dlQC7.s 			page 25


 174:../../libDaisy/src/hid/disp/graphics_common.h ****                 int16_t(y_ + centerY - GetCenterY()),
 175:../../libDaisy/src/hid/disp/graphics_common.h ****                 width_,
 176:../../libDaisy/src/hid/disp/graphics_common.h ****                 height_};
 177:../../libDaisy/src/hid/disp/graphics_common.h ****     }
 178:../../libDaisy/src/hid/disp/graphics_common.h **** 
 179:../../libDaisy/src/hid/disp/graphics_common.h ****     Rectangle RemoveFromLeft(int16_t pxToRemove)
 180:../../libDaisy/src/hid/disp/graphics_common.h ****     {
 181:../../libDaisy/src/hid/disp/graphics_common.h ****         const auto result = this->WithWidth(min(pxToRemove, width_));
 182:../../libDaisy/src/hid/disp/graphics_common.h ****         x_ += min(pxToRemove, width_);
 183:../../libDaisy/src/hid/disp/graphics_common.h ****         width_ = max(int16_t(width_ - pxToRemove), 0);
 184:../../libDaisy/src/hid/disp/graphics_common.h ****         return result;
 185:../../libDaisy/src/hid/disp/graphics_common.h ****     }
 186:../../libDaisy/src/hid/disp/graphics_common.h **** 
 187:../../libDaisy/src/hid/disp/graphics_common.h ****     Rectangle RemoveFromRight(int16_t pxToRemove)
 188:../../libDaisy/src/hid/disp/graphics_common.h ****     {
 189:../../libDaisy/src/hid/disp/graphics_common.h ****         const auto canRemove = min(pxToRemove, width_);
 190:../../libDaisy/src/hid/disp/graphics_common.h ****         width_ -= canRemove;
 191:../../libDaisy/src/hid/disp/graphics_common.h ****         return {int16_t(x_ + width_), y_, canRemove, height_};
 192:../../libDaisy/src/hid/disp/graphics_common.h ****     }
 193:../../libDaisy/src/hid/disp/graphics_common.h **** 
 194:../../libDaisy/src/hid/disp/graphics_common.h ****     Rectangle RemoveFromTop(int16_t pxToRemove)
 460              		.loc 3 194 15 view .LVU74
 461              	.LBB410:
 195:../../libDaisy/src/hid/disp/graphics_common.h ****     {
 196:../../libDaisy/src/hid/disp/graphics_common.h ****         const auto result = this->WithHeight(min(pxToRemove, height_));
 462              		.loc 3 196 9 view .LVU75
 463              	.LBB411:
 464              	.LBI411:
 197:../../libDaisy/src/hid/disp/graphics_common.h ****         y_ += min(pxToRemove, height_);
 198:../../libDaisy/src/hid/disp/graphics_common.h ****         height_ = max(height_ - pxToRemove, 0);
 199:../../libDaisy/src/hid/disp/graphics_common.h ****         return result;
 200:../../libDaisy/src/hid/disp/graphics_common.h ****     }
 201:../../libDaisy/src/hid/disp/graphics_common.h **** 
 202:../../libDaisy/src/hid/disp/graphics_common.h ****     Rectangle RemoveFromBottom(int16_t pxToRemove)
 203:../../libDaisy/src/hid/disp/graphics_common.h ****     {
 204:../../libDaisy/src/hid/disp/graphics_common.h ****         const auto canRemove = min(pxToRemove, height_);
 205:../../libDaisy/src/hid/disp/graphics_common.h ****         height_ -= canRemove;
 206:../../libDaisy/src/hid/disp/graphics_common.h ****         return {x_, int16_t(y_ + height_), width_, canRemove};
 207:../../libDaisy/src/hid/disp/graphics_common.h ****     }
 208:../../libDaisy/src/hid/disp/graphics_common.h **** 
 209:../../libDaisy/src/hid/disp/graphics_common.h ****     Rectangle AlignedWithin(const Rectangle& other, Alignment alignment) const
 210:../../libDaisy/src/hid/disp/graphics_common.h ****     {
 211:../../libDaisy/src/hid/disp/graphics_common.h ****         switch(alignment)
 212:../../libDaisy/src/hid/disp/graphics_common.h ****         {
 213:../../libDaisy/src/hid/disp/graphics_common.h ****             case Alignment::topLeft:
 214:../../libDaisy/src/hid/disp/graphics_common.h ****                 return {other.x_, other.y_, width_, height_};
 215:../../libDaisy/src/hid/disp/graphics_common.h ****             case Alignment::topRight:
 216:../../libDaisy/src/hid/disp/graphics_common.h ****                 return {int16_t(other.GetRight() - width_),
 217:../../libDaisy/src/hid/disp/graphics_common.h ****                         other.y_,
 218:../../libDaisy/src/hid/disp/graphics_common.h ****                         width_,
 219:../../libDaisy/src/hid/disp/graphics_common.h ****                         height_};
 220:../../libDaisy/src/hid/disp/graphics_common.h ****             case Alignment::topCentered:
 221:../../libDaisy/src/hid/disp/graphics_common.h ****                 return {int16_t(x_ + (other.GetCenterX() - GetCenterX())),
 222:../../libDaisy/src/hid/disp/graphics_common.h ****                         other.y_,
 223:../../libDaisy/src/hid/disp/graphics_common.h ****                         width_,
 224:../../libDaisy/src/hid/disp/graphics_common.h ****                         height_};
 225:../../libDaisy/src/hid/disp/graphics_common.h ****             case Alignment::bottomLeft:
ARM GAS  /tmp/cc3dlQC7.s 			page 26


 226:../../libDaisy/src/hid/disp/graphics_common.h ****                 return {other.x_,
 227:../../libDaisy/src/hid/disp/graphics_common.h ****                         int16_t(other.GetBottom() - height_),
 228:../../libDaisy/src/hid/disp/graphics_common.h ****                         width_,
 229:../../libDaisy/src/hid/disp/graphics_common.h ****                         height_};
 230:../../libDaisy/src/hid/disp/graphics_common.h ****             case Alignment::bottomRight:
 231:../../libDaisy/src/hid/disp/graphics_common.h ****                 return {int16_t(other.GetRight() - width_),
 232:../../libDaisy/src/hid/disp/graphics_common.h ****                         int16_t(other.GetBottom() - height_),
 233:../../libDaisy/src/hid/disp/graphics_common.h ****                         width_,
 234:../../libDaisy/src/hid/disp/graphics_common.h ****                         height_};
 235:../../libDaisy/src/hid/disp/graphics_common.h ****             case Alignment::bottomCentered:
 236:../../libDaisy/src/hid/disp/graphics_common.h ****                 return {int16_t(x_ + (other.GetCenterX() - GetCenterX())),
 237:../../libDaisy/src/hid/disp/graphics_common.h ****                         int16_t(other.GetBottom() - height_),
 238:../../libDaisy/src/hid/disp/graphics_common.h ****                         width_,
 239:../../libDaisy/src/hid/disp/graphics_common.h ****                         height_};
 240:../../libDaisy/src/hid/disp/graphics_common.h ****             case Alignment::centeredLeft:
 241:../../libDaisy/src/hid/disp/graphics_common.h ****                 return {other.x_,
 242:../../libDaisy/src/hid/disp/graphics_common.h ****                         int16_t(y_ + (other.GetCenterY() - GetCenterY())),
 243:../../libDaisy/src/hid/disp/graphics_common.h ****                         width_,
 244:../../libDaisy/src/hid/disp/graphics_common.h ****                         height_};
 245:../../libDaisy/src/hid/disp/graphics_common.h ****             case Alignment::centeredRight:
 246:../../libDaisy/src/hid/disp/graphics_common.h ****                 return {int16_t(other.GetRight() - width_),
 247:../../libDaisy/src/hid/disp/graphics_common.h ****                         int16_t(y_ + (other.GetCenterY() - GetCenterY())),
 248:../../libDaisy/src/hid/disp/graphics_common.h ****                         width_,
 249:../../libDaisy/src/hid/disp/graphics_common.h ****                         height_};
 250:../../libDaisy/src/hid/disp/graphics_common.h ****             case Alignment::centered:
 251:../../libDaisy/src/hid/disp/graphics_common.h ****                 return {int16_t(x_ + (other.GetCenterX() - GetCenterX())),
 252:../../libDaisy/src/hid/disp/graphics_common.h ****                         int16_t(y_ + (other.GetCenterY() - GetCenterY())),
 253:../../libDaisy/src/hid/disp/graphics_common.h ****                         width_,
 254:../../libDaisy/src/hid/disp/graphics_common.h ****                         height_};
 255:../../libDaisy/src/hid/disp/graphics_common.h ****             default: return {};
 256:../../libDaisy/src/hid/disp/graphics_common.h ****         }
 257:../../libDaisy/src/hid/disp/graphics_common.h ****     }
 258:../../libDaisy/src/hid/disp/graphics_common.h **** 
 259:../../libDaisy/src/hid/disp/graphics_common.h ****   private:
 260:../../libDaisy/src/hid/disp/graphics_common.h ****     int16_t x_, y_, width_, height_;
 261:../../libDaisy/src/hid/disp/graphics_common.h ****     int16_t max(int16_t a, int16_t b) { return (a > b) ? a : b; }
 262:../../libDaisy/src/hid/disp/graphics_common.h ****     int16_t min(int16_t a, int16_t b) { return (a < b) ? a : b; }
 465              		.loc 3 262 13 view .LVU76
 466              	.LBB412:
 467              		.loc 3 262 41 view .LVU77
 468              	.LBE412:
 469              	.LBE411:
 470              	.LBB414:
 471              	.LBB415:
 472              	.LBB416:
 473              	.LBB417:
 474              	.LBB418:
 261:../../libDaisy/src/hid/disp/graphics_common.h ****     int16_t min(int16_t a, int16_t b) { return (a < b) ? a : b; }
 475              		.loc 3 261 56 is_stmt 0 view .LVU78
 476 0014 B8F90460 		ldrsh	r6, [r8, #4]
 477              	.LBE418:
 478              	.LBE417:
 479              	.LBE416:
 480              	.LBE415:
 481              	.LBE414:
 482              	.LBE410:
 483              	.LBE409:
ARM GAS  /tmp/cc3dlQC7.s 			page 27


 442:Util/base_effect_module.cpp ****     auto topRowRect = boundsToDrawIn.RemoveFromTop(topRowHeight);
 484              		.loc 1 442 51 discriminator 1 view .LVU79
 485 0018 0028     		cmp	r0, #0
 486              	.LBB448:
 487              	.LBB443:
 488              	.LBB433:
 489              	.LBB430:
  73:../../libDaisy/src/hid/disp/graphics_common.h ****     }
 490              		.loc 3 73 21 view .LVU80
 491 001a B8F902A0 		ldrsh	r10, [r8, #2]
 492              	.LBB427:
 493              	.LBB421:
 494              	.LBB419:
 261:../../libDaisy/src/hid/disp/graphics_common.h ****     int16_t min(int16_t a, int16_t b) { return (a < b) ? a : b; }
 495              		.loc 3 261 56 view .LVU81
 496 001e 26EAE676 		bic	r6, r6, r6, asr #31
 497              	.LBE419:
 498              	.LBE421:
 499              	.LBE427:
 500              	.LBE430:
 501              	.LBE433:
 502              	.LBE443:
 503              	.LBE448:
 442:Util/base_effect_module.cpp ****     auto topRowRect = boundsToDrawIn.RemoveFromTop(topRowHeight);
 504              		.loc 1 442 51 discriminator 1 view .LVU82
 505 0022 B4BF     		ite	lt
 506 0024 441C     		addlt	r4, r0, #1
 507 0026 0446     		movge	r4, r0
 508              	.LBB449:
 509              	.LBB450:
 112:../../libDaisy/src/hid/disp/graphics_common.h ****     }
 510              		.loc 3 112 45 view .LVU83
 511 0028 AAF10505 		sub	r5, r10, #5
 512              	.LBE450:
 513              	.LBE449:
 514              	.LBB461:
 515              	.LBB444:
 516              	.LBB434:
 517              	.LBB413:
 518              		.loc 3 262 56 view .LVU84
 519 002c 6310     		asrs	r3, r4, #1
 520              	.LVL25:
 521              		.loc 3 262 56 view .LVU85
 522 002e 8342     		cmp	r3, r0
 523 0030 A8BF     		it	ge
 524 0032 0346     		movge	r3, r0
 525              	.LVL26:
 526              		.loc 3 262 56 view .LVU86
 527              	.LBE413:
 528              	.LBE434:
 529              	.LBB435:
 530              	.LBI414:
  71:../../libDaisy/src/hid/disp/graphics_common.h ****     {
 531              		.loc 3 71 15 is_stmt 1 view .LVU87
 532              	.LBB431:
  73:../../libDaisy/src/hid/disp/graphics_common.h ****     }
 533              		.loc 3 73 9 view .LVU88
ARM GAS  /tmp/cc3dlQC7.s 			page 28


 534              	.LBB428:
 535              	.LBI416:
  31:../../libDaisy/src/hid/disp/graphics_common.h ****     : x_(x), y_(y), width_(max(0, width)), height_(max(0, height))
 536              		.loc 3 31 5 view .LVU89
 537              	.LBB422:
 538              	.LBI417:
 261:../../libDaisy/src/hid/disp/graphics_common.h ****     int16_t min(int16_t a, int16_t b) { return (a < b) ? a : b; }
 539              		.loc 3 261 13 view .LVU90
 540              	.LBB420:
 261:../../libDaisy/src/hid/disp/graphics_common.h ****     int16_t min(int16_t a, int16_t b) { return (a < b) ? a : b; }
 541              		.loc 3 261 41 view .LVU91
 261:../../libDaisy/src/hid/disp/graphics_common.h ****     int16_t min(int16_t a, int16_t b) { return (a < b) ? a : b; }
 542              		.loc 3 261 41 is_stmt 0 view .LVU92
 543              	.LBE420:
 544              	.LBE422:
 545              	.LBB423:
 546              	.LBI423:
 261:../../libDaisy/src/hid/disp/graphics_common.h ****     int16_t min(int16_t a, int16_t b) { return (a < b) ? a : b; }
 547              		.loc 3 261 13 is_stmt 1 view .LVU93
 548              	.LBB424:
 261:../../libDaisy/src/hid/disp/graphics_common.h ****     int16_t min(int16_t a, int16_t b) { return (a < b) ? a : b; }
 549              		.loc 3 261 41 view .LVU94
 550              	.LBE424:
 551              	.LBE423:
 552              	.LBE428:
 553              	.LBE431:
 554              	.LBE435:
 198:../../libDaisy/src/hid/disp/graphics_common.h ****         return result;
 555              		.loc 3 198 31 is_stmt 0 view .LVU95
 556 0034 A0EB6400 		sub	r0, r0, r4, asr #1
 557              	.LBE444:
 558              	.LBE461:
 559              	.LBB462:
 560              	.LBB463:
 561              	.LBB464:
 562              	.LBB465:
 563              		.loc 3 262 56 view .LVU96
 564 0038 092E     		cmp	r6, #9
 565              	.LBE465:
 566              	.LBE464:
 182:../../libDaisy/src/hid/disp/graphics_common.h ****         width_ = max(int16_t(width_ - pxToRemove), 0);
 567              		.loc 3 182 9 discriminator 1 view .LVU97
 568 003a B8F90040 		ldrsh	r4, [r8]
 569              	.LBE463:
 570              	.LBE462:
 571              	.LBB482:
 572              	.LBB445:
 573              	.LBB436:
 574              	.LBB437:
 261:../../libDaisy/src/hid/disp/graphics_common.h ****     int16_t min(int16_t a, int16_t b) { return (a < b) ? a : b; }
 575              		.loc 3 261 56 view .LVU98
 576 003e 00B2     		sxth	r0, r0
 577              	.LBE437:
 578              	.LBE436:
 579              	.LBB440:
 580              	.LBB432:
 581              	.LBB429:
ARM GAS  /tmp/cc3dlQC7.s 			page 29


 582              	.LBB426:
 583              	.LBB425:
 584 0040 23EAE37B 		bic	fp, r3, r3, asr #31
 585              	.LBE425:
 586              	.LBE426:
 587              	.LBE429:
 588              	.LBE432:
 589              	.LBE440:
 197:../../libDaisy/src/hid/disp/graphics_common.h ****         height_ = max(height_ - pxToRemove, 0);
 590              		.loc 3 197 12 discriminator 1 view .LVU99
 591 0044 5344     		add	r3, r3, r10
 592              	.LVL27:
 593              	.LBB441:
 594              	.LBB438:
 261:../../libDaisy/src/hid/disp/graphics_common.h ****     int16_t min(int16_t a, int16_t b) { return (a < b) ? a : b; }
 595              		.loc 3 261 56 view .LVU100
 596 0046 20EAE070 		bic	r0, r0, r0, asr #31
 597              	.LBE438:
 598              	.LBE441:
 599              	.LBE445:
 600              	.LBE482:
 601              	.LBB483:
 602              	.LBB457:
 112:../../libDaisy/src/hid/disp/graphics_common.h ****     }
 603              		.loc 3 112 45 view .LVU101
 604 004a 05EB6B05 		add	r5, r5, fp, asr #1
 605              	.LBE457:
 606              	.LBE483:
 607              	.LBB484:
 608              	.LBB446:
 197:../../libDaisy/src/hid/disp/graphics_common.h ****         height_ = max(height_ - pxToRemove, 0);
 609              		.loc 3 197 12 discriminator 1 view .LVU102
 610 004e A8F80230 		strh	r3, [r8, #2]	@ movhi
 198:../../libDaisy/src/hid/disp/graphics_common.h ****         return result;
 611              		.loc 3 198 17 discriminator 1 view .LVU103
 612 0052 A8F80600 		strh	r0, [r8, #6]	@ movhi
 198:../../libDaisy/src/hid/disp/graphics_common.h ****         return result;
 613              		.loc 3 198 17 discriminator 1 view .LVU104
 614              	.LBE446:
 615              	.LBE484:
 616              	.LBB485:
 617              	.LBB478:
 183:../../libDaisy/src/hid/disp/graphics_common.h ****         return result;
 618              		.loc 3 183 37 view .LVU105
 619 0056 A6F10900 		sub	r0, r6, #9
 620              	.LVL28:
 183:../../libDaisy/src/hid/disp/graphics_common.h ****         return result;
 621              		.loc 3 183 37 view .LVU106
 622              	.LBE478:
 623              	.LBE485:
 624              	.LBB486:
 625              	.LBB447:
 197:../../libDaisy/src/hid/disp/graphics_common.h ****         height_ = max(height_ - pxToRemove, 0);
 626              		.loc 3 197 9 is_stmt 1 view .LVU107
 198:../../libDaisy/src/hid/disp/graphics_common.h ****         return result;
 627              		.loc 3 198 9 view .LVU108
 628              	.LBB442:
ARM GAS  /tmp/cc3dlQC7.s 			page 30


 629              	.LBI436:
 261:../../libDaisy/src/hid/disp/graphics_common.h ****     int16_t min(int16_t a, int16_t b) { return (a < b) ? a : b; }
 630              		.loc 3 261 13 view .LVU109
 631              	.LBB439:
 261:../../libDaisy/src/hid/disp/graphics_common.h ****     int16_t min(int16_t a, int16_t b) { return (a < b) ? a : b; }
 632              		.loc 3 261 41 view .LVU110
 261:../../libDaisy/src/hid/disp/graphics_common.h ****     int16_t min(int16_t a, int16_t b) { return (a < b) ? a : b; }
 633              		.loc 3 261 41 is_stmt 0 view .LVU111
 634              	.LBE439:
 635              	.LBE442:
 199:../../libDaisy/src/hid/disp/graphics_common.h ****     }
 636              		.loc 3 199 9 is_stmt 1 view .LVU112
 199:../../libDaisy/src/hid/disp/graphics_common.h ****     }
 637              		.loc 3 199 9 is_stmt 0 view .LVU113
 638              	.LBE447:
 639              	.LBE486:
 446:Util/base_effect_module.cpp ****     const bool hasNext = currentIndex < numItemsTotal - 1;
 640              		.loc 1 446 5 is_stmt 1 view .LVU114
 641              		.loc 1 447 5 view .LVU115
 448:Util/base_effect_module.cpp **** 
 449:Util/base_effect_module.cpp ****     // Draw the Arrows before and after
 450:Util/base_effect_module.cpp ****     auto leftArrowRect = topRowRect.RemoveFromLeft(9).WithSizeKeepingCenter(5, 9).Translated(0, -1)
 642              		.loc 1 450 5 view .LVU116
 643              	.LBB487:
 644              	.LBI462:
 179:../../libDaisy/src/hid/disp/graphics_common.h ****     {
 645              		.loc 3 179 15 view .LVU117
 646              	.LBB479:
 181:../../libDaisy/src/hid/disp/graphics_common.h ****         x_ += min(pxToRemove, width_);
 647              		.loc 3 181 9 view .LVU118
 648              	.LBB467:
 649              	.LBI464:
 650              		.loc 3 262 13 view .LVU119
 651              	.LBB466:
 652              		.loc 3 262 41 view .LVU120
 653              		.loc 3 262 56 is_stmt 0 view .LVU121
 654 005a A8BF     		it	ge
 655 005c 0926     		movge	r6, #9
 656              	.LVL29:
 657              		.loc 3 262 56 view .LVU122
 658              	.LBE466:
 659              	.LBE467:
 660              	.LBB468:
 661              	.LBI468:
  67:../../libDaisy/src/hid/disp/graphics_common.h ****     {
 662              		.loc 3 67 15 is_stmt 1 view .LVU123
  69:../../libDaisy/src/hid/disp/graphics_common.h ****     }
 663              		.loc 3 69 9 view .LVU124
 664              	.LBB469:
 665              	.LBI469:
  31:../../libDaisy/src/hid/disp/graphics_common.h ****     : x_(x), y_(y), width_(max(0, width)), height_(max(0, height))
 666              		.loc 3 31 5 view .LVU125
 667              	.LBB470:
 668              	.LBI470:
 261:../../libDaisy/src/hid/disp/graphics_common.h ****     int16_t min(int16_t a, int16_t b) { return (a < b) ? a : b; }
 669              		.loc 3 261 13 view .LVU126
 261:../../libDaisy/src/hid/disp/graphics_common.h ****     int16_t min(int16_t a, int16_t b) { return (a < b) ? a : b; }
ARM GAS  /tmp/cc3dlQC7.s 			page 31


 670              		.loc 3 261 41 view .LVU127
 261:../../libDaisy/src/hid/disp/graphics_common.h ****     int16_t min(int16_t a, int16_t b) { return (a < b) ? a : b; }
 671              		.loc 3 261 41 is_stmt 0 view .LVU128
 672              	.LBE470:
 673              	.LBB471:
 674              	.LBI471:
 261:../../libDaisy/src/hid/disp/graphics_common.h ****     int16_t min(int16_t a, int16_t b) { return (a < b) ? a : b; }
 675              		.loc 3 261 13 is_stmt 1 view .LVU129
 261:../../libDaisy/src/hid/disp/graphics_common.h ****     int16_t min(int16_t a, int16_t b) { return (a < b) ? a : b; }
 676              		.loc 3 261 41 view .LVU130
 261:../../libDaisy/src/hid/disp/graphics_common.h ****     int16_t min(int16_t a, int16_t b) { return (a < b) ? a : b; }
 677              		.loc 3 261 41 is_stmt 0 view .LVU131
 678              	.LBE471:
 679              	.LBE469:
 680              	.LBE468:
 182:../../libDaisy/src/hid/disp/graphics_common.h ****         width_ = max(int16_t(width_ - pxToRemove), 0);
 681              		.loc 3 182 9 is_stmt 1 view .LVU132
 682              	.LBE479:
 683              	.LBE487:
 684              	.LBB488:
 685              	.LBB458:
 112:../../libDaisy/src/hid/disp/graphics_common.h ****     }
 686              		.loc 3 112 45 is_stmt 0 view .LVU133
 687 005e ADB2     		uxth	r5, r5
 688              	.LBE458:
 689              	.LBE488:
 690              	.LBB489:
 691              	.LBB480:
 692              	.LBB472:
 693              	.LBB473:
 261:../../libDaisy/src/hid/disp/graphics_common.h ****     int16_t min(int16_t a, int16_t b) { return (a < b) ? a : b; }
 694              		.loc 3 261 56 view .LVU134
 695 0060 00B2     		sxth	r0, r0
 696              	.LBE473:
 697              	.LBE472:
 182:../../libDaisy/src/hid/disp/graphics_common.h ****         width_ = max(int16_t(width_ - pxToRemove), 0);
 698              		.loc 3 182 12 discriminator 1 view .LVU135
 699 0062 04EB060E 		add	lr, r4, r6
 700              	.LBB476:
 701              	.LBB474:
 261:../../libDaisy/src/hid/disp/graphics_common.h ****     int16_t min(int16_t a, int16_t b) { return (a < b) ? a : b; }
 702              		.loc 3 261 56 view .LVU136
 703 0066 20EAE070 		bic	r0, r0, r0, asr #31
 704              	.LBE474:
 705              	.LBE476:
 706              	.LBE480:
 707              	.LBE489:
 708              	.LBB490:
 709              	.LBB491:
 710              	.LBB492:
 711              	.LBB493:
 712              		.loc 3 262 56 view .LVU137
 713 006a 0928     		cmp	r0, #9
 714 006c 0346     		mov	r3, r0
 715 006e A8BF     		it	ge
 716 0070 0923     		movge	r3, #9
 717              	.LBE493:
ARM GAS  /tmp/cc3dlQC7.s 			page 32


 718              	.LBE492:
 719              	.LBE491:
 720              	.LBE490:
 721              	.LBB501:
 722              	.LBB481:
 183:../../libDaisy/src/hid/disp/graphics_common.h ****         return result;
 723              		.loc 3 183 9 is_stmt 1 view .LVU138
 724              	.LVL30:
 725              	.LBB477:
 726              	.LBI472:
 261:../../libDaisy/src/hid/disp/graphics_common.h ****     int16_t min(int16_t a, int16_t b) { return (a < b) ? a : b; }
 727              		.loc 3 261 13 view .LVU139
 728              	.LBB475:
 261:../../libDaisy/src/hid/disp/graphics_common.h ****     int16_t min(int16_t a, int16_t b) { return (a < b) ? a : b; }
 729              		.loc 3 261 41 view .LVU140
 261:../../libDaisy/src/hid/disp/graphics_common.h ****     int16_t min(int16_t a, int16_t b) { return (a < b) ? a : b; }
 730              		.loc 3 261 41 is_stmt 0 view .LVU141
 731              	.LBE475:
 732              	.LBE477:
 184:../../libDaisy/src/hid/disp/graphics_common.h ****     }
 733              		.loc 3 184 9 is_stmt 1 view .LVU142
 184:../../libDaisy/src/hid/disp/graphics_common.h ****     }
 734              		.loc 3 184 9 is_stmt 0 view .LVU143
 735              	.LBE481:
 736              	.LBE501:
 737              	.LBB502:
 738              	.LBI502:
  89:../../libDaisy/src/hid/disp/graphics_common.h ****     {
 739              		.loc 3 89 15 is_stmt 1 view .LVU144
  91:../../libDaisy/src/hid/disp/graphics_common.h ****             .WithCenter(GetCenterX(), GetCenterY());
 740              		.loc 3 91 9 view .LVU145
 741              	.LBB503:
 742              	.LBI503:
  31:../../libDaisy/src/hid/disp/graphics_common.h ****     : x_(x), y_(y), width_(max(0, width)), height_(max(0, height))
 743              		.loc 3 31 5 view .LVU146
 744              	.LBB504:
 745              	.LBI504:
 261:../../libDaisy/src/hid/disp/graphics_common.h ****     int16_t min(int16_t a, int16_t b) { return (a < b) ? a : b; }
 746              		.loc 3 261 13 view .LVU147
 261:../../libDaisy/src/hid/disp/graphics_common.h ****     int16_t min(int16_t a, int16_t b) { return (a < b) ? a : b; }
 747              		.loc 3 261 41 view .LVU148
 261:../../libDaisy/src/hid/disp/graphics_common.h ****     int16_t min(int16_t a, int16_t b) { return (a < b) ? a : b; }
 748              		.loc 3 261 41 is_stmt 0 view .LVU149
 749              	.LBE504:
 750              	.LBB505:
 751              	.LBI505:
 261:../../libDaisy/src/hid/disp/graphics_common.h ****     int16_t min(int16_t a, int16_t b) { return (a < b) ? a : b; }
 752              		.loc 3 261 13 is_stmt 1 view .LVU150
 261:../../libDaisy/src/hid/disp/graphics_common.h ****     int16_t min(int16_t a, int16_t b) { return (a < b) ? a : b; }
 753              		.loc 3 261 41 view .LVU151
 261:../../libDaisy/src/hid/disp/graphics_common.h ****     int16_t min(int16_t a, int16_t b) { return (a < b) ? a : b; }
 754              		.loc 3 261 41 is_stmt 0 view .LVU152
 755              	.LBE505:
 756              	.LBE503:
 757              	.LBB506:
 758              	.LBI506:
  62:../../libDaisy/src/hid/disp/graphics_common.h ****     int16_t GetCenterY() const { return y_ + height_ / 2; }
ARM GAS  /tmp/cc3dlQC7.s 			page 33


 759              		.loc 3 62 13 is_stmt 1 view .LVU153
 760              	.LBB507:
  62:../../libDaisy/src/hid/disp/graphics_common.h ****     int16_t GetCenterY() const { return y_ + height_ / 2; }
 761              		.loc 3 62 34 view .LVU154
  62:../../libDaisy/src/hid/disp/graphics_common.h ****     int16_t GetCenterY() const { return y_ + height_ / 2; }
 762              		.loc 3 62 34 is_stmt 0 view .LVU155
 763              	.LBE507:
 764              	.LBE506:
 765              	.LBB509:
 766              	.LBI509:
  63:../../libDaisy/src/hid/disp/graphics_common.h **** 
 767              		.loc 3 63 13 is_stmt 1 view .LVU156
 768              	.LBB510:
  63:../../libDaisy/src/hid/disp/graphics_common.h **** 
 769              		.loc 3 63 34 view .LVU157
  63:../../libDaisy/src/hid/disp/graphics_common.h **** 
 770              		.loc 3 63 34 is_stmt 0 view .LVU158
 771              	.LBE510:
 772              	.LBE509:
 773              	.LBB511:
 774              	.LBI511:
 171:../../libDaisy/src/hid/disp/graphics_common.h ****     {
 775              		.loc 3 171 15 is_stmt 1 view .LVU159
 776              	.LBB512:
 173:../../libDaisy/src/hid/disp/graphics_common.h ****                 int16_t(y_ + centerY - GetCenterY()),
 777              		.loc 3 173 9 view .LVU160
 778              	.LBB513:
 779              	.LBI513:
  31:../../libDaisy/src/hid/disp/graphics_common.h ****     : x_(x), y_(y), width_(max(0, width)), height_(max(0, height))
 780              		.loc 3 31 5 view .LVU161
 781              	.LBB514:
 782              	.LBI514:
 261:../../libDaisy/src/hid/disp/graphics_common.h ****     int16_t min(int16_t a, int16_t b) { return (a < b) ? a : b; }
 783              		.loc 3 261 13 view .LVU162
 261:../../libDaisy/src/hid/disp/graphics_common.h ****     int16_t min(int16_t a, int16_t b) { return (a < b) ? a : b; }
 784              		.loc 3 261 41 view .LVU163
 261:../../libDaisy/src/hid/disp/graphics_common.h ****     int16_t min(int16_t a, int16_t b) { return (a < b) ? a : b; }
 785              		.loc 3 261 41 is_stmt 0 view .LVU164
 786              	.LBE514:
 787              	.LBB515:
 788              	.LBI515:
 261:../../libDaisy/src/hid/disp/graphics_common.h ****     int16_t min(int16_t a, int16_t b) { return (a < b) ? a : b; }
 789              		.loc 3 261 13 is_stmt 1 view .LVU165
 261:../../libDaisy/src/hid/disp/graphics_common.h ****     int16_t min(int16_t a, int16_t b) { return (a < b) ? a : b; }
 790              		.loc 3 261 41 view .LVU166
 261:../../libDaisy/src/hid/disp/graphics_common.h ****     int16_t min(int16_t a, int16_t b) { return (a < b) ? a : b; }
 791              		.loc 3 261 41 is_stmt 0 view .LVU167
 792              	.LBE515:
 793              	.LBE513:
 794              	.LBE512:
 795              	.LBE511:
 796              	.LBE502:
 797              	.LBB521:
 798              	.LBI449:
 110:../../libDaisy/src/hid/disp/graphics_common.h ****     {
 799              		.loc 3 110 15 is_stmt 1 view .LVU168
 800              	.LBB459:
ARM GAS  /tmp/cc3dlQC7.s 			page 34


 112:../../libDaisy/src/hid/disp/graphics_common.h ****     }
 801              		.loc 3 112 9 view .LVU169
 802              	.LBB451:
 803              	.LBI451:
  31:../../libDaisy/src/hid/disp/graphics_common.h ****     : x_(x), y_(y), width_(max(0, width)), height_(max(0, height))
 804              		.loc 3 31 5 view .LVU170
 805              	.LBB452:
 806              	.LBB453:
 807              	.LBI453:
 261:../../libDaisy/src/hid/disp/graphics_common.h ****     int16_t min(int16_t a, int16_t b) { return (a < b) ? a : b; }
 808              		.loc 3 261 13 view .LVU171
 261:../../libDaisy/src/hid/disp/graphics_common.h ****     int16_t min(int16_t a, int16_t b) { return (a < b) ? a : b; }
 809              		.loc 3 261 41 view .LVU172
 261:../../libDaisy/src/hid/disp/graphics_common.h ****     int16_t min(int16_t a, int16_t b) { return (a < b) ? a : b; }
 810              		.loc 3 261 41 is_stmt 0 view .LVU173
 811              	.LBE453:
 812              	.LBB454:
 813              	.LBI454:
 261:../../libDaisy/src/hid/disp/graphics_common.h ****     int16_t min(int16_t a, int16_t b) { return (a < b) ? a : b; }
 814              		.loc 3 261 13 is_stmt 1 view .LVU174
 261:../../libDaisy/src/hid/disp/graphics_common.h ****     int16_t min(int16_t a, int16_t b) { return (a < b) ? a : b; }
 815              		.loc 3 261 41 view .LVU175
 261:../../libDaisy/src/hid/disp/graphics_common.h ****     int16_t min(int16_t a, int16_t b) { return (a < b) ? a : b; }
 816              		.loc 3 261 41 is_stmt 0 view .LVU176
 817              	.LBE454:
 818              	.LBE452:
 819              	.LBE451:
 820              	.LBE459:
 821              	.LBE521:
 451:Util/base_effect_module.cpp ****     auto rightArrowRect = topRowRect.RemoveFromRight(9).WithSizeKeepingCenter(5, 9).Translated(0, -
 822              		.loc 1 451 5 is_stmt 1 view .LVU177
 823              	.LBB522:
 824              	.LBI490:
 187:../../libDaisy/src/hid/disp/graphics_common.h ****     {
 825              		.loc 3 187 15 view .LVU178
 826              	.LBB499:
 189:../../libDaisy/src/hid/disp/graphics_common.h ****         width_ -= canRemove;
 827              		.loc 3 189 9 view .LVU179
 828              	.LBB495:
 829              	.LBI492:
 830              		.loc 3 262 13 view .LVU180
 831              	.LBB494:
 832              		.loc 3 262 41 view .LVU181
 833              		.loc 3 262 41 is_stmt 0 view .LVU182
 834              	.LBE494:
 835              	.LBE495:
 190:../../libDaisy/src/hid/disp/graphics_common.h ****         return {int16_t(x_ + width_), y_, canRemove, height_};
 836              		.loc 3 190 9 is_stmt 1 view .LVU183
 191:../../libDaisy/src/hid/disp/graphics_common.h ****     }
 837              		.loc 3 191 9 view .LVU184
 838              	.LBE499:
 839              	.LBE522:
 840              	.LBB523:
 452:Util/base_effect_module.cpp **** 
 453:Util/base_effect_module.cpp ****     if (hasPrev) {
 841              		.loc 1 453 5 is_stmt 0 view .LVU185
 842 0072 002A     		cmp	r2, #0
ARM GAS  /tmp/cc3dlQC7.s 			page 35


 843              	.LBE523:
 844              	.LBB559:
 845              	.LBB500:
 190:../../libDaisy/src/hid/disp/graphics_common.h ****         return {int16_t(x_ + width_), y_, canRemove, height_};
 846              		.loc 3 190 16 view .LVU186
 847 0074 A0EB030C 		sub	ip, r0, r3
 848              	.LVL31:
 849              	.LBB496:
 850              	.LBI496:
  31:../../libDaisy/src/hid/disp/graphics_common.h ****     : x_(x), y_(y), width_(max(0, width)), height_(max(0, height))
 851              		.loc 3 31 5 is_stmt 1 view .LVU187
 852              	.LBB497:
 853              	.LBI497:
 261:../../libDaisy/src/hid/disp/graphics_common.h ****     int16_t min(int16_t a, int16_t b) { return (a < b) ? a : b; }
 854              		.loc 3 261 13 view .LVU188
 261:../../libDaisy/src/hid/disp/graphics_common.h ****     int16_t min(int16_t a, int16_t b) { return (a < b) ? a : b; }
 855              		.loc 3 261 41 view .LVU189
 261:../../libDaisy/src/hid/disp/graphics_common.h ****     int16_t min(int16_t a, int16_t b) { return (a < b) ? a : b; }
 856              		.loc 3 261 41 is_stmt 0 view .LVU190
 857              	.LBE497:
 858              	.LBB498:
 859              	.LBI498:
 261:../../libDaisy/src/hid/disp/graphics_common.h ****     int16_t min(int16_t a, int16_t b) { return (a < b) ? a : b; }
 860              		.loc 3 261 13 is_stmt 1 view .LVU191
 261:../../libDaisy/src/hid/disp/graphics_common.h ****     int16_t min(int16_t a, int16_t b) { return (a < b) ? a : b; }
 861              		.loc 3 261 41 view .LVU192
 261:../../libDaisy/src/hid/disp/graphics_common.h ****     int16_t min(int16_t a, int16_t b) { return (a < b) ? a : b; }
 862              		.loc 3 261 41 is_stmt 0 view .LVU193
 863              	.LBE498:
 864              	.LBE496:
 865              	.LBE500:
 866              	.LBE559:
 867              	.LBB560:
 868              	.LBI560:
  89:../../libDaisy/src/hid/disp/graphics_common.h ****     {
 869              		.loc 3 89 15 is_stmt 1 view .LVU194
  91:../../libDaisy/src/hid/disp/graphics_common.h ****             .WithCenter(GetCenterX(), GetCenterY());
 870              		.loc 3 91 9 view .LVU195
 871              	.LBB561:
 872              	.LBI561:
  31:../../libDaisy/src/hid/disp/graphics_common.h ****     : x_(x), y_(y), width_(max(0, width)), height_(max(0, height))
 873              		.loc 3 31 5 view .LVU196
 874              	.LBB562:
 875              	.LBI562:
 261:../../libDaisy/src/hid/disp/graphics_common.h ****     int16_t min(int16_t a, int16_t b) { return (a < b) ? a : b; }
 876              		.loc 3 261 13 view .LVU197
 261:../../libDaisy/src/hid/disp/graphics_common.h ****     int16_t min(int16_t a, int16_t b) { return (a < b) ? a : b; }
 877              		.loc 3 261 41 view .LVU198
 261:../../libDaisy/src/hid/disp/graphics_common.h ****     int16_t min(int16_t a, int16_t b) { return (a < b) ? a : b; }
 878              		.loc 3 261 41 is_stmt 0 view .LVU199
 879              	.LBE562:
 880              	.LBB563:
 881              	.LBI563:
 261:../../libDaisy/src/hid/disp/graphics_common.h ****     int16_t min(int16_t a, int16_t b) { return (a < b) ? a : b; }
 882              		.loc 3 261 13 is_stmt 1 view .LVU200
 261:../../libDaisy/src/hid/disp/graphics_common.h ****     int16_t min(int16_t a, int16_t b) { return (a < b) ? a : b; }
 883              		.loc 3 261 41 view .LVU201
ARM GAS  /tmp/cc3dlQC7.s 			page 36


 261:../../libDaisy/src/hid/disp/graphics_common.h ****     int16_t min(int16_t a, int16_t b) { return (a < b) ? a : b; }
 884              		.loc 3 261 41 is_stmt 0 view .LVU202
 885              	.LBE563:
 886              	.LBE561:
 887              	.LBB564:
 888              	.LBI564:
  62:../../libDaisy/src/hid/disp/graphics_common.h ****     int16_t GetCenterY() const { return y_ + height_ / 2; }
 889              		.loc 3 62 13 is_stmt 1 view .LVU203
 890              	.LBB565:
  62:../../libDaisy/src/hid/disp/graphics_common.h ****     int16_t GetCenterY() const { return y_ + height_ / 2; }
 891              		.loc 3 62 34 view .LVU204
  62:../../libDaisy/src/hid/disp/graphics_common.h ****     int16_t GetCenterY() const { return y_ + height_ / 2; }
 892              		.loc 3 62 34 is_stmt 0 view .LVU205
 893              	.LBE565:
 894              	.LBE564:
 895              	.LBB567:
 896              	.LBI567:
 171:../../libDaisy/src/hid/disp/graphics_common.h ****     {
 897              		.loc 3 171 15 is_stmt 1 view .LVU206
 898              	.LBB568:
 173:../../libDaisy/src/hid/disp/graphics_common.h ****                 int16_t(y_ + centerY - GetCenterY()),
 899              		.loc 3 173 9 view .LVU207
 900              	.LBB569:
 901              	.LBI569:
  31:../../libDaisy/src/hid/disp/graphics_common.h ****     : x_(x), y_(y), width_(max(0, width)), height_(max(0, height))
 902              		.loc 3 31 5 view .LVU208
 903              	.LBB570:
 904              	.LBI570:
 261:../../libDaisy/src/hid/disp/graphics_common.h ****     int16_t min(int16_t a, int16_t b) { return (a < b) ? a : b; }
 905              		.loc 3 261 13 view .LVU209
 261:../../libDaisy/src/hid/disp/graphics_common.h ****     int16_t min(int16_t a, int16_t b) { return (a < b) ? a : b; }
 906              		.loc 3 261 41 view .LVU210
 261:../../libDaisy/src/hid/disp/graphics_common.h ****     int16_t min(int16_t a, int16_t b) { return (a < b) ? a : b; }
 907              		.loc 3 261 41 is_stmt 0 view .LVU211
 908              	.LBE570:
 909              	.LBB571:
 910              	.LBI571:
 261:../../libDaisy/src/hid/disp/graphics_common.h ****     int16_t min(int16_t a, int16_t b) { return (a < b) ? a : b; }
 911              		.loc 3 261 13 is_stmt 1 view .LVU212
 261:../../libDaisy/src/hid/disp/graphics_common.h ****     int16_t min(int16_t a, int16_t b) { return (a < b) ? a : b; }
 912              		.loc 3 261 41 view .LVU213
 261:../../libDaisy/src/hid/disp/graphics_common.h ****     int16_t min(int16_t a, int16_t b) { return (a < b) ? a : b; }
 913              		.loc 3 261 41 is_stmt 0 view .LVU214
 914              	.LBE571:
 915              	.LBE569:
 916              	.LBE568:
 917              	.LBE567:
 918              	.LBE560:
 919              	.LBB577:
 920              	.LBI577:
 110:../../libDaisy/src/hid/disp/graphics_common.h ****     {
 921              		.loc 3 110 15 is_stmt 1 view .LVU215
 112:../../libDaisy/src/hid/disp/graphics_common.h ****     }
 922              		.loc 3 112 9 view .LVU216
 923              	.LBB578:
 924              	.LBI578:
  31:../../libDaisy/src/hid/disp/graphics_common.h ****     : x_(x), y_(y), width_(max(0, width)), height_(max(0, height))
ARM GAS  /tmp/cc3dlQC7.s 			page 37


 925              		.loc 3 31 5 view .LVU217
 926              	.LBB579:
 927              	.LBB580:
 928              	.LBI580:
 261:../../libDaisy/src/hid/disp/graphics_common.h ****     int16_t min(int16_t a, int16_t b) { return (a < b) ? a : b; }
 929              		.loc 3 261 13 view .LVU218
 261:../../libDaisy/src/hid/disp/graphics_common.h ****     int16_t min(int16_t a, int16_t b) { return (a < b) ? a : b; }
 930              		.loc 3 261 41 view .LVU219
 261:../../libDaisy/src/hid/disp/graphics_common.h ****     int16_t min(int16_t a, int16_t b) { return (a < b) ? a : b; }
 931              		.loc 3 261 41 is_stmt 0 view .LVU220
 932              	.LBE580:
 933              	.LBB581:
 934              	.LBI581:
 261:../../libDaisy/src/hid/disp/graphics_common.h ****     int16_t min(int16_t a, int16_t b) { return (a < b) ? a : b; }
 935              		.loc 3 261 13 is_stmt 1 view .LVU221
 261:../../libDaisy/src/hid/disp/graphics_common.h ****     int16_t min(int16_t a, int16_t b) { return (a < b) ? a : b; }
 936              		.loc 3 261 41 view .LVU222
 261:../../libDaisy/src/hid/disp/graphics_common.h ****     int16_t min(int16_t a, int16_t b) { return (a < b) ? a : b; }
 937              		.loc 3 261 41 is_stmt 0 view .LVU223
 938              	.LBE581:
 939              	.LBE579:
 940              	.LBE578:
 941              	.LBE577:
 942              		.loc 1 453 5 is_stmt 1 view .LVU224
 943              	.LBB584:
 944 0078 41DD     		ble	.L28
 945              	.LBE584:
 946              	.LBB585:
 947              	.LBB518:
 948              	.LBB508:
  62:../../libDaisy/src/hid/disp/graphics_common.h ****     int16_t GetCenterY() const { return y_ + height_ / 2; }
 949              		.loc 3 62 44 is_stmt 0 view .LVU225
 950 007a 04EB6604 		add	r4, r4, r6, asr #1
 951              	.LVL32:
  62:../../libDaisy/src/hid/disp/graphics_common.h ****     int16_t GetCenterY() const { return y_ + height_ / 2; }
 952              		.loc 3 62 44 view .LVU226
 953              	.LBE508:
 954              	.LBE518:
 955              	.LBB519:
 956              	.LBB516:
 173:../../libDaisy/src/hid/disp/graphics_common.h ****                 int16_t(y_ + centerY - GetCenterY()),
 957              		.loc 3 173 38 discriminator 1 view .LVU227
 958 007e A61E     		subs	r6, r4, #2
 959              	.LVL33:
 173:../../libDaisy/src/hid/disp/graphics_common.h ****                 int16_t(y_ + centerY - GetCenterY()),
 960              		.loc 3 173 38 discriminator 1 view .LVU228
 961              	.LBE516:
 962              	.LBE519:
 963              	.LBE585:
 964              	.LBB586:
 965              	.LBB524:
 454:Util/base_effect_module.cpp ****         for (int16_t x = leftArrowRect.GetRight() - 1; x >= leftArrowRect.GetX(); x--) {
 966              		.loc 1 454 51 discriminator 1 view .LVU229
 967 0080 0234     		adds	r4, r4, #2
 968              	.LBE524:
 969              	.LBE586:
 970              	.LBB587:
ARM GAS  /tmp/cc3dlQC7.s 			page 38


 971              	.LBB520:
 972              	.LBB517:
 176:../../libDaisy/src/hid/disp/graphics_common.h ****     }
 973              		.loc 3 176 24 view .LVU230
 974 0082 30B2     		sxth	r0, r6
 975              		.loc 1 454 9 is_stmt 1 view .LVU231
 976              	.LBE517:
 977              	.LBE520:
 978              	.LBE587:
 979              	.LBB588:
 980              	.LBB557:
 981              		.loc 1 454 53 is_stmt 0 discriminator 1 view .LVU232
 982 0084 24B2     		sxth	r4, r4
 983              	.LVL34:
 984              		.loc 1 454 58 is_stmt 1 discriminator 2 view .LVU233
 985              		.loc 1 454 58 is_stmt 0 discriminator 4 view .LVU234
 986 0086 8442     		cmp	r4, r0
 987 0088 39DB     		blt	.L28
 988 008a 2E1D     		adds	r6, r5, #4
 989              	.LBE557:
 990              	.LBE588:
 991              	.LBB589:
 992              	.LBB460:
 112:../../libDaisy/src/hid/disp/graphics_common.h ****     }
 993              		.loc 3 112 66 view .LVU235
 994 008c 0FFA85F9 		sxth	r9, r5
 995              	.LBB456:
 996              	.LBB455:
  32:../../libDaisy/src/hid/disp/graphics_common.h ****     {
 997              		.loc 3 32 44 discriminator 2 view .LVU236
 998 0090 CDF86880 		str	r8, [sp, #104]
 999              	.LVL35:
  32:../../libDaisy/src/hid/disp/graphics_common.h ****     {
 1000              		.loc 3 32 44 discriminator 2 view .LVU237
 1001 0094 36B2     		sxth	r6, r6
 1002 0096 C846     		mov	r8, r9
 1003              	.LVL36:
  32:../../libDaisy/src/hid/disp/graphics_common.h ****     {
 1004              		.loc 3 32 44 discriminator 2 view .LVU238
 1005 0098 B946     		mov	r9, r7
 1006 009a 0746     		mov	r7, r0
 1007              	.LVL37:
  32:../../libDaisy/src/hid/disp/graphics_common.h ****     {
 1008              		.loc 3 32 44 discriminator 2 view .LVU239
 1009 009c 0596     		str	r6, [sp, #20]
 1010 009e 0926     		movs	r6, #9
 1011 00a0 CDF828E0 		str	lr, [sp, #40]
 1012 00a4 0B92     		str	r2, [sp, #44]
 1013 00a6 CDE908C5 		strd	ip, r5, [sp, #32]
 1014 00aa 2546     		mov	r5, r4
 1015              	.LVL38:
  32:../../libDaisy/src/hid/disp/graphics_common.h ****     {
 1016              		.loc 3 32 44 discriminator 2 view .LVU240
 1017 00ac CDE90613 		strd	r1, r3, [sp, #24]
 1018              	.LVL39:
 1019              	.L29:
  32:../../libDaisy/src/hid/disp/graphics_common.h ****     {
ARM GAS  /tmp/cc3dlQC7.s 			page 39


 1020              		.loc 3 32 44 discriminator 2 view .LVU241
 1021              	.LBE455:
 1022              	.LBE456:
 1023              	.LBE460:
 1024              	.LBE589:
 1025              	.LBB590:
 1026              	.LBB558:
 455:Util/base_effect_module.cpp ****             display.DrawLine(x, leftArrowRect.GetY(), x, leftArrowRect.GetBottom(), true);
 1027              		.loc 1 455 13 is_stmt 1 view .LVU242
 1028              	.LBB525:
 1029              	.LBI525:
  61:../../libDaisy/src/hid/disp/graphics_common.h ****     int16_t GetCenterX() const { return x_ + width_ / 2; }
 1030              		.loc 3 61 13 view .LVU243
 1031              	.LBB526:
  61:../../libDaisy/src/hid/disp/graphics_common.h ****     int16_t GetCenterX() const { return x_ + width_ / 2; }
 1032              		.loc 3 61 33 view .LVU244
  61:../../libDaisy/src/hid/disp/graphics_common.h ****     int16_t GetCenterX() const { return x_ + width_ / 2; }
 1033              		.loc 3 61 43 is_stmt 0 view .LVU245
 1034 00b0 08EB0601 		add	r1, r8, r6
 1035              	.LBE526:
 1036              	.LBE525:
 1037              		.loc 1 455 29 view .LVU246
 1038 00b4 D9F80040 		ldr	r4, [r9]
 1039              		.loc 1 455 29 discriminator 2 view .LVU247
 1040 00b8 2B46     		mov	r3, r5
 1041 00ba 4246     		mov	r2, r8
 1042 00bc 09B2     		sxth	r1, r1
 1043 00be 4846     		mov	r0, r9
 1044              	.LBB527:
 1045              	.LBB528:
 107:../../libDaisy/src/hid/disp/graphics_common.h ****     }
 1046              		.loc 3 107 33 view .LVU248
 1047 00c0 023E     		subs	r6, r6, #2
 1048              	.LVL40:
 107:../../libDaisy/src/hid/disp/graphics_common.h ****     }
 1049              		.loc 3 107 33 view .LVU249
 1050              	.LBE528:
 1051              	.LBE527:
 1052              		.loc 1 455 29 discriminator 2 view .LVU250
 1053 00c2 0091     		str	r1, [sp]
 1054 00c4 0121     		movs	r1, #1
 1055              	.LBB544:
 1056              	.LBB539:
 1057              	.LBB529:
 1058              	.LBB530:
 1059              	.LBB531:
 261:../../libDaisy/src/hid/disp/graphics_common.h ****     int16_t min(int16_t a, int16_t b) { return (a < b) ? a : b; }
 1060              		.loc 3 261 56 view .LVU251
 1061 00c6 36B2     		sxth	r6, r6
 1062              	.LVL41:
 261:../../libDaisy/src/hid/disp/graphics_common.h ****     int16_t min(int16_t a, int16_t b) { return (a < b) ? a : b; }
 1063              		.loc 3 261 56 view .LVU252
 1064              	.LBE531:
 1065              	.LBE530:
 1066              	.LBE529:
 1067              	.LBE539:
 1068              	.LBE544:
ARM GAS  /tmp/cc3dlQC7.s 			page 40


 1069              		.loc 1 455 29 discriminator 2 view .LVU253
 1070 00c8 0191     		str	r1, [sp, #4]
 1071 00ca 2946     		mov	r1, r5
 1072 00cc A469     		ldr	r4, [r4, #24]
 1073              	.LBB545:
 1074              	.LBB540:
 1075              	.LBB537:
 1076              	.LBB534:
 1077              	.LBB532:
 261:../../libDaisy/src/hid/disp/graphics_common.h ****     int16_t min(int16_t a, int16_t b) { return (a < b) ? a : b; }
 1078              		.loc 3 261 56 view .LVU254
 1079 00ce 26EAE676 		bic	r6, r6, r6, asr #31
 1080              	.LBE532:
 1081              	.LBE534:
 1082              	.LBE537:
 1083              	.LBE540:
 1084              	.LBE545:
 1085              		.loc 1 455 29 discriminator 2 view .LVU255
 1086 00d2 A047     		blx	r4
 1087              	.LVL42:
 456:Util/base_effect_module.cpp **** 
 457:Util/base_effect_module.cpp ****             leftArrowRect = leftArrowRect.Reduced(0, 1);
 1088              		.loc 1 457 13 is_stmt 1 view .LVU256
 1089              	.LBB546:
 1090              	.LBI527:
 102:../../libDaisy/src/hid/disp/graphics_common.h ****     {
 1091              		.loc 3 102 15 view .LVU257
 1092              	.LBB541:
 104:../../libDaisy/src/hid/disp/graphics_common.h ****                 int16_t(y_ + yToReduce),
 1093              		.loc 3 104 9 view .LVU258
 1094              	.LBB538:
 1095              	.LBI529:
  31:../../libDaisy/src/hid/disp/graphics_common.h ****     : x_(x), y_(y), width_(max(0, width)), height_(max(0, height))
 1096              		.loc 3 31 5 view .LVU259
 1097              	.LBB535:
 1098              	.LBI535:
 261:../../libDaisy/src/hid/disp/graphics_common.h ****     int16_t min(int16_t a, int16_t b) { return (a < b) ? a : b; }
 1099              		.loc 3 261 13 view .LVU260
 261:../../libDaisy/src/hid/disp/graphics_common.h ****     int16_t min(int16_t a, int16_t b) { return (a < b) ? a : b; }
 1100              		.loc 3 261 41 view .LVU261
 261:../../libDaisy/src/hid/disp/graphics_common.h ****     int16_t min(int16_t a, int16_t b) { return (a < b) ? a : b; }
 1101              		.loc 3 261 41 is_stmt 0 view .LVU262
 1102              	.LBE535:
 1103              	.LBB536:
 1104              	.LBI530:
 261:../../libDaisy/src/hid/disp/graphics_common.h ****     int16_t min(int16_t a, int16_t b) { return (a < b) ? a : b; }
 1105              		.loc 3 261 13 is_stmt 1 view .LVU263
 1106              	.LBB533:
 261:../../libDaisy/src/hid/disp/graphics_common.h ****     int16_t min(int16_t a, int16_t b) { return (a < b) ? a : b; }
 1107              		.loc 3 261 41 view .LVU264
 261:../../libDaisy/src/hid/disp/graphics_common.h ****     int16_t min(int16_t a, int16_t b) { return (a < b) ? a : b; }
 1108              		.loc 3 261 41 is_stmt 0 view .LVU265
 1109              	.LBE533:
 1110              	.LBE536:
 1111              	.LBE538:
 1112              	.LBE541:
 1113              	.LBE546:
ARM GAS  /tmp/cc3dlQC7.s 			page 41


 458:Util/base_effect_module.cpp ****             if (leftArrowRect.IsEmpty())
 1114              		.loc 1 458 13 is_stmt 1 view .LVU266
 1115              	.LBB547:
 1116              	.LBI547:
  54:../../libDaisy/src/hid/disp/graphics_common.h **** 
 1117              		.loc 3 54 10 view .LVU267
 1118              	.LBB548:
  54:../../libDaisy/src/hid/disp/graphics_common.h **** 
 1119              		.loc 3 54 28 view .LVU268
  54:../../libDaisy/src/hid/disp/graphics_common.h **** 
 1120              		.loc 3 54 28 is_stmt 0 view .LVU269
 1121              	.LBE548:
 1122              	.LBE547:
 454:Util/base_effect_module.cpp ****             display.DrawLine(x, leftArrowRect.GetY(), x, leftArrowRect.GetBottom(), true);
 1123              		.loc 1 454 9 is_stmt 1 discriminator 3 view .LVU270
 1124              	.LBB552:
 1125              	.LBB549:
  54:../../libDaisy/src/hid/disp/graphics_common.h **** 
 1126              		.loc 3 54 49 is_stmt 0 discriminator 2 view .LVU271
 1127 00d4 059A     		ldr	r2, [sp, #20]
 1128 00d6 6B1E     		subs	r3, r5, #1
 1129              	.LBE549:
 1130              	.LBE552:
 1131              	.LBB553:
 1132              	.LBB542:
 107:../../libDaisy/src/hid/disp/graphics_common.h ****     }
 1133              		.loc 3 107 49 view .LVU272
 1134 00d8 08F10101 		add	r1, r8, #1
 1135              	.LBE542:
 1136              	.LBE553:
 1137              	.LBB554:
 1138              	.LBB550:
  54:../../libDaisy/src/hid/disp/graphics_common.h **** 
 1139              		.loc 3 54 49 discriminator 2 view .LVU273
 1140 00dc 4245     		cmp	r2, r8
 1141              	.LBE550:
 1142              	.LBE554:
 454:Util/base_effect_module.cpp ****             display.DrawLine(x, leftArrowRect.GetY(), x, leftArrowRect.GetBottom(), true);
 1143              		.loc 1 454 9 discriminator 3 view .LVU274
 1144 00de 1DB2     		sxth	r5, r3
 1145              	.LVL43:
 454:Util/base_effect_module.cpp ****             display.DrawLine(x, leftArrowRect.GetY(), x, leftArrowRect.GetBottom(), true);
 1146              		.loc 1 454 58 is_stmt 1 discriminator 2 view .LVU275
 1147              	.LBB555:
 1148              	.LBB543:
 107:../../libDaisy/src/hid/disp/graphics_common.h ****     }
 1149              		.loc 3 107 49 is_stmt 0 view .LVU276
 1150 00e0 0FFA81F8 		sxth	r8, r1
 1151              	.LVL44:
 107:../../libDaisy/src/hid/disp/graphics_common.h ****     }
 1152              		.loc 3 107 49 view .LVU277
 1153              	.LBE543:
 1154              	.LBE555:
 1155              	.LBB556:
 1156              	.LBB551:
  54:../../libDaisy/src/hid/disp/graphics_common.h **** 
 1157              		.loc 3 54 49 discriminator 2 view .LVU278
ARM GAS  /tmp/cc3dlQC7.s 			page 42


 1158 00e4 01D0     		beq	.L34
 1159              	.LBE551:
 1160              	.LBE556:
 454:Util/base_effect_module.cpp ****             display.DrawLine(x, leftArrowRect.GetY(), x, leftArrowRect.GetBottom(), true);
 1161              		.loc 1 454 58 discriminator 4 view .LVU279
 1162 00e6 BD42     		cmp	r5, r7
 1163 00e8 E2DA     		bge	.L29
 1164              	.L34:
 1165 00ea DDE90613 		ldrd	r1, r3, [sp, #24]
 1166              	.LVL45:
 454:Util/base_effect_module.cpp ****             display.DrawLine(x, leftArrowRect.GetY(), x, leftArrowRect.GetBottom(), true);
 1167              		.loc 1 454 58 discriminator 4 view .LVU280
 1168 00ee DDE908C5 		ldrd	ip, r5, [sp, #32]
 1169              	.LVL46:
 454:Util/base_effect_module.cpp ****             display.DrawLine(x, leftArrowRect.GetY(), x, leftArrowRect.GetBottom(), true);
 1170              		.loc 1 454 58 discriminator 4 view .LVU281
 1171 00f2 DDF828E0 		ldr	lr, [sp, #40]
 1172 00f6 4F46     		mov	r7, r9
 1173 00f8 DDF86880 		ldr	r8, [sp, #104]
 1174 00fc 0B9A     		ldr	r2, [sp, #44]
 1175              	.LVL47:
 1176              	.L28:
 454:Util/base_effect_module.cpp ****             display.DrawLine(x, leftArrowRect.GetY(), x, leftArrowRect.GetBottom(), true);
 1177              		.loc 1 454 58 discriminator 4 view .LVU282
 1178              	.LBE558:
 1179              	.LBE590:
 459:Util/base_effect_module.cpp ****                 break;
 460:Util/base_effect_module.cpp ****         }
 461:Util/base_effect_module.cpp ****     }
 462:Util/base_effect_module.cpp **** 
 463:Util/base_effect_module.cpp ****     if (hasNext) {
 1180              		.loc 1 463 5 is_stmt 1 view .LVU283
 1181              	.LBB591:
 1182 00fe 9142     		cmp	r1, r2
 1183 0100 37DD     		ble	.L30
 1184              	.LBE591:
 1185              	.LBB625:
 1186              	.LBB574:
 1187              	.LBB566:
  62:../../libDaisy/src/hid/disp/graphics_common.h ****     int16_t GetCenterY() const { return y_ + height_ / 2; }
 1188              		.loc 3 62 44 is_stmt 0 view .LVU284
 1189 0102 0CEB6303 		add	r3, ip, r3, asr #1
 1190 0106 7344     		add	r3, r3, lr
 1191              	.LBE566:
 1192              	.LBE574:
 1193              	.LBB575:
 1194              	.LBB572:
 173:../../libDaisy/src/hid/disp/graphics_common.h ****                 int16_t(y_ + centerY - GetCenterY()),
 1195              		.loc 3 173 38 discriminator 1 view .LVU285
 1196 0108 991E     		subs	r1, r3, #2
 1197              	.LBE572:
 1198              	.LBE575:
 1199              	.LBE625:
 1200              	.LBB626:
 1201              	.LBB592:
 1202              	.LBB593:
 1203              	.LBB594:
ARM GAS  /tmp/cc3dlQC7.s 			page 43


  60:../../libDaisy/src/hid/disp/graphics_common.h ****     int16_t GetBottom() const { return y_ + height_; }
 1204              		.loc 3 60 42 view .LVU286
 1205 010a DA1C     		adds	r2, r3, #3
 1206              	.LBE594:
 1207              	.LBE593:
 1208              	.LBE592:
 1209              	.LBE626:
 1210              	.LBB627:
 1211              	.LBB576:
 1212              	.LBB573:
 176:../../libDaisy/src/hid/disp/graphics_common.h ****     }
 1213              		.loc 3 176 24 view .LVU287
 1214 010c 09B2     		sxth	r1, r1
 1215              	.LVL48:
 176:../../libDaisy/src/hid/disp/graphics_common.h ****     }
 1216              		.loc 3 176 24 view .LVU288
 1217              	.LBE573:
 1218              	.LBE576:
 1219              	.LBE627:
 1220              	.LBB628:
 1221              	.LBB623:
 464:Util/base_effect_module.cpp ****         for (int16_t x = rightArrowRect.GetX(); x < rightArrowRect.GetRight(); x++) {
 1222              		.loc 1 464 51 is_stmt 1 discriminator 2 view .LVU289
 1223              	.LBB597:
 1224              	.LBI593:
  60:../../libDaisy/src/hid/disp/graphics_common.h ****     int16_t GetBottom() const { return y_ + height_; }
 1225              		.loc 3 60 13 view .LVU290
 1226              	.LBB595:
  60:../../libDaisy/src/hid/disp/graphics_common.h ****     int16_t GetBottom() const { return y_ + height_; }
 1227              		.loc 3 60 32 view .LVU291
  60:../../libDaisy/src/hid/disp/graphics_common.h ****     int16_t GetBottom() const { return y_ + height_; }
 1228              		.loc 3 60 44 is_stmt 0 view .LVU292
 1229 010e 12B2     		sxth	r2, r2
 1230              	.LVL49:
  60:../../libDaisy/src/hid/disp/graphics_common.h ****     int16_t GetBottom() const { return y_ + height_; }
 1231              		.loc 3 60 44 view .LVU293
 1232              	.LBE595:
 1233              	.LBE597:
 1234              		.loc 1 464 51 discriminator 4 view .LVU294
 1235 0110 9142     		cmp	r1, r2
 1236 0112 2EDA     		bge	.L30
 1237 0114 2E1D     		adds	r6, r5, #4
 1238              	.LBE623:
 1239              	.LBE628:
 1240              	.LBB629:
 1241              	.LBB583:
 1242              	.LBB582:
  32:../../libDaisy/src/hid/disp/graphics_common.h ****     {
 1243              		.loc 3 32 44 discriminator 2 view .LVU295
 1244 0116 CDF81CA0 		str	r10, [sp, #28]
 1245 011a CDF86880 		str	r8, [sp, #104]
 1246 011e BA46     		mov	r10, r7
 1247              	.LVL50:
  32:../../libDaisy/src/hid/disp/graphics_common.h ****     {
 1248              		.loc 3 32 44 discriminator 2 view .LVU296
 1249 0120 0924     		movs	r4, #9
 1250 0122 9146     		mov	r9, r2
ARM GAS  /tmp/cc3dlQC7.s 			page 44


 1251 0124 1FFA86F8 		uxth	r8, r6
 1252 0128 0F46     		mov	r7, r1
 1253              	.LVL51:
  32:../../libDaisy/src/hid/disp/graphics_common.h ****     {
 1254              		.loc 3 32 44 discriminator 2 view .LVU297
 1255 012a CDE905CE 		strd	ip, lr, [sp, #20]
 1256              	.LVL52:
 1257              	.L31:
  32:../../libDaisy/src/hid/disp/graphics_common.h ****     {
 1258              		.loc 3 32 44 discriminator 2 view .LVU298
 1259              	.LBE582:
 1260              	.LBE583:
 1261              	.LBE629:
 1262              	.LBB630:
 1263              	.LBB624:
 465:Util/base_effect_module.cpp ****             display.DrawLine(x, rightArrowRect.GetY(), x, rightArrowRect.GetBottom(), true);
 1264              		.loc 1 465 13 is_stmt 1 view .LVU299
 1265              	.LBB598:
 1266              	.LBI598:
  61:../../libDaisy/src/hid/disp/graphics_common.h ****     int16_t GetCenterX() const { return x_ + width_ / 2; }
 1267              		.loc 3 61 13 view .LVU300
 1268              	.LBB599:
  61:../../libDaisy/src/hid/disp/graphics_common.h ****     int16_t GetCenterX() const { return x_ + width_ / 2; }
 1269              		.loc 3 61 33 view .LVU301
  61:../../libDaisy/src/hid/disp/graphics_common.h ****     int16_t GetCenterX() const { return x_ + width_ / 2; }
 1270              		.loc 3 61 43 is_stmt 0 view .LVU302
 1271 012e 6319     		adds	r3, r4, r5
 1272              	.LBE599:
 1273              	.LBE598:
 1274              		.loc 1 465 29 view .LVU303
 1275 0130 DAF80020 		ldr	r2, [r10]
 1276              		.loc 1 465 29 discriminator 2 view .LVU304
 1277 0134 3946     		mov	r1, r7
 1278 0136 5046     		mov	r0, r10
 1279 0138 1BB2     		sxth	r3, r3
 1280              	.LBB600:
 1281              	.LBB601:
 107:../../libDaisy/src/hid/disp/graphics_common.h ****     }
 1282              		.loc 3 107 33 view .LVU305
 1283 013a 023C     		subs	r4, r4, #2
 1284              	.LVL53:
 107:../../libDaisy/src/hid/disp/graphics_common.h ****     }
 1285              		.loc 3 107 33 view .LVU306
 1286              	.LBE601:
 1287              	.LBE600:
 1288              		.loc 1 465 29 discriminator 2 view .LVU307
 1289 013c 0093     		str	r3, [sp]
 1290 013e 0123     		movs	r3, #1
 1291              	.LBB615:
 1292              	.LBB612:
 1293              	.LBB602:
 1294              	.LBB603:
 1295              	.LBB604:
 261:../../libDaisy/src/hid/disp/graphics_common.h ****     int16_t min(int16_t a, int16_t b) { return (a < b) ? a : b; }
 1296              		.loc 3 261 56 view .LVU308
 1297 0140 24B2     		sxth	r4, r4
 1298              	.LVL54:
ARM GAS  /tmp/cc3dlQC7.s 			page 45


 261:../../libDaisy/src/hid/disp/graphics_common.h ****     int16_t min(int16_t a, int16_t b) { return (a < b) ? a : b; }
 1299              		.loc 3 261 56 view .LVU309
 1300              	.LBE604:
 1301              	.LBE603:
 1302              	.LBE602:
 1303              	.LBE612:
 1304              	.LBE615:
 1305              		.loc 1 465 29 discriminator 2 view .LVU310
 1306 0142 0193     		str	r3, [sp, #4]
 1307 0144 3B46     		mov	r3, r7
 1308 0146 9669     		ldr	r6, [r2, #24]
 1309 0148 2AB2     		sxth	r2, r5
 1310 014a B047     		blx	r6
 1311              	.LVL55:
 466:Util/base_effect_module.cpp **** 
 467:Util/base_effect_module.cpp ****             rightArrowRect = rightArrowRect.Reduced(0, 1);
 1312              		.loc 1 467 13 is_stmt 1 view .LVU311
 1313              	.LBB616:
 1314              	.LBI600:
 102:../../libDaisy/src/hid/disp/graphics_common.h ****     {
 1315              		.loc 3 102 15 view .LVU312
 1316              	.LBB613:
 104:../../libDaisy/src/hid/disp/graphics_common.h ****                 int16_t(y_ + yToReduce),
 1317              		.loc 3 104 9 view .LVU313
 1318              	.LBB610:
 1319              	.LBI602:
  31:../../libDaisy/src/hid/disp/graphics_common.h ****     : x_(x), y_(y), width_(max(0, width)), height_(max(0, height))
 1320              		.loc 3 31 5 view .LVU314
 1321              	.LBB607:
 1322              	.LBI607:
 261:../../libDaisy/src/hid/disp/graphics_common.h ****     int16_t min(int16_t a, int16_t b) { return (a < b) ? a : b; }
 1323              		.loc 3 261 13 view .LVU315
 261:../../libDaisy/src/hid/disp/graphics_common.h ****     int16_t min(int16_t a, int16_t b) { return (a < b) ? a : b; }
 1324              		.loc 3 261 41 view .LVU316
 261:../../libDaisy/src/hid/disp/graphics_common.h ****     int16_t min(int16_t a, int16_t b) { return (a < b) ? a : b; }
 1325              		.loc 3 261 41 is_stmt 0 view .LVU317
 1326              	.LBE607:
 1327              	.LBB608:
 1328              	.LBI603:
 261:../../libDaisy/src/hid/disp/graphics_common.h ****     int16_t min(int16_t a, int16_t b) { return (a < b) ? a : b; }
 1329              		.loc 3 261 13 is_stmt 1 view .LVU318
 1330              	.LBB605:
 261:../../libDaisy/src/hid/disp/graphics_common.h ****     int16_t min(int16_t a, int16_t b) { return (a < b) ? a : b; }
 1331              		.loc 3 261 41 view .LVU319
 261:../../libDaisy/src/hid/disp/graphics_common.h ****     int16_t min(int16_t a, int16_t b) { return (a < b) ? a : b; }
 1332              		.loc 3 261 41 is_stmt 0 view .LVU320
 1333              	.LBE605:
 1334              	.LBE608:
 1335              	.LBE610:
 1336              	.LBE613:
 1337              	.LBE616:
 468:Util/base_effect_module.cpp ****             if (rightArrowRect.IsEmpty())
 1338              		.loc 1 468 13 is_stmt 1 view .LVU321
 1339              	.LBB617:
 1340              	.LBI617:
  54:../../libDaisy/src/hid/disp/graphics_common.h **** 
 1341              		.loc 3 54 10 view .LVU322
ARM GAS  /tmp/cc3dlQC7.s 			page 46


 1342              	.LBB618:
  54:../../libDaisy/src/hid/disp/graphics_common.h **** 
 1343              		.loc 3 54 28 view .LVU323
  54:../../libDaisy/src/hid/disp/graphics_common.h **** 
 1344              		.loc 3 54 49 is_stmt 0 discriminator 2 view .LVU324
 1345 014c A845     		cmp	r8, r5
 1346              	.LBE618:
 1347              	.LBE617:
 464:Util/base_effect_module.cpp ****             display.DrawLine(x, rightArrowRect.GetY(), x, rightArrowRect.GetBottom(), true);
 1348              		.loc 1 464 51 discriminator 4 view .LVU325
 1349 014e 07F10107 		add	r7, r7, #1
 1350 0152 05F10105 		add	r5, r5, #1
 1351              	.LVL56:
 1352              	.LBB620:
 1353              	.LBB619:
  54:../../libDaisy/src/hid/disp/graphics_common.h **** 
 1354              		.loc 3 54 49 discriminator 2 view .LVU326
 1355 0156 05D0     		beq	.L35
 1356              	.LBE619:
 1357              	.LBE620:
 464:Util/base_effect_module.cpp ****             display.DrawLine(x, rightArrowRect.GetY(), x, rightArrowRect.GetBottom(), true);
 1358              		.loc 1 464 51 discriminator 4 view .LVU327
 1359 0158 3BB2     		sxth	r3, r7
 1360              	.LBB621:
 1361              	.LBB614:
 1362              	.LBB611:
 1363              	.LBB609:
 1364              	.LBB606:
 261:../../libDaisy/src/hid/disp/graphics_common.h ****     int16_t min(int16_t a, int16_t b) { return (a < b) ? a : b; }
 1365              		.loc 3 261 56 view .LVU328
 1366 015a 24EAE474 		bic	r4, r4, r4, asr #31
 1367              	.LVL57:
 261:../../libDaisy/src/hid/disp/graphics_common.h ****     int16_t min(int16_t a, int16_t b) { return (a < b) ? a : b; }
 1368              		.loc 3 261 56 view .LVU329
 1369              	.LBE606:
 1370              	.LBE609:
 1371              	.LBE611:
 1372              	.LBE614:
 1373              	.LBE621:
 464:Util/base_effect_module.cpp ****             display.DrawLine(x, rightArrowRect.GetY(), x, rightArrowRect.GetBottom(), true);
 1374              		.loc 1 464 9 is_stmt 1 discriminator 3 view .LVU330
 464:Util/base_effect_module.cpp ****             display.DrawLine(x, rightArrowRect.GetY(), x, rightArrowRect.GetBottom(), true);
 1375              		.loc 1 464 51 discriminator 2 view .LVU331
 1376              	.LBB622:
  60:../../libDaisy/src/hid/disp/graphics_common.h ****     int16_t GetBottom() const { return y_ + height_; }
 1377              		.loc 3 60 13 view .LVU332
 1378              	.LBB596:
  60:../../libDaisy/src/hid/disp/graphics_common.h ****     int16_t GetBottom() const { return y_ + height_; }
 1379              		.loc 3 60 32 view .LVU333
  60:../../libDaisy/src/hid/disp/graphics_common.h ****     int16_t GetBottom() const { return y_ + height_; }
 1380              		.loc 3 60 32 is_stmt 0 view .LVU334
 1381              	.LBE596:
 1382              	.LBE622:
 464:Util/base_effect_module.cpp ****             display.DrawLine(x, rightArrowRect.GetY(), x, rightArrowRect.GetBottom(), true);
 1383              		.loc 1 464 51 discriminator 4 view .LVU335
 1384 015e ADB2     		uxth	r5, r5
 1385              	.LVL58:
ARM GAS  /tmp/cc3dlQC7.s 			page 47


 464:Util/base_effect_module.cpp ****             display.DrawLine(x, rightArrowRect.GetY(), x, rightArrowRect.GetBottom(), true);
 1386              		.loc 1 464 51 discriminator 4 view .LVU336
 1387 0160 4B45     		cmp	r3, r9
 1388 0162 E4DB     		blt	.L31
 1389              	.LVL59:
 1390              	.L35:
 464:Util/base_effect_module.cpp ****             display.DrawLine(x, rightArrowRect.GetY(), x, rightArrowRect.GetBottom(), true);
 1391              		.loc 1 464 51 discriminator 4 view .LVU337
 1392 0164 5746     		mov	r7, r10
 1393 0166 DDF86880 		ldr	r8, [sp, #104]
 1394 016a DDF81CA0 		ldr	r10, [sp, #28]
 1395              	.LVL60:
 464:Util/base_effect_module.cpp ****             display.DrawLine(x, rightArrowRect.GetY(), x, rightArrowRect.GetBottom(), true);
 1396              		.loc 1 464 51 discriminator 4 view .LVU338
 1397 016e DDE905CE 		ldrd	ip, lr, [sp, #20]
 1398              	.LVL61:
 1399              	.L30:
 464:Util/base_effect_module.cpp ****             display.DrawLine(x, rightArrowRect.GetY(), x, rightArrowRect.GetBottom(), true);
 1400              		.loc 1 464 51 discriminator 4 view .LVU339
 1401              	.LBE624:
 1402              	.LBE630:
 469:Util/base_effect_module.cpp ****                 break;
 470:Util/base_effect_module.cpp ****         }
 471:Util/base_effect_module.cpp ****     }
 472:Util/base_effect_module.cpp **** 
 473:Util/base_effect_module.cpp ****     display.WriteStringAligned(m_name, Font_11x18, topRowRect, Alignment::centered, true);
 1403              		.loc 1 473 5 is_stmt 1 view .LVU340
 1404              	.LBB631:
 1405              	.LBI631:
  36:../../libDaisy/src/hid/disp/graphics_common.h **** 
 1406              		.loc 3 36 5 view .LVU341
 1407              	.LBB632:
 1408              	.LBB633:
 1409              	.LBI633:
  38:../../libDaisy/src/hid/disp/graphics_common.h ****     {
 1410              		.loc 3 38 16 view .LVU342
 1411              	.LBB634:
  40:../../libDaisy/src/hid/disp/graphics_common.h ****         y_      = other.y_;
 1412              		.loc 3 40 9 view .LVU343
 1413              	.LBE634:
 1414              	.LBE633:
 1415              	.LBE632:
 1416              	.LBE631:
 1417              		.loc 1 473 31 is_stmt 0 discriminator 1 view .LVU344
 1418 0172 049B     		ldr	r3, [sp, #16]
 1419 0174 0026     		movs	r6, #0
 1420 0176 4FF00109 		mov	r9, #1
 1421 017a 0CAC     		add	r4, sp, #48
 1422              	.LVL62:
 1423              		.loc 1 473 31 discriminator 1 view .LVU345
 1424 017c 5A68     		ldr	r2, [r3, #4]
 1425 017e 3946     		mov	r1, r7
 1426              		.loc 1 473 31 view .LVU346
 1427 0180 3B68     		ldr	r3, [r7]
 1428              		.loc 1 473 31 discriminator 1 view .LVU347
 1429 0182 0EA8     		add	r0, sp, #56
 1430              		.loc 1 473 31 view .LVU348
ARM GAS  /tmp/cc3dlQC7.s 			page 48


 1431 0184 DD6A     		ldr	r5, [r3, #44]
 1432              	.LBB641:
 1433              	.LBB639:
 1434              	.LBB637:
 1435              	.LBB635:
  40:../../libDaisy/src/hid/disp/graphics_common.h ****         y_      = other.y_;
 1436              		.loc 3 40 17 view .LVU349
 1437 0186 ADF830E0 		strh	lr, [sp, #48]	@ movhi
  41:../../libDaisy/src/hid/disp/graphics_common.h ****         width_  = other.width_;
 1438              		.loc 3 41 9 is_stmt 1 view .LVU350
  42:../../libDaisy/src/hid/disp/graphics_common.h ****         height_ = other.height_;
 1439              		.loc 3 42 17 is_stmt 0 view .LVU351
 1440 018a ADF834C0 		strh	ip, [sp, #52]	@ movhi
 1441              	.LBE635:
 1442              	.LBE637:
 1443              	.LBE639:
 1444              	.LBE641:
 1445              		.loc 1 473 31 discriminator 1 view .LVU352
 1446 018e 0E4B     		ldr	r3, .L38
 1447              	.LBB642:
 1448              	.LBB640:
 1449              	.LBB638:
 1450              	.LBB636:
  41:../../libDaisy/src/hid/disp/graphics_common.h ****         width_  = other.width_;
 1451              		.loc 3 41 17 view .LVU353
 1452 0190 ADF832A0 		strh	r10, [sp, #50]	@ movhi
  42:../../libDaisy/src/hid/disp/graphics_common.h ****         height_ = other.height_;
 1453              		.loc 3 42 9 is_stmt 1 view .LVU354
  43:../../libDaisy/src/hid/disp/graphics_common.h ****         return *this;
 1454              		.loc 3 43 9 view .LVU355
  43:../../libDaisy/src/hid/disp/graphics_common.h ****         return *this;
 1455              		.loc 3 43 17 is_stmt 0 view .LVU356
 1456 0194 ADF836B0 		strh	fp, [sp, #54]	@ movhi
  44:../../libDaisy/src/hid/disp/graphics_common.h ****     }
 1457              		.loc 3 44 9 is_stmt 1 view .LVU357
 1458              	.LVL63:
  44:../../libDaisy/src/hid/disp/graphics_common.h ****     }
 1459              		.loc 3 44 9 is_stmt 0 view .LVU358
 1460              	.LBE636:
 1461              	.LBE638:
 1462              	.LBE640:
 1463              	.LBE642:
 1464              		.loc 1 473 31 discriminator 1 view .LVU359
 1465 0198 0094     		str	r4, [sp]
 1466 019a CDE90169 		strd	r6, r9, [sp, #4]
 1467 019e A847     		blx	r5
 1468              	.LVL64:
 474:Util/base_effect_module.cpp ****     display.WriteStringAligned("...", Font_11x18, boundsToDrawIn, Alignment::centered, true);
 1469              		.loc 1 474 5 is_stmt 1 view .LVU360
 1470              		.loc 1 474 31 is_stmt 0 view .LVU361
 1471 01a0 3B68     		ldr	r3, [r7]
 1472              		.loc 1 474 31 discriminator 1 view .LVU362
 1473 01a2 0EA8     		add	r0, sp, #56
 1474 01a4 3946     		mov	r1, r7
 1475              		.loc 1 474 31 view .LVU363
 1476 01a6 DD6A     		ldr	r5, [r3, #44]
 1477              	.LVL65:
ARM GAS  /tmp/cc3dlQC7.s 			page 49


 1478              	.LBB643:
 1479              	.LBI643:
  36:../../libDaisy/src/hid/disp/graphics_common.h **** 
 1480              		.loc 3 36 5 is_stmt 1 view .LVU364
 1481              	.LBB644:
 1482              	.LBB645:
 1483              	.LBI645:
  38:../../libDaisy/src/hid/disp/graphics_common.h ****     {
 1484              		.loc 3 38 16 view .LVU365
 1485              	.LBB646:
  40:../../libDaisy/src/hid/disp/graphics_common.h ****         y_      = other.y_;
 1486              		.loc 3 40 9 view .LVU366
 1487              	.LBE646:
 1488              	.LBE645:
 1489              	.LBE644:
 1490              	.LBE643:
 1491              		.loc 1 474 31 is_stmt 0 discriminator 1 view .LVU367
 1492 01a8 0094     		str	r4, [sp]
 1493 01aa 074B     		ldr	r3, .L38
 1494 01ac CDE90169 		strd	r6, r9, [sp, #4]
 1495              	.LBB650:
 1496              	.LBB649:
 1497              	.LBB648:
 1498              	.LBB647:
  40:../../libDaisy/src/hid/disp/graphics_common.h ****         y_      = other.y_;
 1499              		.loc 3 40 25 view .LVU368
 1500 01b0 D8F80420 		ldr	r2, [r8, #4]	@ unaligned
  41:../../libDaisy/src/hid/disp/graphics_common.h ****         width_  = other.width_;
 1501              		.loc 3 41 9 is_stmt 1 view .LVU369
  42:../../libDaisy/src/hid/disp/graphics_common.h ****         height_ = other.height_;
 1502              		.loc 3 42 9 view .LVU370
  43:../../libDaisy/src/hid/disp/graphics_common.h ****         return *this;
 1503              		.loc 3 43 9 view .LVU371
  40:../../libDaisy/src/hid/disp/graphics_common.h ****         y_      = other.y_;
 1504              		.loc 3 40 17 is_stmt 0 view .LVU372
 1505 01b4 0D92     		str	r2, [sp, #52]
  44:../../libDaisy/src/hid/disp/graphics_common.h ****     }
 1506              		.loc 3 44 9 is_stmt 1 view .LVU373
 1507              	.LVL66:
  40:../../libDaisy/src/hid/disp/graphics_common.h ****         y_      = other.y_;
 1508              		.loc 3 40 25 is_stmt 0 view .LVU374
 1509 01b6 D8F80020 		ldr	r2, [r8]	@ unaligned
  40:../../libDaisy/src/hid/disp/graphics_common.h ****         y_      = other.y_;
 1510              		.loc 3 40 17 view .LVU375
 1511 01ba 0C92     		str	r2, [sp, #48]
 1512              	.LBE647:
 1513              	.LBE648:
 1514              	.LBE649:
 1515              	.LBE650:
 1516              		.loc 1 474 31 discriminator 1 view .LVU376
 1517 01bc 034A     		ldr	r2, .L38+4
 1518 01be A847     		blx	r5
 1519              	.LVL67:
 475:Util/base_effect_module.cpp **** 
 476:Util/base_effect_module.cpp ****     if (showCPU) {
 1520              		.loc 1 476 5 is_stmt 1 view .LVU377
 477:Util/base_effect_module.cpp ****         char cpuStr[64];
ARM GAS  /tmp/cc3dlQC7.s 			page 50


 478:Util/base_effect_module.cpp ****         sprintf(cpuStr, FLT_FMT(3), FLT_VAR3(GetCPUUsage()));
 479:Util/base_effect_module.cpp ****         display.WriteStringAligned(cpuStr, Font_11x18, boundsToDrawIn, Alignment::bottomCentered, t
 480:Util/base_effect_module.cpp ****     }
 481:Util/base_effect_module.cpp **** }
 1521              		.loc 1 481 1 is_stmt 0 view .LVU378
 1522 01c0 11B0     		add	sp, sp, #68
 1523              		.cfi_def_cfa_offset 36
 1524              		@ sp needed
 1525 01c2 BDE8F08F 		pop	{r4, r5, r6, r7, r8, r9, r10, fp, pc}
 1526              	.LVL68:
 1527              	.L39:
 1528              		.loc 1 481 1 view .LVU379
 1529 01c6 00BF     		.align	2
 1530              	.L38:
 1531 01c8 00000000 		.word	Font_11x18
 1532 01cc 00000000 		.word	.LC0
 1533              		.cfi_endproc
 1534              	.LFE3588:
 1536              		.section	.text._ZN10bkshepherd16BaseEffectModuleD2Ev,"ax",%progbits
 1537              		.align	1
 1538              		.p2align 2,,3
 1539              		.global	_ZN10bkshepherd16BaseEffectModuleD2Ev
 1540              		.syntax unified
 1541              		.thumb
 1542              		.thumb_func
 1544              	_ZN10bkshepherd16BaseEffectModuleD2Ev:
 1545              	.LVL69:
 1546              	.LFB3542:
  18:Util/base_effect_module.cpp ****     if (m_params != nullptr) {
 1547              		.loc 1 18 1 is_stmt 1 view -0
 1548              		.cfi_startproc
 1549              		@ args = 0, pretend = 0, frame = 8
 1550              		@ frame_needed = 0, uses_anonymous_args = 0
 1551              	.LBB651:
  19:Util/base_effect_module.cpp ****         delete[] m_params;
 1552              		.loc 1 19 5 view .LVU381
 1553              	.LBE651:
  18:Util/base_effect_module.cpp ****     if (m_params != nullptr) {
 1554              		.loc 1 18 1 is_stmt 0 view .LVU382
 1555 0000 0346     		mov	r3, r0
 1556              	.LBB652:
  19:Util/base_effect_module.cpp ****         delete[] m_params;
 1557              		.loc 1 19 9 view .LVU383
 1558 0002 4069     		ldr	r0, [r0, #20]
 1559              	.LVL70:
  19:Util/base_effect_module.cpp ****         delete[] m_params;
 1560              		.loc 1 19 5 view .LVU384
 1561 0004 40B1     		cbz	r0, .L46
 1562              	.LBE652:
  18:Util/base_effect_module.cpp ****     if (m_params != nullptr) {
 1563              		.loc 1 18 1 view .LVU385
 1564 0006 00B5     		push	{lr}
 1565              		.cfi_def_cfa_offset 4
 1566              		.cfi_offset 14, -4
 1567 0008 83B0     		sub	sp, sp, #12
 1568              		.cfi_def_cfa_offset 16
 1569 000a 0193     		str	r3, [sp, #4]
ARM GAS  /tmp/cc3dlQC7.s 			page 51


 1570              	.LBB653:
  20:Util/base_effect_module.cpp ****     }
 1571              		.loc 1 20 9 is_stmt 1 view .LVU386
  20:Util/base_effect_module.cpp ****     }
 1572              		.loc 1 20 18 is_stmt 0 discriminator 1 view .LVU387
 1573 000c FFF7FEFF 		bl	_ZdaPv
 1574              	.LVL71:
  20:Util/base_effect_module.cpp ****     }
 1575              		.loc 1 20 18 discriminator 1 view .LVU388
 1576 0010 019B     		ldr	r3, [sp, #4]
 1577              	.LBE653:
  22:Util/base_effect_module.cpp **** 
 1578              		.loc 1 22 1 view .LVU389
 1579 0012 1846     		mov	r0, r3
 1580 0014 03B0     		add	sp, sp, #12
 1581              		.cfi_def_cfa_offset 4
 1582              		@ sp needed
 1583 0016 00BD     		pop	{pc}
 1584              	.LVL72:
 1585              	.L46:
 1586              		.cfi_def_cfa_offset 0
 1587              		.cfi_restore 14
  22:Util/base_effect_module.cpp **** 
 1588              		.loc 1 22 1 view .LVU390
 1589 0018 1846     		mov	r0, r3
 1590 001a 7047     		bx	lr
 1591              		.cfi_endproc
 1592              	.LFE3542:
 1594              		.global	_ZN10bkshepherd16BaseEffectModuleD1Ev
 1595              		.thumb_set _ZN10bkshepherd16BaseEffectModuleD1Ev,_ZN10bkshepherd16BaseEffectModuleD2Ev
 1596              		.section	.text._ZN10bkshepherd16BaseEffectModuleD0Ev,"ax",%progbits
 1597              		.align	1
 1598              		.p2align 2,,3
 1599              		.global	_ZN10bkshepherd16BaseEffectModuleD0Ev
 1600              		.syntax unified
 1601              		.thumb
 1602              		.thumb_func
 1604              	_ZN10bkshepherd16BaseEffectModuleD0Ev:
 1605              	.LVL73:
 1606              	.LFB3544:
  18:Util/base_effect_module.cpp ****     if (m_params != nullptr) {
 1607              		.loc 1 18 1 is_stmt 1 view -0
 1608              		.cfi_startproc
 1609              		@ args = 0, pretend = 0, frame = 0
 1610              		@ frame_needed = 0, uses_anonymous_args = 0
  18:Util/base_effect_module.cpp ****     if (m_params != nullptr) {
 1611              		.loc 1 18 1 is_stmt 0 view .LVU392
 1612 0000 10B5     		push	{r4, lr}
 1613              		.cfi_def_cfa_offset 8
 1614              		.cfi_offset 4, -8
 1615              		.cfi_offset 14, -4
  18:Util/base_effect_module.cpp ****     if (m_params != nullptr) {
 1616              		.loc 1 18 1 view .LVU393
 1617 0002 0446     		mov	r4, r0
 1618              	.LVL74:
 1619              	.LBB654:
 1620              	.LBI654:
ARM GAS  /tmp/cc3dlQC7.s 			page 52


  18:Util/base_effect_module.cpp ****     if (m_params != nullptr) {
 1621              		.loc 1 18 1 is_stmt 1 view .LVU394
 1622              	.LBB655:
  19:Util/base_effect_module.cpp ****         delete[] m_params;
 1623              		.loc 1 19 5 view .LVU395
  19:Util/base_effect_module.cpp ****         delete[] m_params;
 1624              		.loc 1 19 9 is_stmt 0 view .LVU396
 1625 0004 4069     		ldr	r0, [r0, #20]
 1626              	.LVL75:
  19:Util/base_effect_module.cpp ****         delete[] m_params;
 1627              		.loc 1 19 5 view .LVU397
 1628 0006 08B1     		cbz	r0, .L50
  20:Util/base_effect_module.cpp ****     }
 1629              		.loc 1 20 9 is_stmt 1 view .LVU398
  20:Util/base_effect_module.cpp ****     }
 1630              		.loc 1 20 18 is_stmt 0 discriminator 1 view .LVU399
 1631 0008 FFF7FEFF 		bl	_ZdaPv
 1632              	.LVL76:
 1633              	.L50:
  20:Util/base_effect_module.cpp ****     }
 1634              		.loc 1 20 18 discriminator 1 view .LVU400
 1635              	.LBE655:
 1636              	.LBE654:
  22:Util/base_effect_module.cpp **** 
 1637              		.loc 1 22 1 discriminator 1 view .LVU401
 1638 000c 2046     		mov	r0, r4
 1639 000e 3421     		movs	r1, #52
 1640 0010 FFF7FEFF 		bl	_ZdlPvj
 1641              	.LVL77:
  22:Util/base_effect_module.cpp **** 
 1642              		.loc 1 22 1 view .LVU402
 1643 0014 2046     		mov	r0, r4
 1644 0016 10BD     		pop	{r4, pc}
  22:Util/base_effect_module.cpp **** 
 1645              		.loc 1 22 1 view .LVU403
 1646              		.cfi_endproc
 1647              	.LFE3544:
 1649              		.section	.text._ZN10bkshepherd16BaseEffectModule10InitParamsEi,"ax",%progbits
 1650              		.align	1
 1651              		.p2align 2,,3
 1652              		.global	_ZN10bkshepherd16BaseEffectModule10InitParamsEi
 1653              		.syntax unified
 1654              		.thumb
 1655              		.thumb_func
 1657              	_ZN10bkshepherd16BaseEffectModule10InitParamsEi:
 1658              	.LVL78:
 1659              	.LFB3547:
  28:Util/base_effect_module.cpp ****     // Remove any existing parameter storage
 1660              		.loc 1 28 46 is_stmt 1 view -0
 1661              		.cfi_startproc
 1662              		@ args = 0, pretend = 0, frame = 8
 1663              		@ frame_needed = 0, uses_anonymous_args = 0
  30:Util/base_effect_module.cpp ****         delete[] m_params;
 1664              		.loc 1 30 5 view .LVU405
  28:Util/base_effect_module.cpp ****     // Remove any existing parameter storage
 1665              		.loc 1 28 46 is_stmt 0 view .LVU406
 1666 0000 10B5     		push	{r4, lr}
ARM GAS  /tmp/cc3dlQC7.s 			page 53


 1667              		.cfi_def_cfa_offset 8
 1668              		.cfi_offset 4, -8
 1669              		.cfi_offset 14, -4
 1670 0002 0446     		mov	r4, r0
  30:Util/base_effect_module.cpp ****         delete[] m_params;
 1671              		.loc 1 30 9 view .LVU407
 1672 0004 4069     		ldr	r0, [r0, #20]
 1673              	.LVL79:
  28:Util/base_effect_module.cpp ****     // Remove any existing parameter storage
 1674              		.loc 1 28 46 view .LVU408
 1675 0006 82B0     		sub	sp, sp, #8
 1676              		.cfi_def_cfa_offset 16
  30:Util/base_effect_module.cpp ****         delete[] m_params;
 1677              		.loc 1 30 5 view .LVU409
 1678 0008 28B1     		cbz	r0, .L56
 1679 000a 0191     		str	r1, [sp, #4]
  31:Util/base_effect_module.cpp ****         m_params = nullptr;
 1680              		.loc 1 31 9 is_stmt 1 view .LVU410
  31:Util/base_effect_module.cpp ****         m_params = nullptr;
 1681              		.loc 1 31 18 is_stmt 0 discriminator 1 view .LVU411
 1682 000c FFF7FEFF 		bl	_ZdaPv
 1683              	.LVL80:
  32:Util/base_effect_module.cpp ****     }
 1684              		.loc 1 32 9 is_stmt 1 view .LVU412
  32:Util/base_effect_module.cpp ****     }
 1685              		.loc 1 32 18 is_stmt 0 view .LVU413
 1686 0010 0023     		movs	r3, #0
 1687 0012 0199     		ldr	r1, [sp, #4]
 1688 0014 6361     		str	r3, [r4, #20]
 1689              	.LVL81:
 1690              	.L56:
  35:Util/base_effect_module.cpp **** 
 1691              		.loc 1 35 5 is_stmt 1 view .LVU414
  37:Util/base_effect_module.cpp ****         // Create new parameter storage
 1692              		.loc 1 37 5 view .LVU415
 1693              	.LBB673:
 1694 0016 0029     		cmp	r1, #0
 1695 0018 2ADD     		ble	.L70
 1696              	.LVL82:
  37:Util/base_effect_module.cpp ****         // Create new parameter storage
 1697              		.loc 1 37 5 is_stmt 0 view .LVU416
 1698              	.LBE673:
 1699              	.LBB674:
 1700              	.LBI674:
  28:Util/base_effect_module.cpp ****     // Remove any existing parameter storage
 1701              		.loc 1 28 6 is_stmt 1 view .LVU417
 1702              	.LBB675:
  39:Util/base_effect_module.cpp ****         m_params = new uint32_t[m_paramCount];
 1703              		.loc 1 39 9 view .LVU418
  40:Util/base_effect_module.cpp **** 
 1704              		.loc 1 40 45 is_stmt 0 view .LVU419
 1705 001a 6FF06043 		mvn	r3, #-536870912
  39:Util/base_effect_module.cpp ****         m_params = new uint32_t[m_paramCount];
 1706              		.loc 1 39 22 view .LVU420
 1707 001e A160     		str	r1, [r4, #8]
  40:Util/base_effect_module.cpp **** 
 1708              		.loc 1 40 9 is_stmt 1 view .LVU421
ARM GAS  /tmp/cc3dlQC7.s 			page 54


 1709 0020 0191     		str	r1, [sp, #4]
  40:Util/base_effect_module.cpp **** 
 1710              		.loc 1 40 45 is_stmt 0 view .LVU422
 1711 0022 9942     		cmp	r1, r3
  40:Util/base_effect_module.cpp **** 
 1712              		.loc 1 40 45 discriminator 1 view .LVU423
 1713 0024 34BF     		ite	cc
 1714 0026 8800     		lslcc	r0, r1, #2
  40:Util/base_effect_module.cpp **** 
 1715              		.loc 1 40 45 discriminator 2 view .LVU424
 1716 0028 4FF0FF30 		movcs	r0, #-1
  40:Util/base_effect_module.cpp **** 
 1717              		.loc 1 40 45 discriminator 4 view .LVU425
 1718 002c FFF7FEFF 		bl	_Znaj
 1719              	.LVL83:
  40:Util/base_effect_module.cpp **** 
 1720              		.loc 1 40 45 discriminator 4 view .LVU426
 1721 0030 0199     		ldr	r1, [sp, #4]
 1722              	.LBB676:
 1723              	.LBB677:
  44:Util/base_effect_module.cpp ****                 if (GetParameterType(i) == ParameterValueType::Float) {
 1724              		.loc 1 44 17 view .LVU427
 1725 0032 A269     		ldr	r2, [r4, #24]
 1726 0034 031F     		subs	r3, r0, #4
 1727 0036 0139     		subs	r1, r1, #1
 1728              	.LBE677:
 1729              	.LBE676:
  40:Util/base_effect_module.cpp **** 
 1730              		.loc 1 40 18 discriminator 5 view .LVU428
 1731 0038 6061     		str	r0, [r4, #20]
  43:Util/base_effect_module.cpp ****             if (m_paramMetaData != nullptr) {
 1732              		.loc 1 43 9 is_stmt 1 view .LVU429
 1733              	.LVL84:
 1734              	.LBB692:
  43:Util/base_effect_module.cpp ****             if (m_paramMetaData != nullptr) {
 1735              		.loc 1 43 27 discriminator 1 view .LVU430
 1736 003a 00EB8100 		add	r0, r0, r1, lsl #2
 1737              	.LVL85:
 1738              	.LBB685:
  44:Util/base_effect_module.cpp ****                 if (GetParameterType(i) == ParameterValueType::Float) {
 1739              		.loc 1 44 13 is_stmt 0 view .LVU431
 1740 003e 62B1     		cbz	r2, .L61
 1741              	.LVL86:
 1742              	.L62:
 1743              	.LBB678:
  46:Util/base_effect_module.cpp ****                     float value = m_paramMetaData[i].defaultValue.float_value;
 1744              		.loc 1 46 21 is_stmt 1 view .LVU432
  47:Util/base_effect_module.cpp ****                     std::memcpy(&tmp, &value, sizeof(float));
 1745              		.loc 1 47 21 view .LVU433
  48:Util/base_effect_module.cpp ****                     m_params[i] = tmp;
 1746              		.loc 1 48 21 view .LVU434
  49:Util/base_effect_module.cpp ****                 } else {
 1747              		.loc 1 49 21 view .LVU435
  49:Util/base_effect_module.cpp ****                 } else {
 1748              		.loc 1 49 33 is_stmt 0 view .LVU436
 1749 0040 191D     		adds	r1, r3, #4
 1750 0042 1469     		ldr	r4, [r2, #16]
ARM GAS  /tmp/cc3dlQC7.s 			page 55


 1751              	.LBE678:
 1752              	.LBE685:
  43:Util/base_effect_module.cpp ****             if (m_paramMetaData != nullptr) {
 1753              		.loc 1 43 27 discriminator 1 view .LVU437
 1754 0044 8842     		cmp	r0, r1
 1755              	.LBB686:
 1756              	.LBB679:
  49:Util/base_effect_module.cpp ****                 } else {
 1757              		.loc 1 49 33 view .LVU438
 1758 0046 5C60     		str	r4, [r3, #4]
 1759              	.LVL87:
  49:Util/base_effect_module.cpp ****                 } else {
 1760              		.loc 1 49 33 view .LVU439
 1761              	.LBE679:
 1762              	.LBE686:
  43:Util/base_effect_module.cpp ****             if (m_paramMetaData != nullptr) {
 1763              		.loc 1 43 9 is_stmt 1 discriminator 2 view .LVU440
  43:Util/base_effect_module.cpp ****             if (m_paramMetaData != nullptr) {
 1764              		.loc 1 43 27 discriminator 1 view .LVU441
 1765 0048 05D0     		beq	.L55
 1766              	.LBB687:
 1767              	.LBB680:
  47:Util/base_effect_module.cpp ****                     std::memcpy(&tmp, &value, sizeof(float));
 1768              		.loc 1 47 67 is_stmt 0 view .LVU442
 1769 004a 916B     		ldr	r1, [r2, #56]
  46:Util/base_effect_module.cpp ****                     float value = m_paramMetaData[i].defaultValue.float_value;
 1770              		.loc 1 46 21 is_stmt 1 view .LVU443
  47:Util/base_effect_module.cpp ****                     std::memcpy(&tmp, &value, sizeof(float));
 1771              		.loc 1 47 21 view .LVU444
 1772              	.LVL88:
  48:Util/base_effect_module.cpp ****                     m_params[i] = tmp;
 1773              		.loc 1 48 21 view .LVU445
  49:Util/base_effect_module.cpp ****                 } else {
 1774              		.loc 1 49 21 view .LVU446
 1775              	.LBE680:
 1776              	.LBE687:
  43:Util/base_effect_module.cpp ****             if (m_paramMetaData != nullptr) {
 1777              		.loc 1 43 27 is_stmt 0 discriminator 1 view .LVU447
 1778 004c 5032     		adds	r2, r2, #80
 1779              	.LVL89:
 1780              	.LBB688:
 1781              	.LBB681:
  49:Util/base_effect_module.cpp ****                 } else {
 1782              		.loc 1 49 33 view .LVU448
 1783 004e 43F8081F 		str	r1, [r3, #8]!
 1784              	.LVL90:
  49:Util/base_effect_module.cpp ****                 } else {
 1785              		.loc 1 49 33 view .LVU449
 1786              	.LBE681:
 1787              	.LBE688:
  43:Util/base_effect_module.cpp ****             if (m_paramMetaData != nullptr) {
 1788              		.loc 1 43 9 is_stmt 1 discriminator 2 view .LVU450
  43:Util/base_effect_module.cpp ****             if (m_paramMetaData != nullptr) {
 1789              		.loc 1 43 27 discriminator 1 view .LVU451
 1790 0052 9842     		cmp	r0, r3
 1791 0054 F4D1     		bne	.L62
 1792              	.LVL91:
ARM GAS  /tmp/cc3dlQC7.s 			page 56


 1793              	.L55:
  43:Util/base_effect_module.cpp ****             if (m_paramMetaData != nullptr) {
 1794              		.loc 1 43 27 is_stmt 0 discriminator 1 view .LVU452
 1795              	.LBE692:
 1796              	.LBE675:
 1797              	.LBE674:
  59:Util/base_effect_module.cpp **** 
 1798              		.loc 1 59 1 view .LVU453
 1799 0056 02B0     		add	sp, sp, #8
 1800              		.cfi_remember_state
 1801              		.cfi_def_cfa_offset 8
 1802              		@ sp needed
 1803 0058 10BD     		pop	{r4, pc}
 1804              	.LVL92:
 1805              	.L61:
 1806              		.cfi_restore_state
 1807              	.LBB695:
 1808              	.LBB694:
 1809              	.LBB693:
 1810              	.LBB689:
 1811              	.LBB682:
  49:Util/base_effect_module.cpp ****                 } else {
 1812              		.loc 1 49 33 view .LVU454
 1813 005a 1A1D     		adds	r2, r3, #4
 1814 005c 0021     		movs	r1, #0
 1815              	.LBE682:
 1816              	.LBE689:
  43:Util/base_effect_module.cpp ****             if (m_paramMetaData != nullptr) {
 1817              		.loc 1 43 27 discriminator 1 view .LVU455
 1818 005e 9042     		cmp	r0, r2
 1819              	.LBB690:
 1820              	.LBB683:
  49:Util/base_effect_module.cpp ****                 } else {
 1821              		.loc 1 49 33 view .LVU456
 1822 0060 5960     		str	r1, [r3, #4]
 1823              	.LBE683:
 1824              	.LBE690:
  43:Util/base_effect_module.cpp ****             if (m_paramMetaData != nullptr) {
 1825              		.loc 1 43 9 is_stmt 1 discriminator 2 view .LVU457
  43:Util/base_effect_module.cpp ****             if (m_paramMetaData != nullptr) {
 1826              		.loc 1 43 27 discriminator 1 view .LVU458
 1827 0062 F8D0     		beq	.L55
 1828              	.LBB691:
 1829              	.LBB684:
  49:Util/base_effect_module.cpp ****                 } else {
 1830              		.loc 1 49 33 is_stmt 0 view .LVU459
 1831 0064 43F8081F 		str	r1, [r3, #8]!
 1832              	.LBE684:
 1833              	.LBE691:
  43:Util/base_effect_module.cpp ****             if (m_paramMetaData != nullptr) {
 1834              		.loc 1 43 9 is_stmt 1 discriminator 2 view .LVU460
  43:Util/base_effect_module.cpp ****             if (m_paramMetaData != nullptr) {
 1835              		.loc 1 43 27 discriminator 1 view .LVU461
 1836 0068 9842     		cmp	r0, r3
 1837 006a F6D1     		bne	.L61
 1838              	.LBE693:
 1839              	.LBE694:
ARM GAS  /tmp/cc3dlQC7.s 			page 57


 1840              	.LBE695:
  59:Util/base_effect_module.cpp **** 
 1841              		.loc 1 59 1 is_stmt 0 view .LVU462
 1842 006c 02B0     		add	sp, sp, #8
 1843              		.cfi_remember_state
 1844              		.cfi_def_cfa_offset 8
 1845              		@ sp needed
 1846 006e 10BD     		pop	{r4, pc}
 1847              	.LVL93:
 1848              	.L70:
 1849              		.cfi_restore_state
  35:Util/base_effect_module.cpp **** 
 1850              		.loc 1 35 18 view .LVU463
 1851 0070 0023     		movs	r3, #0
 1852 0072 A360     		str	r3, [r4, #8]
  59:Util/base_effect_module.cpp **** 
 1853              		.loc 1 59 1 view .LVU464
 1854 0074 02B0     		add	sp, sp, #8
 1855              		.cfi_def_cfa_offset 8
 1856              		@ sp needed
 1857 0076 10BD     		pop	{r4, pc}
  59:Util/base_effect_module.cpp **** 
 1858              		.loc 1 59 1 view .LVU465
 1859              		.cfi_endproc
 1860              	.LFE3547:
 1862              		.section	.rodata._ZN10bkshepherd16BaseEffectModuleC2Ev.str1.4,"aMS",%progbits,1
 1863              		.align	2
 1864              	.LC1:
 1865 0000 42617365 		.ascii	"Base\000"
 1865      00
 1866              		.section	.text._ZN10bkshepherd16BaseEffectModuleC2Ev,"ax",%progbits
 1867              		.align	1
 1868              		.p2align 2,,3
 1869              		.global	_ZN10bkshepherd16BaseEffectModuleC2Ev
 1870              		.syntax unified
 1871              		.thumb
 1872              		.thumb_func
 1874              	_ZN10bkshepherd16BaseEffectModuleC2Ev:
 1875              	.LVL94:
 1876              	.LFB3539:
  10:Util/base_effect_module.cpp ****     : m_paramCount(0), m_presetCount(1), m_currentPreset(0), m_params(nullptr), m_audioLeft(0.0f), 
 1877              		.loc 1 10 1 is_stmt 1 view -0
 1878              		.cfi_startproc
 1879              		@ args = 0, pretend = 0, frame = 0
 1880              		@ frame_needed = 0, uses_anonymous_args = 0
 1881              		@ link register save eliminated.
 1882              	.LBB696:
  11:Util/base_effect_module.cpp ****       m_settingsArrayStartIdx(0), m_isEnabled(false) {
 1883              		.loc 1 11 81 is_stmt 0 view .LVU467
 1884 0000 0022     		movs	r2, #0
  12:Util/base_effect_module.cpp ****     m_name = "Base";
 1885              		.loc 1 12 52 view .LVU468
 1886 0002 0849     		ldr	r1, .L72
  11:Util/base_effect_module.cpp ****       m_settingsArrayStartIdx(0), m_isEnabled(false) {
 1887              		.loc 1 11 7 view .LVU469
 1888 0004 0023     		movs	r3, #0
  12:Util/base_effect_module.cpp ****     m_name = "Base";
ARM GAS  /tmp/cc3dlQC7.s 			page 58


 1889              		.loc 1 12 52 view .LVU470
 1890 0006 0160     		str	r1, [r0]
  11:Util/base_effect_module.cpp ****       m_settingsArrayStartIdx(0), m_isEnabled(false) {
 1891              		.loc 1 11 7 view .LVU471
 1892 0008 0121     		movs	r1, #1
  11:Util/base_effect_module.cpp ****       m_settingsArrayStartIdx(0), m_isEnabled(false) {
 1893              		.loc 1 11 81 view .LVU472
 1894 000a C261     		str	r2, [r0, #28]	@ float
  11:Util/base_effect_module.cpp ****       m_settingsArrayStartIdx(0), m_isEnabled(false) {
 1895              		.loc 1 11 100 view .LVU473
 1896 000c 0262     		str	r2, [r0, #32]	@ float
  13:Util/base_effect_module.cpp ****     m_paramMetaData = nullptr;
 1897              		.loc 1 13 12 view .LVU474
 1898 000e 064A     		ldr	r2, .L72+4
  11:Util/base_effect_module.cpp ****       m_settingsArrayStartIdx(0), m_isEnabled(false) {
 1899              		.loc 1 11 7 view .LVU475
 1900 0010 8360     		str	r3, [r0, #8]
  11:Util/base_effect_module.cpp ****       m_settingsArrayStartIdx(0), m_isEnabled(false) {
 1901              		.loc 1 11 42 view .LVU476
 1902 0012 0382     		strh	r3, [r0, #16]	@ movhi
  11:Util/base_effect_module.cpp ****       m_settingsArrayStartIdx(0), m_isEnabled(false) {
 1903              		.loc 1 11 7 view .LVU477
 1904 0014 C160     		str	r1, [r0, #12]
  12:Util/base_effect_module.cpp ****     m_name = "Base";
 1905              		.loc 1 12 7 view .LVU478
 1906 0016 4362     		str	r3, [r0, #36]
  12:Util/base_effect_module.cpp ****     m_name = "Base";
 1907              		.loc 1 12 35 view .LVU479
 1908 0018 80F82830 		strb	r3, [r0, #40]
  13:Util/base_effect_module.cpp ****     m_paramMetaData = nullptr;
 1909              		.loc 1 13 5 is_stmt 1 view .LVU480
  13:Util/base_effect_module.cpp ****     m_paramMetaData = nullptr;
 1910              		.loc 1 13 12 is_stmt 0 view .LVU481
 1911 001c 4260     		str	r2, [r0, #4]
  14:Util/base_effect_module.cpp **** }
 1912              		.loc 1 14 5 is_stmt 1 view .LVU482
  11:Util/base_effect_module.cpp ****       m_settingsArrayStartIdx(0), m_isEnabled(false) {
 1913              		.loc 1 11 62 is_stmt 0 view .LVU483
 1914 001e C0E90533 		strd	r3, r3, [r0, #20]
 1915              	.LBE696:
  15:Util/base_effect_module.cpp **** 
 1916              		.loc 1 15 1 view .LVU484
 1917 0022 7047     		bx	lr
 1918              	.L73:
 1919              		.align	2
 1920              	.L72:
 1921 0024 08000000 		.word	_ZTVN10bkshepherd16BaseEffectModuleE+8
 1922 0028 00000000 		.word	.LC1
 1923              		.cfi_endproc
 1924              	.LFE3539:
 1926              		.global	_ZN10bkshepherd16BaseEffectModuleC1Ev
 1927              		.thumb_set _ZN10bkshepherd16BaseEffectModuleC1Ev,_ZN10bkshepherd16BaseEffectModuleC2Ev
 1928              		.section	.text._ZN10bkshepherd16BaseEffectModule7GetNameEv,"ax",%progbits
 1929              		.align	1
 1930              		.p2align 2,,3
 1931              		.global	_ZN10bkshepherd16BaseEffectModule7GetNameEv
 1932              		.syntax unified
ARM GAS  /tmp/cc3dlQC7.s 			page 59


 1933              		.thumb
 1934              		.thumb_func
 1936              	_ZN10bkshepherd16BaseEffectModule7GetNameEv:
 1937              	.LVL95:
 1938              	.LFB3546:
  26:Util/base_effect_module.cpp **** 
 1939              		.loc 1 26 41 is_stmt 1 view -0
 1940              		.cfi_startproc
 1941              		@ args = 0, pretend = 0, frame = 0
 1942              		@ frame_needed = 0, uses_anonymous_args = 0
 1943              		@ link register save eliminated.
  26:Util/base_effect_module.cpp **** 
 1944              		.loc 1 26 43 view .LVU486
  26:Util/base_effect_module.cpp **** 
 1945              		.loc 1 26 58 is_stmt 0 view .LVU487
 1946 0000 4068     		ldr	r0, [r0, #4]
 1947              	.LVL96:
  26:Util/base_effect_module.cpp **** 
 1948              		.loc 1 26 58 view .LVU488
 1949 0002 7047     		bx	lr
 1950              		.cfi_endproc
 1951              	.LFE3546:
 1953              		.section	.text._ZNK10bkshepherd16BaseEffectModule17GetParameterCountEv,"ax",%progbits
 1954              		.align	1
 1955              		.p2align 2,,3
 1956              		.global	_ZNK10bkshepherd16BaseEffectModule17GetParameterCountEv
 1957              		.syntax unified
 1958              		.thumb
 1959              		.thumb_func
 1961              	_ZNK10bkshepherd16BaseEffectModule17GetParameterCountEv:
 1962              	.LVL97:
 1963              	.LFB3548:
  61:Util/base_effect_module.cpp **** 
 1964              		.loc 1 61 54 is_stmt 1 view -0
 1965              		.cfi_startproc
 1966              		@ args = 0, pretend = 0, frame = 0
 1967              		@ frame_needed = 0, uses_anonymous_args = 0
 1968              		@ link register save eliminated.
  61:Util/base_effect_module.cpp **** 
 1969              		.loc 1 61 56 view .LVU490
  61:Util/base_effect_module.cpp **** 
 1970              		.loc 1 61 77 is_stmt 0 view .LVU491
 1971 0000 0089     		ldrh	r0, [r0, #8]
 1972              	.LVL98:
  61:Util/base_effect_module.cpp **** 
 1973              		.loc 1 61 77 view .LVU492
 1974 0002 7047     		bx	lr
 1975              		.cfi_endproc
 1976              	.LFE3548:
 1978              		.section	.text._ZNK10bkshepherd16BaseEffectModule14GetPresetCountEv,"ax",%progbits
 1979              		.align	1
 1980              		.p2align 2,,3
 1981              		.global	_ZNK10bkshepherd16BaseEffectModule14GetPresetCountEv
 1982              		.syntax unified
 1983              		.thumb
 1984              		.thumb_func
 1986              	_ZNK10bkshepherd16BaseEffectModule14GetPresetCountEv:
ARM GAS  /tmp/cc3dlQC7.s 			page 60


 1987              	.LVL99:
 1988              	.LFB3549:
  63:Util/base_effect_module.cpp **** 
 1989              		.loc 1 63 51 is_stmt 1 view -0
 1990              		.cfi_startproc
 1991              		@ args = 0, pretend = 0, frame = 0
 1992              		@ frame_needed = 0, uses_anonymous_args = 0
 1993              		@ link register save eliminated.
  63:Util/base_effect_module.cpp **** 
 1994              		.loc 1 63 53 view .LVU494
  63:Util/base_effect_module.cpp **** 
 1995              		.loc 1 63 75 is_stmt 0 view .LVU495
 1996 0000 8089     		ldrh	r0, [r0, #12]
 1997              	.LVL100:
  63:Util/base_effect_module.cpp **** 
 1998              		.loc 1 63 75 view .LVU496
 1999 0002 7047     		bx	lr
 2000              		.cfi_endproc
 2001              	.LFE3549:
 2003              		.section	.text._ZN10bkshepherd16BaseEffectModule14SetPresetCountEt,"ax",%progbits
 2004              		.align	1
 2005              		.p2align 2,,3
 2006              		.global	_ZN10bkshepherd16BaseEffectModule14SetPresetCountEt
 2007              		.syntax unified
 2008              		.thumb
 2009              		.thumb_func
 2011              	_ZN10bkshepherd16BaseEffectModule14SetPresetCountEt:
 2012              	.LVL101:
 2013              	.LFB3550:
  65:Util/base_effect_module.cpp **** 
 2014              		.loc 1 65 62 is_stmt 1 view -0
 2015              		.cfi_startproc
 2016              		@ args = 0, pretend = 0, frame = 0
 2017              		@ frame_needed = 0, uses_anonymous_args = 0
 2018              		@ link register save eliminated.
  65:Util/base_effect_module.cpp **** 
 2019              		.loc 1 65 64 view .LVU498
  65:Util/base_effect_module.cpp **** 
 2020              		.loc 1 65 80 is_stmt 0 view .LVU499
 2021 0000 C160     		str	r1, [r0, #12]
  65:Util/base_effect_module.cpp **** 
 2022              		.loc 1 65 94 view .LVU500
 2023 0002 7047     		bx	lr
 2024              		.cfi_endproc
 2025              	.LFE3550:
 2027              		.section	.text._ZN10bkshepherd16BaseEffectModule16SetCurrentPresetEm,"ax",%progbits
 2028              		.align	1
 2029              		.p2align 2,,3
 2030              		.global	_ZN10bkshepherd16BaseEffectModule16SetCurrentPresetEm
 2031              		.syntax unified
 2032              		.thumb
 2033              		.thumb_func
 2035              	_ZN10bkshepherd16BaseEffectModule16SetCurrentPresetEm:
 2036              	.LVL102:
 2037              	.LFB3551:
  67:Util/base_effect_module.cpp **** 
 2038              		.loc 1 67 58 is_stmt 1 view -0
ARM GAS  /tmp/cc3dlQC7.s 			page 61


 2039              		.cfi_startproc
 2040              		@ args = 0, pretend = 0, frame = 0
 2041              		@ frame_needed = 0, uses_anonymous_args = 0
 2042              		@ link register save eliminated.
  67:Util/base_effect_module.cpp **** 
 2043              		.loc 1 67 60 view .LVU502
  67:Util/base_effect_module.cpp **** 
 2044              		.loc 1 67 76 is_stmt 0 view .LVU503
 2045 0000 0182     		strh	r1, [r0, #16]	@ movhi
  67:Util/base_effect_module.cpp **** 
 2046              		.loc 1 67 86 view .LVU504
 2047 0002 7047     		bx	lr
 2048              		.cfi_endproc
 2049              	.LFE3551:
 2051              		.section	.text._ZNK10bkshepherd16BaseEffectModule16GetCurrentPresetEv,"ax",%progbits
 2052              		.align	1
 2053              		.p2align 2,,3
 2054              		.global	_ZNK10bkshepherd16BaseEffectModule16GetCurrentPresetEv
 2055              		.syntax unified
 2056              		.thumb
 2057              		.thumb_func
 2059              	_ZNK10bkshepherd16BaseEffectModule16GetCurrentPresetEv:
 2060              	.LVL103:
 2061              	.LFB3552:
  69:Util/base_effect_module.cpp **** 
 2062              		.loc 1 69 53 is_stmt 1 view -0
 2063              		.cfi_startproc
 2064              		@ args = 0, pretend = 0, frame = 0
 2065              		@ frame_needed = 0, uses_anonymous_args = 0
 2066              		@ link register save eliminated.
  69:Util/base_effect_module.cpp **** 
 2067              		.loc 1 69 55 view .LVU506
  69:Util/base_effect_module.cpp **** 
 2068              		.loc 1 69 79 is_stmt 0 view .LVU507
 2069 0000 008A     		ldrh	r0, [r0, #16]
 2070              	.LVL104:
  69:Util/base_effect_module.cpp **** 
 2071              		.loc 1 69 79 view .LVU508
 2072 0002 7047     		bx	lr
 2073              		.cfi_endproc
 2074              	.LFE3552:
 2076              		.section	.text._ZN10bkshepherd16BaseEffectModule24SetSettingsArrayStartIdxEm,"ax",%progbits
 2077              		.align	1
 2078              		.p2align 2,,3
 2079              		.global	_ZN10bkshepherd16BaseEffectModule24SetSettingsArrayStartIdxEm
 2080              		.syntax unified
 2081              		.thumb
 2082              		.thumb_func
 2084              	_ZN10bkshepherd16BaseEffectModule24SetSettingsArrayStartIdxEm:
 2085              	.LVL105:
 2086              	.LFB3553:
  71:Util/base_effect_module.cpp **** 
 2087              		.loc 1 71 69 is_stmt 1 view -0
 2088              		.cfi_startproc
 2089              		@ args = 0, pretend = 0, frame = 0
 2090              		@ frame_needed = 0, uses_anonymous_args = 0
 2091              		@ link register save eliminated.
ARM GAS  /tmp/cc3dlQC7.s 			page 62


  71:Util/base_effect_module.cpp **** 
 2092              		.loc 1 71 71 view .LVU510
  71:Util/base_effect_module.cpp **** 
 2093              		.loc 1 71 95 is_stmt 0 view .LVU511
 2094 0000 4162     		str	r1, [r0, #36]
  71:Util/base_effect_module.cpp **** 
 2095              		.loc 1 71 108 view .LVU512
 2096 0002 7047     		bx	lr
 2097              		.cfi_endproc
 2098              	.LFE3553:
 2100              		.section	.text._ZNK10bkshepherd16BaseEffectModule24GetSettingsArrayStartIdxEv,"ax",%progbits
 2101              		.align	1
 2102              		.p2align 2,,3
 2103              		.global	_ZNK10bkshepherd16BaseEffectModule24GetSettingsArrayStartIdxEv
 2104              		.syntax unified
 2105              		.thumb
 2106              		.thumb_func
 2108              	_ZNK10bkshepherd16BaseEffectModule24GetSettingsArrayStartIdxEv:
 2109              	.LVL106:
 2110              	.LFB3554:
  73:Util/base_effect_module.cpp **** 
 2111              		.loc 1 73 61 is_stmt 1 view -0
 2112              		.cfi_startproc
 2113              		@ args = 0, pretend = 0, frame = 0
 2114              		@ frame_needed = 0, uses_anonymous_args = 0
 2115              		@ link register save eliminated.
  73:Util/base_effect_module.cpp **** 
 2116              		.loc 1 73 63 view .LVU514
  73:Util/base_effect_module.cpp **** 
 2117              		.loc 1 73 95 is_stmt 0 view .LVU515
 2118 0000 406A     		ldr	r0, [r0, #36]
 2119              	.LVL107:
  73:Util/base_effect_module.cpp **** 
 2120              		.loc 1 73 95 view .LVU516
 2121 0002 7047     		bx	lr
 2122              		.cfi_endproc
 2123              	.LFE3554:
 2125              		.section	.rodata._ZNK10bkshepherd16BaseEffectModule16GetParameterNameEi.str1.4,"aMS",%progbits,1
 2126              		.align	2
 2127              	.LC2:
 2128 0000 556E6B6E 		.ascii	"Unknown\000"
 2128      6F776E00 
 2129              		.section	.text._ZNK10bkshepherd16BaseEffectModule16GetParameterNameEi,"ax",%progbits
 2130              		.align	1
 2131              		.p2align 2,,3
 2132              		.global	_ZNK10bkshepherd16BaseEffectModule16GetParameterNameEi
 2133              		.syntax unified
 2134              		.thumb
 2135              		.thumb_func
 2137              	_ZNK10bkshepherd16BaseEffectModule16GetParameterNameEi:
 2138              	.LVL108:
 2139              	.LFB3555:
  75:Util/base_effect_module.cpp ****     // Make sure parameter_id is valid.
 2140              		.loc 1 75 72 is_stmt 1 view -0
 2141              		.cfi_startproc
 2142              		@ args = 0, pretend = 0, frame = 0
 2143              		@ frame_needed = 0, uses_anonymous_args = 0
ARM GAS  /tmp/cc3dlQC7.s 			page 63


 2144              		@ link register save eliminated.
  77:Util/base_effect_module.cpp ****         return "Unknown";
 2145              		.loc 1 77 5 view .LVU518
 2146 0000 4369     		ldr	r3, [r0, #20]
  77:Util/base_effect_module.cpp ****         return "Unknown";
 2147              		.loc 1 77 29 is_stmt 0 discriminator 1 view .LVU519
 2148 0002 5BB1     		cbz	r3, .L86
 2149 0004 0029     		cmp	r1, #0
 2150 0006 09DB     		blt	.L86
  77:Util/base_effect_module.cpp ****         return "Unknown";
 2151              		.loc 1 77 49 discriminator 2 view .LVU520
 2152 0008 8368     		ldr	r3, [r0, #8]
 2153 000a 8B42     		cmp	r3, r1
 2154 000c 06DD     		ble	.L86
  77:Util/base_effect_module.cpp ****         return "Unknown";
 2155              		.loc 1 77 84 discriminator 3 view .LVU521
 2156 000e 8369     		ldr	r3, [r0, #24]
  77:Util/base_effect_module.cpp ****         return "Unknown";
 2157              		.loc 1 77 81 discriminator 3 view .LVU522
 2158 0010 23B1     		cbz	r3, .L86
  81:Util/base_effect_module.cpp **** }
 2159              		.loc 1 81 5 is_stmt 1 view .LVU523
  81:Util/base_effect_module.cpp **** }
 2160              		.loc 1 81 42 is_stmt 0 view .LVU524
 2161 0012 01EB8101 		add	r1, r1, r1, lsl #2
 2162              	.LVL109:
  81:Util/base_effect_module.cpp **** }
 2163              		.loc 1 81 42 view .LVU525
 2164 0016 53F83100 		ldr	r0, [r3, r1, lsl #3]
 2165              	.LVL110:
  81:Util/base_effect_module.cpp **** }
 2166              		.loc 1 81 42 view .LVU526
 2167 001a 7047     		bx	lr
 2168              	.LVL111:
 2169              	.L86:
  78:Util/base_effect_module.cpp ****     }
 2170              		.loc 1 78 16 view .LVU527
 2171 001c 0048     		ldr	r0, .L87
 2172              	.LVL112:
  82:Util/base_effect_module.cpp **** 
 2173              		.loc 1 82 1 view .LVU528
 2174 001e 7047     		bx	lr
 2175              	.L88:
 2176              		.align	2
 2177              	.L87:
 2178 0020 00000000 		.word	.LC2
 2179              		.cfi_endproc
 2180              	.LFE3555:
 2182              		.section	.text._ZNK10bkshepherd16BaseEffectModule16GetParameterTypeEi,"ax",%progbits
 2183              		.align	1
 2184              		.p2align 2,,3
 2185              		.global	_ZNK10bkshepherd16BaseEffectModule16GetParameterTypeEi
 2186              		.syntax unified
 2187              		.thumb
 2188              		.thumb_func
 2190              	_ZNK10bkshepherd16BaseEffectModule16GetParameterTypeEi:
 2191              	.LVL113:
ARM GAS  /tmp/cc3dlQC7.s 			page 64


 2192              	.LFB3556:
  84:Util/base_effect_module.cpp ****     // Make sure parameter_id is valid.
 2193              		.loc 1 84 79 is_stmt 1 view -0
 2194              		.cfi_startproc
 2195              		@ args = 0, pretend = 0, frame = 0
 2196              		@ frame_needed = 0, uses_anonymous_args = 0
 2197              		@ link register save eliminated.
  86:Util/base_effect_module.cpp ****         return ParameterValueType::Unknown;
 2198              		.loc 1 86 5 view .LVU530
 2199 0000 4369     		ldr	r3, [r0, #20]
  86:Util/base_effect_module.cpp ****         return ParameterValueType::Unknown;
 2200              		.loc 1 86 29 is_stmt 0 discriminator 1 view .LVU531
 2201 0002 63B1     		cbz	r3, .L93
 2202 0004 0029     		cmp	r1, #0
 2203 0006 0ADB     		blt	.L93
  86:Util/base_effect_module.cpp ****         return ParameterValueType::Unknown;
 2204              		.loc 1 86 49 discriminator 2 view .LVU532
 2205 0008 8368     		ldr	r3, [r0, #8]
 2206 000a 8B42     		cmp	r3, r1
 2207 000c 07DD     		ble	.L93
  86:Util/base_effect_module.cpp ****         return ParameterValueType::Unknown;
 2208              		.loc 1 86 84 discriminator 3 view .LVU533
 2209 000e 8369     		ldr	r3, [r0, #24]
  86:Util/base_effect_module.cpp ****         return ParameterValueType::Unknown;
 2210              		.loc 1 86 81 discriminator 3 view .LVU534
 2211 0010 2BB1     		cbz	r3, .L93
  90:Util/base_effect_module.cpp **** }
 2212              		.loc 1 90 5 is_stmt 1 view .LVU535
  90:Util/base_effect_module.cpp **** }
 2213              		.loc 1 90 42 is_stmt 0 view .LVU536
 2214 0012 01EB8101 		add	r1, r1, r1, lsl #2
 2215              	.LVL114:
  90:Util/base_effect_module.cpp **** }
 2216              		.loc 1 90 42 view .LVU537
 2217 0016 03EBC103 		add	r3, r3, r1, lsl #3
 2218 001a 1879     		ldrb	r0, [r3, #4]	@ zero_extendqisi2
 2219              	.LVL115:
  90:Util/base_effect_module.cpp **** }
 2220              		.loc 1 90 42 view .LVU538
 2221 001c 7047     		bx	lr
 2222              	.LVL116:
 2223              	.L93:
  87:Util/base_effect_module.cpp ****     }
 2224              		.loc 1 87 36 view .LVU539
 2225 001e 0420     		movs	r0, #4
 2226              	.LVL117:
  91:Util/base_effect_module.cpp **** 
 2227              		.loc 1 91 1 view .LVU540
 2228 0020 7047     		bx	lr
 2229              		.cfi_endproc
 2230              	.LFE3556:
 2232 0022 00BF     		.section	.text._ZNK10bkshepherd16BaseEffectModule22GetParameterValueCurveEi,"ax",%progbits
 2233              		.align	1
 2234              		.p2align 2,,3
 2235              		.global	_ZNK10bkshepherd16BaseEffectModule22GetParameterValueCurveEi
 2236              		.syntax unified
 2237              		.thumb
ARM GAS  /tmp/cc3dlQC7.s 			page 65


 2238              		.thumb_func
 2240              	_ZNK10bkshepherd16BaseEffectModule22GetParameterValueCurveEi:
 2241              	.LVL118:
 2242              	.LFB3557:
  93:Util/base_effect_module.cpp ****     // Make sure parameter_id is valid.
 2243              		.loc 1 93 86 is_stmt 1 view -0
 2244              		.cfi_startproc
 2245              		@ args = 0, pretend = 0, frame = 0
 2246              		@ frame_needed = 0, uses_anonymous_args = 0
 2247              		@ link register save eliminated.
  95:Util/base_effect_module.cpp ****         return ParameterValueCurve::Linear;
 2248              		.loc 1 95 5 view .LVU542
 2249 0000 4369     		ldr	r3, [r0, #20]
  95:Util/base_effect_module.cpp ****         return ParameterValueCurve::Linear;
 2250              		.loc 1 95 29 is_stmt 0 discriminator 1 view .LVU543
 2251 0002 73B1     		cbz	r3, .L96
 2252 0004 CB0F     		lsrs	r3, r1, #31
 2253 0006 0CD1     		bne	.L96
  95:Util/base_effect_module.cpp ****         return ParameterValueCurve::Linear;
 2254              		.loc 1 95 49 discriminator 2 view .LVU544
 2255 0008 8268     		ldr	r2, [r0, #8]
 2256 000a 8A42     		cmp	r2, r1
 2257 000c 07DD     		ble	.L97
  95:Util/base_effect_module.cpp ****         return ParameterValueCurve::Linear;
 2258              		.loc 1 95 84 discriminator 3 view .LVU545
 2259 000e 8069     		ldr	r0, [r0, #24]
 2260              	.LVL119:
  95:Util/base_effect_module.cpp ****         return ParameterValueCurve::Linear;
 2261              		.loc 1 95 81 discriminator 3 view .LVU546
 2262 0010 30B1     		cbz	r0, .L95
  99:Util/base_effect_module.cpp **** }
 2263              		.loc 1 99 5 is_stmt 1 view .LVU547
  99:Util/base_effect_module.cpp **** }
 2264              		.loc 1 99 42 is_stmt 0 view .LVU548
 2265 0012 01EB8101 		add	r1, r1, r1, lsl #2
 2266              	.LVL120:
  99:Util/base_effect_module.cpp **** }
 2267              		.loc 1 99 42 view .LVU549
 2268 0016 00EBC100 		add	r0, r0, r1, lsl #3
 2269 001a 4079     		ldrb	r0, [r0, #5]	@ zero_extendqisi2
 2270 001c 7047     		bx	lr
 2271              	.LVL121:
 2272              	.L97:
  96:Util/base_effect_module.cpp ****     }
 2273              		.loc 1 96 37 view .LVU550
 2274 001e 1846     		mov	r0, r3
 2275              	.LVL122:
 2276              	.L95:
 100:Util/base_effect_module.cpp **** 
 2277              		.loc 1 100 1 view .LVU551
 2278 0020 7047     		bx	lr
 2279              	.LVL123:
 2280              	.L96:
  96:Util/base_effect_module.cpp ****     }
 2281              		.loc 1 96 37 view .LVU552
 2282 0022 0020     		movs	r0, #0
 2283              	.LVL124:
ARM GAS  /tmp/cc3dlQC7.s 			page 66


  96:Util/base_effect_module.cpp ****     }
 2284              		.loc 1 96 37 view .LVU553
 2285 0024 7047     		bx	lr
 2286              		.cfi_endproc
 2287              	.LFE3557:
 2289 0026 00BF     		.section	.text._ZNK10bkshepherd16BaseEffectModule20GetParameterBinCountEi,"ax",%progbits
 2290              		.align	1
 2291              		.p2align 2,,3
 2292              		.global	_ZNK10bkshepherd16BaseEffectModule20GetParameterBinCountEi
 2293              		.syntax unified
 2294              		.thumb
 2295              		.thumb_func
 2297              	_ZNK10bkshepherd16BaseEffectModule20GetParameterBinCountEi:
 2298              	.LVL125:
 2299              	.LFB3558:
 102:Util/base_effect_module.cpp ****     // Make sure parameter_id is valid.
 2300              		.loc 1 102 68 is_stmt 1 view -0
 2301              		.cfi_startproc
 2302              		@ args = 0, pretend = 0, frame = 0
 2303              		@ frame_needed = 0, uses_anonymous_args = 0
 2304              		@ link register save eliminated.
 104:Util/base_effect_module.cpp ****         return -1;
 2305              		.loc 1 104 5 view .LVU555
 2306 0000 4369     		ldr	r3, [r0, #20]
 104:Util/base_effect_module.cpp ****         return -1;
 2307              		.loc 1 104 29 is_stmt 0 discriminator 1 view .LVU556
 2308 0002 7BB1     		cbz	r3, .L104
 2309 0004 0029     		cmp	r1, #0
 2310 0006 0DDB     		blt	.L104
 104:Util/base_effect_module.cpp ****         return -1;
 2311              		.loc 1 104 49 discriminator 2 view .LVU557
 2312 0008 8368     		ldr	r3, [r0, #8]
 2313 000a 8B42     		cmp	r3, r1
 2314 000c 0ADD     		ble	.L104
 104:Util/base_effect_module.cpp ****         return -1;
 2315              		.loc 1 104 84 discriminator 3 view .LVU558
 2316 000e 8369     		ldr	r3, [r0, #24]
 104:Util/base_effect_module.cpp ****         return -1;
 2317              		.loc 1 104 81 discriminator 3 view .LVU559
 2318 0010 43B1     		cbz	r3, .L104
 109:Util/base_effect_module.cpp ****         return -1;
 2319              		.loc 1 109 5 is_stmt 1 view .LVU560
 2320              	.LVL126:
 2321              	.LBB699:
 2322              	.LBI699:
  84:Util/base_effect_module.cpp ****     // Make sure parameter_id is valid.
 2323              		.loc 1 84 20 view .LVU561
 2324              	.LBB700:
  86:Util/base_effect_module.cpp ****         return ParameterValueType::Unknown;
 2325              		.loc 1 86 5 view .LVU562
  90:Util/base_effect_module.cpp **** }
 2326              		.loc 1 90 5 view .LVU563
  90:Util/base_effect_module.cpp **** }
 2327              		.loc 1 90 40 is_stmt 0 view .LVU564
 2328 0012 01EB8101 		add	r1, r1, r1, lsl #2
 2329              	.LVL127:
  90:Util/base_effect_module.cpp **** }
ARM GAS  /tmp/cc3dlQC7.s 			page 67


 2330              		.loc 1 90 40 view .LVU565
 2331 0016 03EBC103 		add	r3, r3, r1, lsl #3
 2332              	.LVL128:
  90:Util/base_effect_module.cpp **** }
 2333              		.loc 1 90 40 view .LVU566
 2334              	.LBE700:
 2335              	.LBE699:
 109:Util/base_effect_module.cpp ****         return -1;
 2336              		.loc 1 109 5 discriminator 1 view .LVU567
 2337 001a 1A79     		ldrb	r2, [r3, #4]	@ zero_extendqisi2
 2338 001c 032A     		cmp	r2, #3
 2339 001e 01D1     		bne	.L104
 113:Util/base_effect_module.cpp **** }
 2340              		.loc 1 113 5 is_stmt 1 view .LVU568
 113:Util/base_effect_module.cpp **** }
 2341              		.loc 1 113 42 is_stmt 0 view .LVU569
 2342 0020 9868     		ldr	r0, [r3, #8]
 2343              	.LVL129:
 113:Util/base_effect_module.cpp **** }
 2344              		.loc 1 113 42 view .LVU570
 2345 0022 7047     		bx	lr
 2346              	.LVL130:
 2347              	.L104:
 105:Util/base_effect_module.cpp ****     }
 2348              		.loc 1 105 17 view .LVU571
 2349 0024 4FF0FF30 		mov	r0, #-1
 2350              	.LVL131:
 114:Util/base_effect_module.cpp **** 
 2351              		.loc 1 114 1 view .LVU572
 2352 0028 7047     		bx	lr
 2353              		.cfi_endproc
 2354              	.LFE3558:
 2356 002a 00BF     		.section	.text._ZNK10bkshepherd16BaseEffectModule20GetParameterBinNamesEi,"ax",%progbits
 2357              		.align	1
 2358              		.p2align 2,,3
 2359              		.global	_ZNK10bkshepherd16BaseEffectModule20GetParameterBinNamesEi
 2360              		.syntax unified
 2361              		.thumb
 2362              		.thumb_func
 2364              	_ZNK10bkshepherd16BaseEffectModule20GetParameterBinNamesEi:
 2365              	.LVL132:
 2366              	.LFB3559:
 116:Util/base_effect_module.cpp ****     // Make sure parameter_id is valid.
 2367              		.loc 1 116 77 is_stmt 1 view -0
 2368              		.cfi_startproc
 2369              		@ args = 0, pretend = 0, frame = 8
 2370              		@ frame_needed = 0, uses_anonymous_args = 0
 118:Util/base_effect_module.cpp ****         return nullptr;
 2371              		.loc 1 118 5 view .LVU574
 116:Util/base_effect_module.cpp ****     // Make sure parameter_id is valid.
 2372              		.loc 1 116 77 is_stmt 0 view .LVU575
 2373 0000 30B5     		push	{r4, r5, lr}
 2374              		.cfi_def_cfa_offset 12
 2375              		.cfi_offset 4, -12
 2376              		.cfi_offset 5, -8
 2377              		.cfi_offset 14, -4
 118:Util/base_effect_module.cpp ****         return nullptr;
ARM GAS  /tmp/cc3dlQC7.s 			page 68


 2378              		.loc 1 118 29 discriminator 1 view .LVU576
 2379 0002 4469     		ldr	r4, [r0, #20]
 116:Util/base_effect_module.cpp ****     // Make sure parameter_id is valid.
 2380              		.loc 1 116 77 view .LVU577
 2381 0004 83B0     		sub	sp, sp, #12
 2382              		.cfi_def_cfa_offset 24
 118:Util/base_effect_module.cpp ****         return nullptr;
 2383              		.loc 1 118 29 discriminator 1 view .LVU578
 2384 0006 BCB1     		cbz	r4, .L107
 2385 0008 CC0F     		lsrs	r4, r1, #31
 2386 000a 2546     		mov	r5, r4
 2387 000c 14D1     		bne	.L107
 118:Util/base_effect_module.cpp ****         return nullptr;
 2388              		.loc 1 118 49 discriminator 2 view .LVU579
 2389 000e 8468     		ldr	r4, [r0, #8]
 2390 0010 8C42     		cmp	r4, r1
 2391 0012 11DD     		ble	.L107
 118:Util/base_effect_module.cpp ****         return nullptr;
 2392              		.loc 1 118 84 discriminator 3 view .LVU580
 2393 0014 8269     		ldr	r2, [r0, #24]
 118:Util/base_effect_module.cpp ****         return nullptr;
 2394              		.loc 1 118 81 discriminator 3 view .LVU581
 2395 0016 62B1     		cbz	r2, .L105
 123:Util/base_effect_module.cpp **** 
 2396              		.loc 1 123 5 is_stmt 1 view .LVU582
 2397 0018 CDE90012 		strd	r1, r2, [sp]
 123:Util/base_effect_module.cpp **** 
 2398              		.loc 1 123 40 is_stmt 0 view .LVU583
 2399 001c FFF7FEFF 		bl	_ZNK10bkshepherd16BaseEffectModule20GetParameterBinCountEi
 2400              	.LVL133:
 126:Util/base_effect_module.cpp ****         return nullptr;
 2401              		.loc 1 126 5 is_stmt 1 view .LVU584
 2402 0020 0130     		adds	r0, r0, #1
 2403              	.LVL134:
 126:Util/base_effect_module.cpp ****         return nullptr;
 2404              		.loc 1 126 5 is_stmt 0 view .LVU585
 2405 0022 0DD0     		beq	.L109
 130:Util/base_effect_module.cpp **** }
 2406              		.loc 1 130 5 is_stmt 1 view .LVU586
 130:Util/base_effect_module.cpp **** }
 2407              		.loc 1 130 42 is_stmt 0 view .LVU587
 2408 0024 009B     		ldr	r3, [sp]
 2409 0026 019A     		ldr	r2, [sp, #4]
 2410 0028 03EB8303 		add	r3, r3, r3, lsl #2
 2411 002c 02EBC302 		add	r2, r2, r3, lsl #3
 2412 0030 D268     		ldr	r2, [r2, #12]
 2413              	.LVL135:
 2414              	.L105:
 131:Util/base_effect_module.cpp **** 
 2415              		.loc 1 131 1 view .LVU588
 2416 0032 1046     		mov	r0, r2
 2417 0034 03B0     		add	sp, sp, #12
 2418              		.cfi_remember_state
 2419              		.cfi_def_cfa_offset 12
 2420              		@ sp needed
 2421 0036 30BD     		pop	{r4, r5, pc}
 2422              	.LVL136:
ARM GAS  /tmp/cc3dlQC7.s 			page 69


 2423              	.L107:
 2424              		.cfi_restore_state
 119:Util/base_effect_module.cpp ****     }
 2425              		.loc 1 119 16 view .LVU589
 2426 0038 0022     		movs	r2, #0
 131:Util/base_effect_module.cpp **** 
 2427              		.loc 1 131 1 view .LVU590
 2428 003a 1046     		mov	r0, r2
 2429              	.LVL137:
 131:Util/base_effect_module.cpp **** 
 2430              		.loc 1 131 1 view .LVU591
 2431 003c 03B0     		add	sp, sp, #12
 2432              		.cfi_remember_state
 2433              		.cfi_def_cfa_offset 12
 2434              		@ sp needed
 2435 003e 30BD     		pop	{r4, r5, pc}
 2436              	.LVL138:
 2437              	.L109:
 2438              		.cfi_restore_state
 119:Util/base_effect_module.cpp ****     }
 2439              		.loc 1 119 16 view .LVU592
 2440 0040 2A46     		mov	r2, r5
 2441 0042 F6E7     		b	.L105
 2442              		.cfi_endproc
 2443              	.LFE3559:
 2445              		.section	.text._ZNK10bkshepherd16BaseEffectModule31GetParameterDefaultValueAsFloatEi,"ax",%progbit
 2446              		.align	1
 2447              		.p2align 2,,3
 2448              		.global	_ZNK10bkshepherd16BaseEffectModule31GetParameterDefaultValueAsFloatEi
 2449              		.syntax unified
 2450              		.thumb
 2451              		.thumb_func
 2453              	_ZNK10bkshepherd16BaseEffectModule31GetParameterDefaultValueAsFloatEi:
 2454              	.LVL139:
 2455              	.LFB3560:
 133:Util/base_effect_module.cpp ****     // Make sure parameter_id is valid.
 2456              		.loc 1 133 87 is_stmt 1 view -0
 2457              		.cfi_startproc
 2458              		@ args = 0, pretend = 0, frame = 0
 2459              		@ frame_needed = 0, uses_anonymous_args = 0
 2460              		@ link register save eliminated.
 135:Util/base_effect_module.cpp ****         return 0.0f;
 2461              		.loc 1 135 5 view .LVU594
 2462 0000 4369     		ldr	r3, [r0, #20]
 135:Util/base_effect_module.cpp ****         return 0.0f;
 2463              		.loc 1 135 29 is_stmt 0 discriminator 1 view .LVU595
 2464 0002 6BB1     		cbz	r3, .L118
 2465 0004 0029     		cmp	r1, #0
 2466 0006 0BDB     		blt	.L118
 135:Util/base_effect_module.cpp ****         return 0.0f;
 2467              		.loc 1 135 49 discriminator 2 view .LVU596
 2468 0008 8368     		ldr	r3, [r0, #8]
 2469 000a 8B42     		cmp	r3, r1
 2470 000c 08DD     		ble	.L118
 135:Util/base_effect_module.cpp ****         return 0.0f;
 2471              		.loc 1 135 84 discriminator 3 view .LVU597
 2472 000e 8369     		ldr	r3, [r0, #24]
ARM GAS  /tmp/cc3dlQC7.s 			page 70


 135:Util/base_effect_module.cpp ****         return 0.0f;
 2473              		.loc 1 135 81 discriminator 3 view .LVU598
 2474 0010 33B1     		cbz	r3, .L118
 139:Util/base_effect_module.cpp **** }
 2475              		.loc 1 139 5 is_stmt 1 view .LVU599
 139:Util/base_effect_module.cpp **** }
 2476              		.loc 1 139 55 is_stmt 0 view .LVU600
 2477 0012 01EB8101 		add	r1, r1, r1, lsl #2
 2478              	.LVL140:
 139:Util/base_effect_module.cpp **** }
 2479              		.loc 1 139 55 view .LVU601
 2480 0016 03EBC103 		add	r3, r3, r1, lsl #3
 2481 001a 93ED040A 		vldr.32	s0, [r3, #16]
 2482 001e 7047     		bx	lr
 2483              	.LVL141:
 2484              	.L118:
 136:Util/base_effect_module.cpp ****     }
 2485              		.loc 1 136 16 view .LVU602
 2486 0020 9FED010A 		vldr.32	s0, .L119
 140:Util/base_effect_module.cpp **** 
 2487              		.loc 1 140 1 view .LVU603
 2488 0024 7047     		bx	lr
 2489              	.L120:
 2490 0026 00BF     		.align	2
 2491              	.L119:
 2492 0028 00000000 		.word	0
 2493              		.cfi_endproc
 2494              	.LFE3560:
 2496              		.section	.text._ZNK10bkshepherd16BaseEffectModule15GetParameterRawEi,"ax",%progbits
 2497              		.align	1
 2498              		.p2align 2,,3
 2499              		.global	_ZNK10bkshepherd16BaseEffectModule15GetParameterRawEi
 2500              		.syntax unified
 2501              		.thumb
 2502              		.thumb_func
 2504              	_ZNK10bkshepherd16BaseEffectModule15GetParameterRawEi:
 2505              	.LVL142:
 2506              	.LFB3561:
 142:Util/base_effect_module.cpp ****     // Make sure parameter_id is valid.
 2507              		.loc 1 142 68 is_stmt 1 view -0
 2508              		.cfi_startproc
 2509              		@ args = 0, pretend = 0, frame = 0
 2510              		@ frame_needed = 0, uses_anonymous_args = 0
 2511              		@ link register save eliminated.
 144:Util/base_effect_module.cpp ****         return 0;
 2512              		.loc 1 144 5 view .LVU605
 144:Util/base_effect_module.cpp ****         return 0;
 2513              		.loc 1 144 29 is_stmt 0 discriminator 1 view .LVU606
 2514 0000 0029     		cmp	r1, #0
 144:Util/base_effect_module.cpp ****         return 0;
 2515              		.loc 1 144 9 view .LVU607
 2516 0002 4369     		ldr	r3, [r0, #20]
 144:Util/base_effect_module.cpp ****         return 0;
 2517              		.loc 1 144 29 discriminator 1 view .LVU608
 2518 0004 0ADB     		blt	.L123
 2519 0006 4BB1     		cbz	r3, .L123
 144:Util/base_effect_module.cpp ****         return 0;
ARM GAS  /tmp/cc3dlQC7.s 			page 71


 2520              		.loc 1 144 49 discriminator 2 view .LVU609
 2521 0008 8268     		ldr	r2, [r0, #8]
 2522 000a 8A42     		cmp	r2, r1
 2523 000c 02DD     		ble	.L124
 148:Util/base_effect_module.cpp **** }
 2524              		.loc 1 148 5 is_stmt 1 view .LVU610
 148:Util/base_effect_module.cpp **** }
 2525              		.loc 1 148 33 is_stmt 0 view .LVU611
 2526 000e 53F82100 		ldr	r0, [r3, r1, lsl #2]
 2527              	.LVL143:
 148:Util/base_effect_module.cpp **** }
 2528              		.loc 1 148 33 view .LVU612
 2529 0012 7047     		bx	lr
 2530              	.LVL144:
 2531              	.L124:
 145:Util/base_effect_module.cpp ****     }
 2532              		.loc 1 145 16 view .LVU613
 2533 0014 B3FA83F0 		clz	r0, r3
 2534              	.LVL145:
 145:Util/base_effect_module.cpp ****     }
 2535              		.loc 1 145 16 view .LVU614
 2536 0018 4009     		lsrs	r0, r0, #5
 149:Util/base_effect_module.cpp **** 
 2537              		.loc 1 149 1 view .LVU615
 2538 001a 7047     		bx	lr
 2539              	.LVL146:
 2540              	.L123:
 145:Util/base_effect_module.cpp ****     }
 2541              		.loc 1 145 16 view .LVU616
 2542 001c 0020     		movs	r0, #0
 2543              	.LVL147:
 145:Util/base_effect_module.cpp ****     }
 2544              		.loc 1 145 16 view .LVU617
 2545 001e 7047     		bx	lr
 2546              		.cfi_endproc
 2547              	.LFE3561:
 2549              		.section	.text._ZNK10bkshepherd16BaseEffectModule19GetParameterAsFloatEi,"ax",%progbits
 2550              		.align	1
 2551              		.p2align 2,,3
 2552              		.global	_ZNK10bkshepherd16BaseEffectModule19GetParameterAsFloatEi
 2553              		.syntax unified
 2554              		.thumb
 2555              		.thumb_func
 2557              	_ZNK10bkshepherd16BaseEffectModule19GetParameterAsFloatEi:
 2558              	.LVL148:
 2559              	.LFB3562:
 151:Util/base_effect_module.cpp ****     if (parameter_id >= 0 || parameter_id < m_paramCount) {
 2560              		.loc 1 151 69 is_stmt 1 view -0
 2561              		.cfi_startproc
 2562              		@ args = 0, pretend = 0, frame = 0
 2563              		@ frame_needed = 0, uses_anonymous_args = 0
 2564              		@ link register save eliminated.
 152:Util/base_effect_module.cpp ****         float ret;
 2565              		.loc 1 152 5 view .LVU619
 2566              	.LBB701:
 2567 0000 0029     		cmp	r1, #0
 152:Util/base_effect_module.cpp ****         float ret;
ARM GAS  /tmp/cc3dlQC7.s 			page 72


 2568              		.loc 1 152 5 is_stmt 0 view .LVU620
 2569 0002 05DA     		bge	.L126
 152:Util/base_effect_module.cpp ****         float ret;
 2570              		.loc 1 152 27 discriminator 1 view .LVU621
 2571 0004 8368     		ldr	r3, [r0, #8]
 2572 0006 8B42     		cmp	r3, r1
 2573 0008 02DC     		bgt	.L126
 2574              	.LBE701:
 158:Util/base_effect_module.cpp **** }
 2575              		.loc 1 158 13 view .LVU622
 2576 000a BFEE000A 		vmov.f32	s0, #-1.0e+0
 159:Util/base_effect_module.cpp **** 
 2577              		.loc 1 159 1 view .LVU623
 2578 000e 7047     		bx	lr
 2579              	.L126:
 2580              	.LBB703:
 2581              	.LBB702:
 153:Util/base_effect_module.cpp ****         uint32_t tmp = m_params[parameter_id];
 2582              		.loc 1 153 9 is_stmt 1 view .LVU624
 154:Util/base_effect_module.cpp ****         std::memcpy(&ret, &tmp, sizeof(float));
 2583              		.loc 1 154 9 view .LVU625
 2584              	.LVL149:
 155:Util/base_effect_module.cpp ****         return ret;
 2585              		.loc 1 155 9 view .LVU626
 156:Util/base_effect_module.cpp ****     }
 2586              		.loc 1 156 9 view .LVU627
 154:Util/base_effect_module.cpp ****         std::memcpy(&ret, &tmp, sizeof(float));
 2587              		.loc 1 154 45 is_stmt 0 view .LVU628
 2588 0010 4369     		ldr	r3, [r0, #20]
 2589 0012 53F82130 		ldr	r3, [r3, r1, lsl #2]
 2590 0016 00EE103A 		vmov	s0, r3
 2591 001a 7047     		bx	lr
 2592              	.LBE702:
 2593              	.LBE703:
 2594              		.cfi_endproc
 2595              	.LFE3562:
 2597              		.section	.text._ZNK10bkshepherd16BaseEffectModule18GetParameterAsBoolEi,"ax",%progbits
 2598              		.align	1
 2599              		.p2align 2,,3
 2600              		.global	_ZNK10bkshepherd16BaseEffectModule18GetParameterAsBoolEi
 2601              		.syntax unified
 2602              		.thumb
 2603              		.thumb_func
 2605              	_ZNK10bkshepherd16BaseEffectModule18GetParameterAsBoolEi:
 2606              	.LVL150:
 2607              	.LFB3563:
 161:Util/base_effect_module.cpp **** 
 2608              		.loc 1 161 67 is_stmt 1 view -0
 2609              		.cfi_startproc
 2610              		@ args = 0, pretend = 0, frame = 0
 2611              		@ frame_needed = 0, uses_anonymous_args = 0
 2612              		@ link register save eliminated.
 161:Util/base_effect_module.cpp **** 
 2613              		.loc 1 161 69 view .LVU630
 2614              	.LBB704:
 2615              	.LBI704:
 142:Util/base_effect_module.cpp ****     // Make sure parameter_id is valid.
ARM GAS  /tmp/cc3dlQC7.s 			page 73


 2616              		.loc 1 142 10 view .LVU631
 2617              	.LBB705:
 144:Util/base_effect_module.cpp ****         return 0;
 2618              		.loc 1 144 5 view .LVU632
 144:Util/base_effect_module.cpp ****         return 0;
 2619              		.loc 1 144 9 is_stmt 0 view .LVU633
 2620 0000 4269     		ldr	r2, [r0, #20]
 144:Util/base_effect_module.cpp ****         return 0;
 2621              		.loc 1 144 5 view .LVU634
 2622 0002 B2FA82F3 		clz	r3, r2
 2623 0006 5B09     		lsrs	r3, r3, #5
 144:Util/base_effect_module.cpp ****         return 0;
 2624              		.loc 1 144 29 discriminator 1 view .LVU635
 2625 0008 53EAD173 		orrs	r3, r3, r1, lsr #31
 2626 000c 09D1     		bne	.L131
 144:Util/base_effect_module.cpp ****         return 0;
 2627              		.loc 1 144 49 discriminator 2 view .LVU636
 2628 000e 8068     		ldr	r0, [r0, #8]
 2629              	.LVL151:
 144:Util/base_effect_module.cpp ****         return 0;
 2630              		.loc 1 144 49 discriminator 2 view .LVU637
 2631 0010 8142     		cmp	r1, r0
 2632 0012 04DA     		bge	.L130
 148:Util/base_effect_module.cpp **** }
 2633              		.loc 1 148 5 is_stmt 1 view .LVU638
 2634              	.LBE705:
 2635              	.LBE704:
 161:Util/base_effect_module.cpp **** 
 2636              		.loc 1 161 110 is_stmt 0 discriminator 1 view .LVU639
 2637 0014 52F82130 		ldr	r3, [r2, r1, lsl #2]
 2638 0018 003B     		subs	r3, r3, #0
 2639 001a 18BF     		it	ne
 2640 001c 0123     		movne	r3, #1
 2641              	.L130:
 2642              	.LVL152:
 161:Util/base_effect_module.cpp **** 
 2643              		.loc 1 161 113 view .LVU640
 2644 001e 1846     		mov	r0, r3
 2645 0020 7047     		bx	lr
 2646              	.LVL153:
 2647              	.L131:
 2648              	.LBB707:
 2649              	.LBB706:
 161:Util/base_effect_module.cpp **** 
 2650              		.loc 1 161 113 view .LVU641
 2651 0022 0023     		movs	r3, #0
 2652              	.LVL154:
 161:Util/base_effect_module.cpp **** 
 2653              		.loc 1 161 113 view .LVU642
 2654              	.LBE706:
 2655              	.LBE707:
 2656 0024 1846     		mov	r0, r3
 2657              	.LVL155:
 161:Util/base_effect_module.cpp **** 
 2658              		.loc 1 161 113 view .LVU643
 2659 0026 7047     		bx	lr
 2660              		.cfi_endproc
ARM GAS  /tmp/cc3dlQC7.s 			page 74


 2661              	.LFE3563:
 2663              		.section	.text._ZNK10bkshepherd16BaseEffectModule25GetParameterAsBinnedValueEi,"ax",%progbits
 2664              		.align	1
 2665              		.p2align 2,,3
 2666              		.global	_ZNK10bkshepherd16BaseEffectModule25GetParameterAsBinnedValueEi
 2667              		.syntax unified
 2668              		.thumb
 2669              		.thumb_func
 2671              	_ZNK10bkshepherd16BaseEffectModule25GetParameterAsBinnedValueEi:
 2672              	.LVL156:
 2673              	.LFB3564:
 163:Util/base_effect_module.cpp ****     int binCount = GetParameterBinCount(parameter_id);
 2674              		.loc 1 163 73 is_stmt 1 view -0
 2675              		.cfi_startproc
 2676              		@ args = 0, pretend = 0, frame = 0
 2677              		@ frame_needed = 0, uses_anonymous_args = 0
 2678              		@ link register save eliminated.
 164:Util/base_effect_module.cpp **** 
 2679              		.loc 1 164 5 view .LVU645
 2680              	.LBB714:
 2681              	.LBI714:
 102:Util/base_effect_module.cpp ****     // Make sure parameter_id is valid.
 2682              		.loc 1 102 5 view .LVU646
 2683              	.LBB715:
 104:Util/base_effect_module.cpp ****         return -1;
 2684              		.loc 1 104 5 view .LVU647
 104:Util/base_effect_module.cpp ****         return -1;
 2685              		.loc 1 104 9 is_stmt 0 view .LVU648
 2686 0000 4269     		ldr	r2, [r0, #20]
 104:Util/base_effect_module.cpp ****         return -1;
 2687              		.loc 1 104 29 discriminator 1 view .LVU649
 2688 0002 D2B1     		cbz	r2, .L138
 2689 0004 0029     		cmp	r1, #0
 2690 0006 18DB     		blt	.L138
 104:Util/base_effect_module.cpp ****         return -1;
 2691              		.loc 1 104 49 discriminator 2 view .LVU650
 2692 0008 8368     		ldr	r3, [r0, #8]
 2693 000a 9942     		cmp	r1, r3
 2694 000c 15DA     		bge	.L138
 104:Util/base_effect_module.cpp ****         return -1;
 2695              		.loc 1 104 84 discriminator 3 view .LVU651
 2696 000e 8369     		ldr	r3, [r0, #24]
 104:Util/base_effect_module.cpp ****         return -1;
 2697              		.loc 1 104 81 discriminator 3 view .LVU652
 2698 0010 9BB1     		cbz	r3, .L138
 109:Util/base_effect_module.cpp ****         return -1;
 2699              		.loc 1 109 5 is_stmt 1 view .LVU653
 2700              	.LVL157:
 2701              	.LBB716:
 2702              	.LBI716:
  84:Util/base_effect_module.cpp ****     // Make sure parameter_id is valid.
 2703              		.loc 1 84 20 view .LVU654
 2704              	.LBB717:
  86:Util/base_effect_module.cpp ****         return ParameterValueType::Unknown;
 2705              		.loc 1 86 5 view .LVU655
  90:Util/base_effect_module.cpp **** }
 2706              		.loc 1 90 5 view .LVU656
ARM GAS  /tmp/cc3dlQC7.s 			page 75


  90:Util/base_effect_module.cpp **** }
 2707              		.loc 1 90 40 is_stmt 0 view .LVU657
 2708 0012 01EB8100 		add	r0, r1, r1, lsl #2
 2709              	.LVL158:
  90:Util/base_effect_module.cpp **** }
 2710              		.loc 1 90 40 view .LVU658
 2711 0016 03EBC003 		add	r3, r3, r0, lsl #3
 2712              	.LVL159:
  90:Util/base_effect_module.cpp **** }
 2713              		.loc 1 90 40 view .LVU659
 2714              	.LBE717:
 2715              	.LBE716:
 109:Util/base_effect_module.cpp ****         return -1;
 2716              		.loc 1 109 5 discriminator 1 view .LVU660
 2717 001a 1879     		ldrb	r0, [r3, #4]	@ zero_extendqisi2
 2718 001c 0328     		cmp	r0, #3
 2719 001e 0CD1     		bne	.L138
 113:Util/base_effect_module.cpp **** }
 2720              		.loc 1 113 5 is_stmt 1 view .LVU661
 113:Util/base_effect_module.cpp **** }
 2721              		.loc 1 113 42 is_stmt 0 view .LVU662
 2722 0020 9B68     		ldr	r3, [r3, #8]
 2723              	.LVL160:
 113:Util/base_effect_module.cpp **** }
 2724              		.loc 1 113 42 view .LVU663
 2725              	.LBE715:
 2726              	.LBE714:
 167:Util/base_effect_module.cpp ****         return 1;
 2727              		.loc 1 167 5 is_stmt 1 view .LVU664
 2728 0022 581C     		adds	r0, r3, #1
 2729 0024 09D0     		beq	.L138
 2730              	.LBB718:
 2731              	.LBB719:
 148:Util/base_effect_module.cpp **** }
 2732              		.loc 1 148 5 view .LVU665
 2733              	.LVL161:
 148:Util/base_effect_module.cpp **** }
 2734              		.loc 1 148 5 is_stmt 0 view .LVU666
 2735              	.LBE719:
 2736              	.LBE718:
 175:Util/base_effect_module.cpp ****         bin = 1;
 2737              		.loc 1 175 5 is_stmt 1 view .LVU667
 179:Util/base_effect_module.cpp ****         bin = binCount;
 2738              		.loc 1 179 5 view .LVU668
 172:Util/base_effect_module.cpp **** 
 2739              		.loc 1 172 51 is_stmt 0 discriminator 1 view .LVU669
 2740 0026 52F82100 		ldr	r0, [r2, r1, lsl #2]
 2741 002a 0130     		adds	r0, r0, #1
 175:Util/base_effect_module.cpp ****         bin = 1;
 2742              		.loc 1 175 5 view .LVU670
 2743 002c 0128     		cmp	r0, #1
 2744 002e B8BF     		it	lt
 2745 0030 0120     		movlt	r0, #1
 179:Util/base_effect_module.cpp ****         bin = binCount;
 2746              		.loc 1 179 5 view .LVU671
 2747 0032 9842     		cmp	r0, r3
 2748 0034 A8BF     		it	ge
ARM GAS  /tmp/cc3dlQC7.s 			page 76


 2749 0036 1846     		movge	r0, r3
 2750 0038 7047     		bx	lr
 2751              	.LVL162:
 2752              	.L138:
 168:Util/base_effect_module.cpp ****     }
 2753              		.loc 1 168 16 view .LVU672
 2754 003a 0120     		movs	r0, #1
 184:Util/base_effect_module.cpp **** 
 2755              		.loc 1 184 1 view .LVU673
 2756 003c 7047     		bx	lr
 2757              		.cfi_endproc
 2758              	.LFE3564:
 2760 003e 00BF     		.section	.text._ZNK10bkshepherd16BaseEffectModule29GetMappedParameterIDForMidiCCEi,"ax",%progbits
 2761              		.align	1
 2762              		.p2align 2,,3
 2763              		.global	_ZNK10bkshepherd16BaseEffectModule29GetMappedParameterIDForMidiCCEi
 2764              		.syntax unified
 2765              		.thumb
 2766              		.thumb_func
 2768              	_ZNK10bkshepherd16BaseEffectModule29GetMappedParameterIDForMidiCCEi:
 2769              	.LVL163:
 2770              	.LFB3566:
 198:Util/base_effect_module.cpp ****     if (m_paramMetaData != nullptr) {
 2771              		.loc 1 198 74 is_stmt 1 view -0
 2772              		.cfi_startproc
 2773              		@ args = 0, pretend = 0, frame = 0
 2774              		@ frame_needed = 0, uses_anonymous_args = 0
 2775              		@ link register save eliminated.
 199:Util/base_effect_module.cpp ****         for (int i = 0; i < m_paramCount; i++) {
 2776              		.loc 1 199 5 view .LVU675
 2777              	.LBB722:
 199:Util/base_effect_module.cpp ****         for (int i = 0; i < m_paramCount; i++) {
 2778              		.loc 1 199 9 is_stmt 0 view .LVU676
 2779 0000 8369     		ldr	r3, [r0, #24]
 199:Util/base_effect_module.cpp ****         for (int i = 0; i < m_paramCount; i++) {
 2780              		.loc 1 199 5 view .LVU677
 2781 0002 73B1     		cbz	r3, .L143
 2782              	.LVL164:
 2783              	.LBB723:
 200:Util/base_effect_module.cpp ****             if (m_paramMetaData[i].midiCCMapping == midiCC_id) {
 2784              		.loc 1 200 27 is_stmt 1 discriminator 1 view .LVU678
 200:Util/base_effect_module.cpp ****             if (m_paramMetaData[i].midiCCMapping == midiCC_id) {
 2785              		.loc 1 200 29 is_stmt 0 discriminator 1 view .LVU679
 2786 0004 D0F808C0 		ldr	ip, [r0, #8]
 200:Util/base_effect_module.cpp ****             if (m_paramMetaData[i].midiCCMapping == midiCC_id) {
 2787              		.loc 1 200 27 discriminator 1 view .LVU680
 2788 0008 BCF1000F 		cmp	ip, #0
 2789 000c 09DD     		ble	.L143
 200:Util/base_effect_module.cpp ****             if (m_paramMetaData[i].midiCCMapping == midiCC_id) {
 2790              		.loc 1 200 18 view .LVU681
 2791 000e 0020     		movs	r0, #0
 2792              	.LVL165:
 200:Util/base_effect_module.cpp ****             if (m_paramMetaData[i].midiCCMapping == midiCC_id) {
 2793              		.loc 1 200 18 view .LVU682
 2794 0010 02E0     		b	.L141
 2795              	.LVL166:
 2796              	.L145:
ARM GAS  /tmp/cc3dlQC7.s 			page 77


 200:Util/base_effect_module.cpp ****             if (m_paramMetaData[i].midiCCMapping == midiCC_id) {
 2797              		.loc 1 200 9 discriminator 2 view .LVU683
 2798 0012 0130     		adds	r0, r0, #1
 2799              	.LVL167:
 200:Util/base_effect_module.cpp ****             if (m_paramMetaData[i].midiCCMapping == midiCC_id) {
 2800              		.loc 1 200 27 is_stmt 1 discriminator 1 view .LVU684
 2801 0014 6045     		cmp	r0, ip
 2802 0016 04D0     		beq	.L143
 2803              	.LVL168:
 2804              	.L141:
 201:Util/base_effect_module.cpp ****                 return i;
 2805              		.loc 1 201 13 view .LVU685
 200:Util/base_effect_module.cpp ****             if (m_paramMetaData[i].midiCCMapping == midiCC_id) {
 2806              		.loc 1 200 9 discriminator 2 view .LVU686
 201:Util/base_effect_module.cpp ****                 return i;
 2807              		.loc 1 201 13 is_stmt 0 view .LVU687
 2808 0018 9A69     		ldr	r2, [r3, #24]
 200:Util/base_effect_module.cpp ****             if (m_paramMetaData[i].midiCCMapping == midiCC_id) {
 2809              		.loc 1 200 27 discriminator 1 view .LVU688
 2810 001a 2833     		adds	r3, r3, #40
 201:Util/base_effect_module.cpp ****                 return i;
 2811              		.loc 1 201 13 view .LVU689
 2812 001c 8A42     		cmp	r2, r1
 2813 001e F8D1     		bne	.L145
 2814              	.LBE723:
 2815              	.LBE722:
 208:Util/base_effect_module.cpp **** 
 2816              		.loc 1 208 1 view .LVU690
 2817 0020 7047     		bx	lr
 2818              	.LVL169:
 2819              	.L143:
 207:Util/base_effect_module.cpp **** }
 2820              		.loc 1 207 13 view .LVU691
 2821 0022 4FF0FF30 		mov	r0, #-1
 208:Util/base_effect_module.cpp **** 
 2822              		.loc 1 208 1 view .LVU692
 2823 0026 7047     		bx	lr
 2824              		.cfi_endproc
 2825              	.LFE3566:
 2827              		.section	.text._ZNK10bkshepherd16BaseEffectModule15GetParameterMinEi,"ax",%progbits
 2828              		.align	1
 2829              		.p2align 2,,3
 2830              		.global	_ZNK10bkshepherd16BaseEffectModule15GetParameterMinEi
 2831              		.syntax unified
 2832              		.thumb
 2833              		.thumb_func
 2835              	_ZNK10bkshepherd16BaseEffectModule15GetParameterMinEi:
 2836              	.LVL170:
 2837              	.LFB3569:
 222:Util/base_effect_module.cpp ****     if (m_paramMetaData != nullptr && parameter_id < m_paramCount) {
 2838              		.loc 1 222 63 is_stmt 1 view -0
 2839              		.cfi_startproc
 2840              		@ args = 0, pretend = 0, frame = 0
 2841              		@ frame_needed = 0, uses_anonymous_args = 0
 2842              		@ link register save eliminated.
 223:Util/base_effect_module.cpp ****         return m_paramMetaData[parameter_id].minValue;
 2843              		.loc 1 223 5 view .LVU694
ARM GAS  /tmp/cc3dlQC7.s 			page 78


 223:Util/base_effect_module.cpp ****         return m_paramMetaData[parameter_id].minValue;
 2844              		.loc 1 223 9 is_stmt 0 view .LVU695
 2845 0000 8369     		ldr	r3, [r0, #24]
 223:Util/base_effect_module.cpp ****         return m_paramMetaData[parameter_id].minValue;
 2846              		.loc 1 223 5 view .LVU696
 2847 0002 43B1     		cbz	r3, .L149
 223:Util/base_effect_module.cpp ****         return m_paramMetaData[parameter_id].minValue;
 2848              		.loc 1 223 36 discriminator 1 view .LVU697
 2849 0004 8268     		ldr	r2, [r0, #8]
 2850 0006 8A42     		cmp	r2, r1
 2851 0008 05DD     		ble	.L149
 224:Util/base_effect_module.cpp ****     }
 2852              		.loc 1 224 9 is_stmt 1 view .LVU698
 224:Util/base_effect_module.cpp ****     }
 2853              		.loc 1 224 46 is_stmt 0 view .LVU699
 2854 000a 01EB8101 		add	r1, r1, r1, lsl #2
 2855              	.LVL171:
 224:Util/base_effect_module.cpp ****     }
 2856              		.loc 1 224 46 view .LVU700
 2857 000e 03EBC103 		add	r3, r3, r1, lsl #3
 2858 0012 D869     		ldr	r0, [r3, #28]
 2859              	.LVL172:
 224:Util/base_effect_module.cpp ****     }
 2860              		.loc 1 224 46 view .LVU701
 2861 0014 7047     		bx	lr
 2862              	.LVL173:
 2863              	.L149:
 227:Util/base_effect_module.cpp **** }
 2864              		.loc 1 227 13 view .LVU702
 2865 0016 4FF0FF30 		mov	r0, #-1
 2866              	.LVL174:
 228:Util/base_effect_module.cpp **** 
 2867              		.loc 1 228 1 view .LVU703
 2868 001a 7047     		bx	lr
 2869              		.cfi_endproc
 2870              	.LFE3569:
 2872              		.section	.text._ZNK10bkshepherd16BaseEffectModule15GetParameterMaxEi,"ax",%progbits
 2873              		.align	1
 2874              		.p2align 2,,3
 2875              		.global	_ZNK10bkshepherd16BaseEffectModule15GetParameterMaxEi
 2876              		.syntax unified
 2877              		.thumb
 2878              		.thumb_func
 2880              	_ZNK10bkshepherd16BaseEffectModule15GetParameterMaxEi:
 2881              	.LVL175:
 2882              	.LFB3570:
 230:Util/base_effect_module.cpp ****     if (m_paramMetaData != nullptr && parameter_id < m_paramCount) {
 2883              		.loc 1 230 63 is_stmt 1 view -0
 2884              		.cfi_startproc
 2885              		@ args = 0, pretend = 0, frame = 0
 2886              		@ frame_needed = 0, uses_anonymous_args = 0
 2887              		@ link register save eliminated.
 231:Util/base_effect_module.cpp ****         return m_paramMetaData[parameter_id].maxValue;
 2888              		.loc 1 231 5 view .LVU705
 231:Util/base_effect_module.cpp ****         return m_paramMetaData[parameter_id].maxValue;
 2889              		.loc 1 231 9 is_stmt 0 view .LVU706
 2890 0000 8369     		ldr	r3, [r0, #24]
ARM GAS  /tmp/cc3dlQC7.s 			page 79


 231:Util/base_effect_module.cpp ****         return m_paramMetaData[parameter_id].maxValue;
 2891              		.loc 1 231 5 view .LVU707
 2892 0002 43B1     		cbz	r3, .L153
 231:Util/base_effect_module.cpp ****         return m_paramMetaData[parameter_id].maxValue;
 2893              		.loc 1 231 36 discriminator 1 view .LVU708
 2894 0004 8268     		ldr	r2, [r0, #8]
 2895 0006 8A42     		cmp	r2, r1
 2896 0008 05DD     		ble	.L153
 232:Util/base_effect_module.cpp ****     }
 2897              		.loc 1 232 9 is_stmt 1 view .LVU709
 232:Util/base_effect_module.cpp ****     }
 2898              		.loc 1 232 46 is_stmt 0 view .LVU710
 2899 000a 01EB8101 		add	r1, r1, r1, lsl #2
 2900              	.LVL176:
 232:Util/base_effect_module.cpp ****     }
 2901              		.loc 1 232 46 view .LVU711
 2902 000e 03EBC103 		add	r3, r3, r1, lsl #3
 2903 0012 186A     		ldr	r0, [r3, #32]
 2904              	.LVL177:
 232:Util/base_effect_module.cpp ****     }
 2905              		.loc 1 232 46 view .LVU712
 2906 0014 7047     		bx	lr
 2907              	.LVL178:
 2908              	.L153:
 235:Util/base_effect_module.cpp **** }
 2909              		.loc 1 235 13 view .LVU713
 2910 0016 4FF0FF30 		mov	r0, #-1
 2911              	.LVL179:
 236:Util/base_effect_module.cpp **** 
 2912              		.loc 1 236 1 view .LVU714
 2913 001a 7047     		bx	lr
 2914              		.cfi_endproc
 2915              	.LFE3570:
 2917              		.section	.text._ZNK10bkshepherd16BaseEffectModule24GetParameterFineStepSizeEi,"ax",%progbits
 2918              		.align	1
 2919              		.p2align 2,,3
 2920              		.global	_ZNK10bkshepherd16BaseEffectModule24GetParameterFineStepSizeEi
 2921              		.syntax unified
 2922              		.thumb
 2923              		.thumb_func
 2925              	_ZNK10bkshepherd16BaseEffectModule24GetParameterFineStepSizeEi:
 2926              	.LVL180:
 2927              	.LFB3571:
 238:Util/base_effect_module.cpp ****     if (m_paramMetaData != nullptr && parameter_id < m_paramCount) {
 2928              		.loc 1 238 74 is_stmt 1 view -0
 2929              		.cfi_startproc
 2930              		@ args = 0, pretend = 0, frame = 0
 2931              		@ frame_needed = 0, uses_anonymous_args = 0
 2932              		@ link register save eliminated.
 239:Util/base_effect_module.cpp ****         return m_paramMetaData[parameter_id].fineStepSize;
 2933              		.loc 1 239 5 view .LVU716
 239:Util/base_effect_module.cpp ****         return m_paramMetaData[parameter_id].fineStepSize;
 2934              		.loc 1 239 9 is_stmt 0 view .LVU717
 2935 0000 8369     		ldr	r3, [r0, #24]
 239:Util/base_effect_module.cpp ****         return m_paramMetaData[parameter_id].fineStepSize;
 2936              		.loc 1 239 5 view .LVU718
 2937 0002 13B1     		cbz	r3, .L157
ARM GAS  /tmp/cc3dlQC7.s 			page 80


 239:Util/base_effect_module.cpp ****         return m_paramMetaData[parameter_id].fineStepSize;
 2938              		.loc 1 239 36 discriminator 1 view .LVU719
 2939 0004 8268     		ldr	r2, [r0, #8]
 2940 0006 8A42     		cmp	r2, r1
 2941 0008 02DC     		bgt	.L158
 2942              	.L157:
 242:Util/base_effect_module.cpp **** }
 2943              		.loc 1 242 12 view .LVU720
 2944 000a 9FED050A 		vldr.32	s0, .L159
 243:Util/base_effect_module.cpp **** 
 2945              		.loc 1 243 1 view .LVU721
 2946 000e 7047     		bx	lr
 2947              	.L158:
 240:Util/base_effect_module.cpp ****     }
 2948              		.loc 1 240 9 is_stmt 1 view .LVU722
 240:Util/base_effect_module.cpp ****     }
 2949              		.loc 1 240 46 is_stmt 0 view .LVU723
 2950 0010 01EB8101 		add	r1, r1, r1, lsl #2
 2951              	.LVL181:
 240:Util/base_effect_module.cpp ****     }
 2952              		.loc 1 240 46 view .LVU724
 2953 0014 03EBC103 		add	r3, r3, r1, lsl #3
 2954 0018 93ED090A 		vldr.32	s0, [r3, #36]
 2955 001c 7047     		bx	lr
 2956              	.L160:
 2957 001e 00BF     		.align	2
 2958              	.L159:
 2959 0020 0AD7233C 		.word	1008981770
 2960              		.cfi_endproc
 2961              	.LFE3571:
 2963              		.section	.text._ZN10bkshepherd16BaseEffectModule15SetParameterRawEim,"ax",%progbits
 2964              		.align	1
 2965              		.p2align 2,,3
 2966              		.global	_ZN10bkshepherd16BaseEffectModule15SetParameterRawEim
 2967              		.syntax unified
 2968              		.thumb
 2969              		.thumb_func
 2971              	_ZN10bkshepherd16BaseEffectModule15SetParameterRawEim:
 2972              	.LVL182:
