ARM GAS  /tmp/ccRb3mjQ.s 			page 1


   1              		.cpu cortex-m7
   2              		.arch armv7e-m
   3              		.fpu fpv5-d16
   4              		.eabi_attribute 28, 1
   5              		.eabi_attribute 20, 1
   6              		.eabi_attribute 21, 1
   7              		.eabi_attribute 23, 3
   8              		.eabi_attribute 24, 1
   9              		.eabi_attribute 25, 1
  10              		.eabi_attribute 26, 1
  11              		.eabi_attribute 30, 2
  12              		.eabi_attribute 34, 1
  13              		.eabi_attribute 18, 4
  14              		.file	"pitch_shifter_module.cpp"
  15              		.text
  16              	.Ltext0:
  17              		.cfi_sections	.debug_frame
  18              		.file 1 "pitch_shifter_module.cpp"
  19              		.section	.text._ZN10bkshepherd16BaseEffectModule33AlternateFootswitchHeldFor1SecondEv,"axG",%progb
  20              		.align	1
  21              		.p2align 2,,3
  22              		.weak	_ZN10bkshepherd16BaseEffectModule33AlternateFootswitchHeldFor1SecondEv
  23              		.syntax unified
  24              		.thumb
  25              		.thumb_func
  27              	_ZN10bkshepherd16BaseEffectModule33AlternateFootswitchHeldFor1SecondEv:
  28              	.LVL0:
  29              	.LFB3534:
  30              		.file 2 "Util/base_effect_module.h"
   1:Util/base_effect_module.h **** #pragma once
   2:Util/base_effect_module.h **** #ifndef BASE_EFFECT_MODULE_H
   3:Util/base_effect_module.h **** #define BASE_EFFECT_MODULE_H
   4:Util/base_effect_module.h **** 
   5:Util/base_effect_module.h **** #include "daisy_seed.h"
   6:Util/base_effect_module.h **** #include <stdint.h>
   7:Util/base_effect_module.h **** #ifdef __cplusplus
   8:Util/base_effect_module.h **** 
   9:Util/base_effect_module.h **** /** @file base_effect_module.h */
  10:Util/base_effect_module.h **** 
  11:Util/base_effect_module.h **** using namespace daisy;
  12:Util/base_effect_module.h **** 
  13:Util/base_effect_module.h **** namespace bkshepherd {
  14:Util/base_effect_module.h **** 
  15:Util/base_effect_module.h **** /** Parameter Value Types */
  16:Util/base_effect_module.h **** enum ParameterValueType {
  17:Util/base_effect_module.h ****     Raw,    // Raw 32bit Unsigned Int Parameter Value
  18:Util/base_effect_module.h ****     Float,  // Float Value
  19:Util/base_effect_module.h ****     Bool,   // Boolean Value
  20:Util/base_effect_module.h ****     Binned, // Binned Value (1 to valueBinCount)
  21:Util/base_effect_module.h ****     Unknown,
  22:Util/base_effect_module.h **** };
  23:Util/base_effect_module.h **** 
  24:Util/base_effect_module.h **** union ParameterValue {
  25:Util/base_effect_module.h ****     uint32_t uint_value;
  26:Util/base_effect_module.h ****     float float_value;
  27:Util/base_effect_module.h **** };
  28:Util/base_effect_module.h **** 
ARM GAS  /tmp/ccRb3mjQ.s 			page 2


  29:Util/base_effect_module.h **** enum ParameterValueCurve {
  30:Util/base_effect_module.h ****     Linear,
  31:Util/base_effect_module.h ****     Log,
  32:Util/base_effect_module.h ****     InverseLog,
  33:Util/base_effect_module.h **** };
  34:Util/base_effect_module.h **** 
  35:Util/base_effect_module.h **** // Meta data for an individual Effect Parameter.  Effects may have zero or more Parameters.
  36:Util/base_effect_module.h **** // This data structure contains information about the Effect Parameter.
  37:Util/base_effect_module.h **** struct ParameterMetaData {
  38:Util/base_effect_module.h ****     const char *name;             // The Name of this Parameter that gets displayed on the Screen w
  39:Util/base_effect_module.h ****     ParameterValueType valueType; // The Type of this Parameter value.
  40:Util/base_effect_module.h ****     ParameterValueCurve valueCurve =
  41:Util/base_effect_module.h ****         ParameterValueCurve::Linear; // The curve used to move between the min and max value for th
  42:Util/base_effect_module.h ****     int valueBinCount;               // The number of distinct choices allowed for this parameter v
  43:Util/base_effect_module.h ****     const char **valueBinNames;      // The human readable display names for the bins
  44:Util/base_effect_module.h ****     ParameterValue defaultValue;     // The Raw Default Value set for this parameter the first time
  45:Util/base_effect_module.h ****     int knobMapping;   // The ID of the Physical Knob mapped to this Parameter. -1 if this Paramete
  46:Util/base_effect_module.h ****     int midiCCMapping; // The Midi CC ID mapped to this Parameter. -1 of this Parameter is not cont
  47:Util/base_effect_module.h ****     int minValue = 0;  // The minimum value of the parameter
  48:Util/base_effect_module.h ****     int maxValue = 1;  // The maximum value of the parameter
  49:Util/base_effect_module.h ****     float fineStepSize = 0.01f; // For Float Parameters, this will set the fineStepSize multiple in
  50:Util/base_effect_module.h **** };
  51:Util/base_effect_module.h **** 
  52:Util/base_effect_module.h **** class BaseEffectModule {
  53:Util/base_effect_module.h ****   public:
  54:Util/base_effect_module.h ****     BaseEffectModule();
  55:Util/base_effect_module.h ****     virtual ~BaseEffectModule();
  56:Util/base_effect_module.h **** 
  57:Util/base_effect_module.h ****     /** Initializes the module
  58:Util/base_effect_module.h ****         \param sample_rate  The sample rate of the audio engine being run.
  59:Util/base_effect_module.h ****     */
  60:Util/base_effect_module.h ****     virtual void Init(float sample_rate);
  61:Util/base_effect_module.h **** 
  62:Util/base_effect_module.h ****     /** Gets the Name of the Effect to display
  63:Util/base_effect_module.h ****         \return Value Name of the Effect
  64:Util/base_effect_module.h ****     */
  65:Util/base_effect_module.h ****     const char *GetName();
  66:Util/base_effect_module.h **** 
  67:Util/base_effect_module.h ****     /** Gets the total number of Effect Parameters
  68:Util/base_effect_module.h ****      \return the number of parameters for this effect.
  69:Util/base_effect_module.h ****     */
  70:Util/base_effect_module.h ****     uint16_t GetParameterCount() const;
  71:Util/base_effect_module.h **** 
  72:Util/base_effect_module.h ****     /** Gets the total number of stored presets for this effect
  73:Util/base_effect_module.h ****      \return the number of presets for this effect.
  74:Util/base_effect_module.h ****     */
  75:Util/base_effect_module.h ****     uint16_t GetPresetCount() const;
  76:Util/base_effect_module.h **** 
  77:Util/base_effect_module.h ****     /** Sets the total number of stored presets for this effect, called by guitar_pedal_storage
  78:Util/base_effect_module.h ****      \param the number of presets for this effect.
  79:Util/base_effect_module.h ****     */
  80:Util/base_effect_module.h ****     void SetPresetCount(uint16_t preset_count);
  81:Util/base_effect_module.h **** 
  82:Util/base_effect_module.h ****     /** Sets the start index of the Settings Array
  83:Util/base_effect_module.h ****      \param the array index where settings for the effect start
  84:Util/base_effect_module.h ****     */
  85:Util/base_effect_module.h ****     void SetSettingsArrayStartIdx(uint32_t start_idx);
ARM GAS  /tmp/ccRb3mjQ.s 			page 3


  86:Util/base_effect_module.h **** 
  87:Util/base_effect_module.h ****     /** Gets the start position in settings for this effect
  88:Util/base_effect_module.h ****      \return the the start position in settings array for this effect.
  89:Util/base_effect_module.h ****     */
  90:Util/base_effect_module.h ****     uint32_t GetSettingsArrayStartIdx() const;
  91:Util/base_effect_module.h **** 
  92:Util/base_effect_module.h ****     /** Sets the start index of the Settings Array
  93:Util/base_effect_module.h ****      \param the array index where settings for the effect start
  94:Util/base_effect_module.h ****     */
  95:Util/base_effect_module.h ****     void SetCurrentPreset(uint32_t currentPreset);
  96:Util/base_effect_module.h **** 
  97:Util/base_effect_module.h ****     /** Gets the start position in settings for this effect
  98:Util/base_effect_module.h ****      \return the the start position in settings array for this effect.
  99:Util/base_effect_module.h ****     */
 100:Util/base_effect_module.h ****     uint32_t GetCurrentPreset() const;
 101:Util/base_effect_module.h **** 
 102:Util/base_effect_module.h ****     /** Gets the Name of an Effect Parameter
 103:Util/base_effect_module.h ****      \return Value Name of the Effect Parameter
 104:Util/base_effect_module.h ****     */
 105:Util/base_effect_module.h ****     const char *GetParameterName(int parameter_id) const;
 106:Util/base_effect_module.h **** 
 107:Util/base_effect_module.h ****     /** Gets the Type of an Effect Parameter
 108:Util/base_effect_module.h ****      \return a ParameterValueType representing Type of the Effect Parameter. 0 is raw u_int32_t, 1 
 109:Util/base_effect_module.h ****      (return "ParameterValueType::Unknown" is this is unknown)
 110:Util/base_effect_module.h ****     */
 111:Util/base_effect_module.h ****     ParameterValueType GetParameterType(int parameter_id) const;
 112:Util/base_effect_module.h **** 
 113:Util/base_effect_module.h ****     /** Gets the curve of an Effect Parameter
 114:Util/base_effect_module.h ****      \return a ParameterValueType representing curve of the Effect Parameter.
 115:Util/base_effect_module.h ****     */
 116:Util/base_effect_module.h ****     ParameterValueCurve GetParameterValueCurve(int parameter_id) const;
 117:Util/base_effect_module.h **** 
 118:Util/base_effect_module.h ****     /** Gets the Bin Count of a Binned Int Effect Parameter
 119:Util/base_effect_module.h ****      \return the number of Bins for this Binned Int type Effect Parameter or -1 if this isn't a Bin
 120:Util/base_effect_module.h ****     */
 121:Util/base_effect_module.h ****     int GetParameterBinCount(int parameter_id) const;
 122:Util/base_effect_module.h **** 
 123:Util/base_effect_module.h ****     /** Gets the Bin Name of a Binned Int Effect Parameter
 124:Util/base_effect_module.h ****      \param parameter_id Id of the parameter to retrieve.
 125:Util/base_effect_module.h ****      \return the Names of the Bins for this Binned Int type Efffect Parameter or nullptr if there a
 126:Util/base_effect_module.h ****     */
 127:Util/base_effect_module.h ****     const char **GetParameterBinNames(int parameter_id) const;
 128:Util/base_effect_module.h **** 
 129:Util/base_effect_module.h ****     /** Gets the Default Value for an Effect Parameter as a Float value
 130:Util/base_effect_module.h ****      \param parameter_id Id of the parameter to retrieve.
 131:Util/base_effect_module.h ****      \return the float Value of the specified parameter.
 132:Util/base_effect_module.h ****     */
 133:Util/base_effect_module.h ****     const float GetParameterDefaultValueAsFloat(int parameter_id) const;
 134:Util/base_effect_module.h **** 
 135:Util/base_effect_module.h ****     /** Gets the Raw uint32_t value of an Effect Parameter
 136:Util/base_effect_module.h ****      \param parameter_id Id of the parameter to retrieve.
 137:Util/base_effect_module.h ****      \return the raw Value of the specified parameter.
 138:Util/base_effect_module.h ****     */
 139:Util/base_effect_module.h ****     uint32_t GetParameterRaw(int parameter_id) const;
 140:Util/base_effect_module.h **** 
 141:Util/base_effect_module.h ****     /** Gets the value of an Effect Parameter as a float
 142:Util/base_effect_module.h ****         \param parameter_id Id of the parameter to retrieve.
ARM GAS  /tmp/ccRb3mjQ.s 			page 4


 143:Util/base_effect_module.h ****         \return the float Value for given parameter.
 144:Util/base_effect_module.h ****     */
 145:Util/base_effect_module.h ****     float GetParameterAsFloat(int parameter_id) const;
 146:Util/base_effect_module.h **** 
 147:Util/base_effect_module.h ****     /** Gets the value of an Effect Parameter as a bool (True of False)
 148:Util/base_effect_module.h ****      \param parameter_id Id of the parameter to retrieve.
 149:Util/base_effect_module.h ****      \return the Value of the specified parameter mapped to True / False
 150:Util/base_effect_module.h ****     */
 151:Util/base_effect_module.h ****     bool GetParameterAsBool(int parameter_id) const;
 152:Util/base_effect_module.h **** 
 153:Util/base_effect_module.h ****     /** Gets the value of an Effect Parameter as a Binned Integer Value (1..Bin Count)
 154:Util/base_effect_module.h ****      \param parameter_id Id of the parameter to retrieve.
 155:Util/base_effect_module.h ****      \return the bin number as an int value (1..Bin Count) of the specified parameter
 156:Util/base_effect_module.h ****     */
 157:Util/base_effect_module.h ****     int GetParameterAsBinnedValue(int parameter_id) const;
 158:Util/base_effect_module.h **** 
 159:Util/base_effect_module.h ****     /** Gets the Parameter ID of the Effect Parameter mapped to Knob.
 160:Util/base_effect_module.h ****      \param knob_id Id of the Knob to retrieve.
 161:Util/base_effect_module.h ****      \return the Parameter ID mapped to the specified knob, or -1 if no Parameter is Mapped to that
 162:Util/base_effect_module.h ****     */
 163:Util/base_effect_module.h ****     virtual int GetMappedParameterIDForKnob(int knob_id) const;
 164:Util/base_effect_module.h **** 
 165:Util/base_effect_module.h ****     /** Gets the Parameter ID of the Effect Parameter mapped to this Midi CC ID.
 166:Util/base_effect_module.h ****      \param midiCC_id Id of the MidiCC to retrieve.
 167:Util/base_effect_module.h ****      \return the Parameter ID mapped to the specified MidiCC, or -1 if no Parameter is Mapped to th
 168:Util/base_effect_module.h ****     */
 169:Util/base_effect_module.h ****     int GetMappedParameterIDForMidiCC(int midiCC_id) const;
 170:Util/base_effect_module.h **** 
 171:Util/base_effect_module.h ****     /** Sets the note and velocity of a midi key pressed event.
 172:Util/base_effect_module.h ****      \notenumber Midi note number pressed
 173:Util/base_effect_module.h ****      \velocity Midi note velocity (how hard the key was pressed)
 174:Util/base_effect_module.h ****      \Expected to be overridden by the active effect
 175:Util/base_effect_module.h ****     */
 176:Util/base_effect_module.h ****     virtual void OnNoteOn(float notenumber, float velocity);
 177:Util/base_effect_module.h **** 
 178:Util/base_effect_module.h ****     /** Sets the note and velocity of a midi key released event.
 179:Util/base_effect_module.h ****      \notenumber Midi note number pressed
 180:Util/base_effect_module.h ****      \velocity Midi note velocity (how quickly the key was released)
 181:Util/base_effect_module.h ****      \Expected to be overridden by the active effect
 182:Util/base_effect_module.h ****     */
 183:Util/base_effect_module.h ****     virtual void OnNoteOff(float notenumber, float velocity);
 184:Util/base_effect_module.h **** 
 185:Util/base_effect_module.h ****     /** Sets the Raw Value for a Particular Effect Parameter.  If the Parameter ID isn't valid, the
 186:Util/base_effect_module.h ****         \param parameter_id Id of the parameter to set (0 .. m_paramCount - 1).
 187:Util/base_effect_module.h ****         \param value the uint32_t Value to set on the parameter.
 188:Util/base_effect_module.h ****     */
 189:Util/base_effect_module.h ****     void SetParameterRaw(int parameter_id, uint32_t value);
 190:Util/base_effect_module.h **** 
 191:Util/base_effect_module.h ****     /** Sets the Value for a Particular Effect Parameter using a float magnitude value ranging from
 192:Util/base_effect_module.h ****      * If the Parameter ID isn't valid or if the Parameter Type is RAW, there is no effect. This fu
 193:Util/base_effect_module.h ****      * magnitude value onto the underlying Parameter Type in the following ways:
 194:Util/base_effect_module.h ****      * RAW Parameters - NOT SUPPORTED, there will be no effect.
 195:Util/base_effect_module.h ****      * Bool Parameters - values < 0.5f are mapped to False, values >= 0.5 are mapped to True.
 196:Util/base_effect_module.h ****      * Float Parameters - values between 0.0f and 1.0f are mapped to a float value between the Min 
 197:Util/base_effect_module.h ****      * Binned Parameters - values between 0.0f and 1.0f are divided equally between the total numbe
 198:Util/base_effect_module.h ****      accordingly.
 199:Util/base_effect_module.h ****         \param parameter_id Id of the parameter to set. \param value the float magnitude value to s
ARM GAS  /tmp/ccRb3mjQ.s 			page 5


 200:Util/base_effect_module.h ****     */
 201:Util/base_effect_module.h ****     void SetParameterAsMagnitude(int parameter_id, float value);
 202:Util/base_effect_module.h **** 
 203:Util/base_effect_module.h ****     /** Sets the Value for a Particular Effect Parameter using a float.  If the Parameter ID isn't 
 204:Util/base_effect_module.h ****         \param parameter_id Id of the parameter to set.
 205:Util/base_effect_module.h ****         \param value the Float value to set the paramter to.
 206:Util/base_effect_module.h ****     */
 207:Util/base_effect_module.h ****     void SetParameterAsFloat(int parameter_id, float value);
 208:Util/base_effect_module.h **** 
 209:Util/base_effect_module.h ****     /** Sets the Value for a Particular Effect Parameter using a bool.  If the Parameter ID isn't v
 210:Util/base_effect_module.h ****         \param parameter_id Id of the parameter to set.
 211:Util/base_effect_module.h ****         \param value the bool value to set the paramter to.
 212:Util/base_effect_module.h ****     */
 213:Util/base_effect_module.h ****     void SetParameterAsBool(int parameter_id, bool value);
 214:Util/base_effect_module.h **** 
 215:Util/base_effect_module.h ****     /** Sets the Value for a Particular Effect Parameter using a Binned Value.  If the Parameter ID
 216:Util/base_effect_module.h ****         \param parameter_id Id of the parameter to set.
 217:Util/base_effect_module.h ****         \param value the int value (1..Bin Count) of the bin to set the paramter to.
 218:Util/base_effect_module.h ****     */
 219:Util/base_effect_module.h ****     void SetParameterAsBinnedValue(int parameter_id, int value);
 220:Util/base_effect_module.h **** 
 221:Util/base_effect_module.h ****     /** Processes the Effect in Mono for a single sample.  This should only be called once per samp
 222:Util/base_effect_module.h ****      call ProcessStereo too. \param in Input sample.
 223:Util/base_effect_module.h ****     */
 224:Util/base_effect_module.h ****     virtual void ProcessMono(float in);
 225:Util/base_effect_module.h **** 
 226:Util/base_effect_module.h ****     /** Processes the Effect in Stereo for a single left & right sample.  This should only be calle
 227:Util/base_effect_module.h ****      called, don't call ProcessMono too. \param inL, inR Input sample Left and Right.
 228:Util/base_effect_module.h ****     */
 229:Util/base_effect_module.h ****     virtual void ProcessStereo(float inL, float inR);
 230:Util/base_effect_module.h **** 
 231:Util/base_effect_module.h ****     /**  Gets the most recently calculated Sample Value for the Left Stereo Channel (or Mono)
 232:Util/base_effect_module.h ****      \return Last floating point sample for the left channel.
 233:Util/base_effect_module.h ****     */
 234:Util/base_effect_module.h ****     float GetAudioLeft() const;
 235:Util/base_effect_module.h **** 
 236:Util/base_effect_module.h ****     /** Gets the most recently calculated Sample Value for the Right Stereo Channel
 237:Util/base_effect_module.h ****      \return Last floating point sample for the right channel.
 238:Util/base_effect_module.h ****     */
 239:Util/base_effect_module.h ****     float GetAudioRight() const;
 240:Util/base_effect_module.h **** 
 241:Util/base_effect_module.h ****     /** Returns a value that can be used to drive the Effect LED brightness for a specific led.
 242:Util/base_effect_module.h ****      \return float value 0..1 for the intended LED brightness.
 243:Util/base_effect_module.h ****     */
 244:Util/base_effect_module.h ****     virtual float GetBrightnessForLED(int led_id) const;
 245:Util/base_effect_module.h **** 
 246:Util/base_effect_module.h ****     /** Sets the state of this Effect
 247:Util/base_effect_module.h ****      * @param isEnabled True for Enabled, False for Bypassed.
 248:Util/base_effect_module.h ****      */
 249:Util/base_effect_module.h ****     virtual void SetEnabled(bool isEnabled);
 250:Util/base_effect_module.h **** 
 251:Util/base_effect_module.h ****     /** Returns the status of the Effect
 252:Util/base_effect_module.h ****      \return Value True if the Effect is Enabled and False if the Effect is Bypassed
 253:Util/base_effect_module.h ****     */
 254:Util/base_effect_module.h ****     bool IsEnabled() const;
 255:Util/base_effect_module.h **** 
 256:Util/base_effect_module.h ****     /** Sets the Tempo of this Effect
ARM GAS  /tmp/ccRb3mjQ.s 			page 6


 257:Util/base_effect_module.h ****      * @param bpm the Tempo in Beats Per Minute (BPM) as a uint32_t
 258:Util/base_effect_module.h ****      */
 259:Util/base_effect_module.h ****     virtual void SetTempo(uint32_t bpm);
 260:Util/base_effect_module.h **** 
 261:Util/base_effect_module.h ****     /** Handles updating the custom UI for this Effect.
 262:Util/base_effect_module.h ****      * @param elapsedTime a float value of how much time (in seconds) has elapsed since the last up
 263:Util/base_effect_module.h ****      */
 264:Util/base_effect_module.h ****     virtual void UpdateUI(float elapsedTime);
 265:Util/base_effect_module.h **** 
 266:Util/base_effect_module.h ****     /** Handles drawing the custom UI for this Effect.
 267:Util/base_effect_module.h ****      * @param display           The display to draw to
 268:Util/base_effect_module.h ****      * @param currentIndex      The index in the menu
 269:Util/base_effect_module.h ****      * @param numItemsTotal     The total number of items in the menu
 270:Util/base_effect_module.h ****      * @param boundsToDrawIn    The Rectangle to draw the item into
 271:Util/base_effect_module.h ****      * @param isEditing         True if the enter button was pressed and the value is being edited 
 272:Util/base_effect_module.h ****      */
 273:Util/base_effect_module.h ****     virtual void DrawUI(OneBitGraphicsDisplay &display, int currentIndex, int numItemsTotal, Rectan
 274:Util/base_effect_module.h **** 
 275:Util/base_effect_module.h ****     /** Gets the minimum value for the parameter
 276:Util/base_effect_module.h ****         \param parameter_id Id of the parameter to set (0 .. m_paramCount - 1).
 277:Util/base_effect_module.h ****         \return int value for minimum parameter value.
 278:Util/base_effect_module.h ****     */
 279:Util/base_effect_module.h ****     int GetParameterMin(int parameter_id) const;
 280:Util/base_effect_module.h **** 
 281:Util/base_effect_module.h ****     /** Gets the maximum value for the parameter
 282:Util/base_effect_module.h ****         \param parameter_id Id of the parameter to set (0 .. m_paramCount - 1).
 283:Util/base_effect_module.h ****         \return int value for maximum parameter value.
 284:Util/base_effect_module.h ****     */
 285:Util/base_effect_module.h ****     int GetParameterMax(int parameter_id) const;
 286:Util/base_effect_module.h **** 
 287:Util/base_effect_module.h ****     /** Gets the Fine Step size for the parameter id as a float value
 288:Util/base_effect_module.h ****         \param parameter_id Id of the parameter to set (0 .. m_paramCount - 1).
 289:Util/base_effect_module.h ****         \return Fine step size for given parameter.
 290:Util/base_effect_module.h ****     */
 291:Util/base_effect_module.h ****     float GetParameterFineStepSize(int parameter_id) const;
 292:Util/base_effect_module.h **** 
 293:Util/base_effect_module.h ****     /** This function gets called when a MIDI CC message is received by the pedal when this effect 
 294:Util/base_effect_module.h ****      * implementation checks to see if any Midi Parameters on this Effect map to the midi CC number
 295:Util/base_effect_module.h ****      * 0..127 to a float 0.0f - 1.0f and then calls the SetParameterAsMagnitude helper function to 
 296:Util/base_effect_module.h ****      * map to the underlying parameter type. \param control_num, midicc number \param value, midi v
 297:Util/base_effect_module.h ****      */
 298:Util/base_effect_module.h ****     virtual void MidiCCValueNotification(uint8_t control_num, uint8_t value);
 299:Util/base_effect_module.h **** 
 300:Util/base_effect_module.h ****     /** Effect can override this and return false to disable the tap tempo functionality to utilize
 301:Util/base_effect_module.h ****      * effects, etc) \return Value True if the Effect uses the alternate footswitch for tap tempo
 302:Util/base_effect_module.h ****      */
 303:Util/base_effect_module.h ****     virtual bool AlternateFootswitchForTempo() const { return true; };
 304:Util/base_effect_module.h ****     /** Overridable callback when alternate footswitch is pressed */
 305:Util/base_effect_module.h ****     virtual void AlternateFootswitchPressed(){};
 306:Util/base_effect_module.h ****     /** Overridable callback when alternate footswitch is released */
 307:Util/base_effect_module.h ****     virtual void AlternateFootswitchReleased(){};
 308:Util/base_effect_module.h ****     /** Overridable callback when alternate footswitch is held for 1 second */
 309:Util/base_effect_module.h ****     virtual void AlternateFootswitchHeldFor1Second(){};
  31              		.loc 2 309 18 view -0
  32              		.cfi_startproc
  33              		@ args = 0, pretend = 0, frame = 0
  34              		@ frame_needed = 0, uses_anonymous_args = 0
ARM GAS  /tmp/ccRb3mjQ.s 			page 7


  35              		@ link register save eliminated.
  36              		.loc 2 309 54 is_stmt 0 view .LVU1
  37 0000 7047     		bx	lr
  38              		.cfi_endproc
  39              	.LFE3534:
  41 0002 00BF     		.section	.text._ZNK10bkshepherd18PitchShifterModule27AlternateFootswitchForTempoEv,"axG",%progbits
  42              		.align	1
  43              		.p2align 2,,3
  44              		.weak	_ZNK10bkshepherd18PitchShifterModule27AlternateFootswitchForTempoEv
  45              		.syntax unified
  46              		.thumb
  47              		.thumb_func
  49              	_ZNK10bkshepherd18PitchShifterModule27AlternateFootswitchForTempoEv:
  50              	.LVL1:
  51              	.LFB3538:
  52              		.file 3 "pitch_shifter_module.h"
   1:pitch_shifter_module.h **** #pragma once
   2:pitch_shifter_module.h **** #ifndef PITCH_SHIFTER_MODULE_H
   3:pitch_shifter_module.h **** #define PITCH_SHIFTER_MODULE_H
   4:pitch_shifter_module.h **** 
   5:pitch_shifter_module.h **** #include <stdint.h>
   6:pitch_shifter_module.h **** 
   7:pitch_shifter_module.h **** #include "base_effect_module.h"
   8:pitch_shifter_module.h **** #ifdef __cplusplus
   9:pitch_shifter_module.h **** 
  10:pitch_shifter_module.h **** /** @file pitch_shifter_module.h */
  11:pitch_shifter_module.h **** 
  12:pitch_shifter_module.h **** namespace bkshepherd {
  13:pitch_shifter_module.h **** 
  14:pitch_shifter_module.h **** class PitchShifterModule : public BaseEffectModule {
  15:pitch_shifter_module.h ****   public:
  16:pitch_shifter_module.h ****     enum Param {
  17:pitch_shifter_module.h ****         SEMITONE = 0,
  18:pitch_shifter_module.h ****         CROSSFADE,
  19:pitch_shifter_module.h ****         DIRECTION,
  20:pitch_shifter_module.h ****         MODE,
  21:pitch_shifter_module.h ****         SHIFT,
  22:pitch_shifter_module.h ****         RETURN,
  23:pitch_shifter_module.h ****         PARAM_COUNT
  24:pitch_shifter_module.h ****     };
  25:pitch_shifter_module.h **** 
  26:pitch_shifter_module.h ****     PitchShifterModule();
  27:pitch_shifter_module.h ****     ~PitchShifterModule();
  28:pitch_shifter_module.h **** 
  29:pitch_shifter_module.h ****     void Init(float sample_rate) override;
  30:pitch_shifter_module.h ****     void ProcessMono(float in) override;
  31:pitch_shifter_module.h ****     void ProcessStereo(float inL, float inR) override;
  32:pitch_shifter_module.h ****     void ParameterChanged(int parameter_id) override;
  33:pitch_shifter_module.h **** 
  34:pitch_shifter_module.h ****     bool AlternateFootswitchForTempo() const override { return false; }
  53              		.loc 3 34 10 is_stmt 1 view -0
  54              		.cfi_startproc
  55              		@ args = 0, pretend = 0, frame = 0
  56              		@ frame_needed = 0, uses_anonymous_args = 0
  57              		@ link register save eliminated.
  58              		.loc 3 34 57 view .LVU3
  59              		.loc 3 34 71 is_stmt 0 view .LVU4
ARM GAS  /tmp/ccRb3mjQ.s 			page 8


  60 0000 0020     		movs	r0, #0
  61              	.LVL2:
  62              		.loc 3 34 71 view .LVU5
  63 0002 7047     		bx	lr
  64              		.cfi_endproc
  65              	.LFE3538:
  67              		.section	.text._ZN16daisysp_modified12PitchShifterD2Ev,"axG",%progbits,_ZN16daisysp_modified12Pitc
  68              		.align	1
  69              		.p2align 2,,3
  70              		.weak	_ZN16daisysp_modified12PitchShifterD2Ev
  71              		.syntax unified
  72              		.thumb
  73              		.thumb_func
  75              	_ZN16daisysp_modified12PitchShifterD2Ev:
  76              	.LVL3:
  77              	.LFB5466:
  78              		.file 4 "Util/../Util/pitch_shifter.h"
   1:Util/../Util/pitch_shifter.h **** // This is a copy of the pitch_shifter from DaisySP with this PR applied:
   2:Util/../Util/pitch_shifter.h **** // https://github.com/electro-smith/DaisySP/pull/166
   3:Util/../Util/pitch_shifter.h **** // A customized dynamic delay line for the pitch shifter is also used
   4:Util/../Util/pitch_shifter.h **** 
   5:Util/../Util/pitch_shifter.h **** #pragma once
   6:Util/../Util/pitch_shifter.h **** #ifndef PITCHSHIFTER_H
   7:Util/../Util/pitch_shifter.h **** #define PITCHSHIFTER_H
   8:Util/../Util/pitch_shifter.h **** #include <stdint.h>
   9:Util/../Util/pitch_shifter.h **** 
  10:Util/../Util/pitch_shifter.h **** #include <cmath>
  11:Util/../Util/pitch_shifter.h **** #ifdef USE_ARM_DSP
  12:Util/../Util/pitch_shifter.h **** #include "arm_math.h"
  13:Util/../Util/pitch_shifter.h **** #endif
  14:Util/../Util/pitch_shifter.h **** #include "RuntimeDelayLine.h"
  15:Util/../Util/pitch_shifter.h **** #include "Utility/dsp.h"
  16:Util/../Util/pitch_shifter.h **** #include "phasor.h"
  17:Util/../Util/pitch_shifter.h **** 
  18:Util/../Util/pitch_shifter.h **** using namespace daisysp;
  19:Util/../Util/pitch_shifter.h **** 
  20:Util/../Util/pitch_shifter.h **** namespace daisysp_modified {
  21:Util/../Util/pitch_shifter.h **** 
  22:Util/../Util/pitch_shifter.h **** static inline uint32_t hash_xs32(uint32_t x) {
  23:Util/../Util/pitch_shifter.h ****     x ^= x << 13;
  24:Util/../Util/pitch_shifter.h ****     x ^= x >> 17;
  25:Util/../Util/pitch_shifter.h ****     x ^= x << 5;
  26:Util/../Util/pitch_shifter.h ****     return x;
  27:Util/../Util/pitch_shifter.h **** }
  28:Util/../Util/pitch_shifter.h **** 
  29:Util/../Util/pitch_shifter.h **** inline uint32_t myrand() {
  30:Util/../Util/pitch_shifter.h ****     static uint32_t seed = 1;
  31:Util/../Util/pitch_shifter.h ****     seed = hash_xs32(seed);
  32:Util/../Util/pitch_shifter.h ****     return seed;
  33:Util/../Util/pitch_shifter.h **** }
  34:Util/../Util/pitch_shifter.h **** 
  35:Util/../Util/pitch_shifter.h **** /**  time-domain pitchshifter
  36:Util/../Util/pitch_shifter.h **** 
  37:Util/../Util/pitch_shifter.h **** Author: shensley
  38:Util/../Util/pitch_shifter.h **** 
  39:Util/../Util/pitch_shifter.h **** Based on "Pitch Shifting" from ucsd.edu
  40:Util/../Util/pitch_shifter.h **** 
ARM GAS  /tmp/ccRb3mjQ.s 			page 9


  41:Util/../Util/pitch_shifter.h **** t = 1 - ((s *f) / R)
  42:Util/../Util/pitch_shifter.h **** 
  43:Util/../Util/pitch_shifter.h **** where:
  44:Util/../Util/pitch_shifter.h ****     s is the size of the delay
  45:Util/../Util/pitch_shifter.h ****     f is the frequency of the lfo
  46:Util/../Util/pitch_shifter.h ****     r is the sample_rate
  47:Util/../Util/pitch_shifter.h **** 
  48:Util/../Util/pitch_shifter.h **** solving for t = 12.0
  49:Util/../Util/pitch_shifter.h **** f = (12 - 1) * 48000 / delaySize;
  50:Util/../Util/pitch_shifter.h **** 
  51:Util/../Util/pitch_shifter.h **** \todo - move hash_xs32 and myrand to dsp.h and give appropriate names
  52:Util/../Util/pitch_shifter.h **** */
  53:Util/../Util/pitch_shifter.h **** class PitchShifter {
  54:Util/../Util/pitch_shifter.h ****   public:
  55:Util/../Util/pitch_shifter.h ****     PitchShifter() {}
  56:Util/../Util/pitch_shifter.h ****     ~PitchShifter() {}
  79              		.loc 4 56 5 is_stmt 1 view -0
  80              		.cfi_startproc
  81              		@ args = 0, pretend = 0, frame = 0
  82              		@ frame_needed = 0, uses_anonymous_args = 0
  83              		@ link register save eliminated.
  84              		.loc 4 56 22 is_stmt 0 view .LVU7
  85 0000 7047     		bx	lr
  86              		.cfi_endproc
  87              	.LFE5466:
  89              		.weak	_ZN16daisysp_modified12PitchShifterD1Ev
  90              		.thumb_set _ZN16daisysp_modified12PitchShifterD1Ev,_ZN16daisysp_modified12PitchShifterD2Ev
  91 0002 00BF     		.section	.text._ZN7daisysp9CrossFadeD2Ev,"axG",%progbits,_ZN7daisysp9CrossFadeD5Ev,comdat
  92              		.align	1
  93              		.p2align 2,,3
  94              		.weak	_ZN7daisysp9CrossFadeD2Ev
  95              		.syntax unified
  96              		.thumb
  97              		.thumb_func
  99              	_ZN7daisysp9CrossFadeD2Ev:
 100              	.LVL4:
 101              	.LFB5600:
 102              		.file 5 "../../DaisySP/Source/Dynamics/crossfade.h"
   1:../../DaisySP/Source/Dynamics/crossfade.h **** /*
   2:../../DaisySP/Source/Dynamics/crossfade.h **** Copyright (c) 2020 Electrosmith, Corp, Paul Batchelor
   3:../../DaisySP/Source/Dynamics/crossfade.h **** 
   4:../../DaisySP/Source/Dynamics/crossfade.h **** Use of this source code is governed by an MIT-style
   5:../../DaisySP/Source/Dynamics/crossfade.h **** license that can be found in the LICENSE file or at
   6:../../DaisySP/Source/Dynamics/crossfade.h **** https://opensource.org/licenses/MIT.
   7:../../DaisySP/Source/Dynamics/crossfade.h **** */
   8:../../DaisySP/Source/Dynamics/crossfade.h **** 
   9:../../DaisySP/Source/Dynamics/crossfade.h **** #pragma once
  10:../../DaisySP/Source/Dynamics/crossfade.h **** #ifndef DSY_CROSSFADE_H
  11:../../DaisySP/Source/Dynamics/crossfade.h **** #define DSY_CROSSFADE_H
  12:../../DaisySP/Source/Dynamics/crossfade.h **** #include <stdint.h>
  13:../../DaisySP/Source/Dynamics/crossfade.h **** #ifdef __cplusplus
  14:../../DaisySP/Source/Dynamics/crossfade.h **** 
  15:../../DaisySP/Source/Dynamics/crossfade.h **** namespace daisysp
  16:../../DaisySP/Source/Dynamics/crossfade.h **** {
  17:../../DaisySP/Source/Dynamics/crossfade.h **** /** Curve applied to the CrossFade
  18:../../DaisySP/Source/Dynamics/crossfade.h **** - LIN = linear
  19:../../DaisySP/Source/Dynamics/crossfade.h **** - CPOW = constant power
ARM GAS  /tmp/ccRb3mjQ.s 			page 10


  20:../../DaisySP/Source/Dynamics/crossfade.h **** - LOG = logarithmic
  21:../../DaisySP/Source/Dynamics/crossfade.h **** - EXP  exponential
  22:../../DaisySP/Source/Dynamics/crossfade.h **** - LAST = end of enum (used for array indexing)
  23:../../DaisySP/Source/Dynamics/crossfade.h **** */
  24:../../DaisySP/Source/Dynamics/crossfade.h **** enum
  25:../../DaisySP/Source/Dynamics/crossfade.h **** {
  26:../../DaisySP/Source/Dynamics/crossfade.h ****     CROSSFADE_LIN,
  27:../../DaisySP/Source/Dynamics/crossfade.h ****     CROSSFADE_CPOW,
  28:../../DaisySP/Source/Dynamics/crossfade.h ****     CROSSFADE_LOG,
  29:../../DaisySP/Source/Dynamics/crossfade.h ****     CROSSFADE_EXP,
  30:../../DaisySP/Source/Dynamics/crossfade.h ****     CROSSFADE_LAST,
  31:../../DaisySP/Source/Dynamics/crossfade.h **** };
  32:../../DaisySP/Source/Dynamics/crossfade.h **** 
  33:../../DaisySP/Source/Dynamics/crossfade.h **** /** Performs a CrossFade between two signals
  34:../../DaisySP/Source/Dynamics/crossfade.h **** 
  35:../../DaisySP/Source/Dynamics/crossfade.h ****     Original author: Paul Batchelor
  36:../../DaisySP/Source/Dynamics/crossfade.h **** 
  37:../../DaisySP/Source/Dynamics/crossfade.h ****     Ported from Soundpipe by Andrew Ikenberry
  38:../../DaisySP/Source/Dynamics/crossfade.h **** 
  39:../../DaisySP/Source/Dynamics/crossfade.h ****     added curve option for constant power, etc.
  40:../../DaisySP/Source/Dynamics/crossfade.h **** */
  41:../../DaisySP/Source/Dynamics/crossfade.h **** class CrossFade
  42:../../DaisySP/Source/Dynamics/crossfade.h **** {
  43:../../DaisySP/Source/Dynamics/crossfade.h ****   public:
  44:../../DaisySP/Source/Dynamics/crossfade.h ****     CrossFade() {}
  45:../../DaisySP/Source/Dynamics/crossfade.h ****     ~CrossFade() {}
 103              		.loc 5 45 5 is_stmt 1 view -0
 104              		.cfi_startproc
 105              		@ args = 0, pretend = 0, frame = 0
 106              		@ frame_needed = 0, uses_anonymous_args = 0
 107              		@ link register save eliminated.
 108              		.loc 5 45 19 is_stmt 0 view .LVU9
 109 0000 7047     		bx	lr
 110              		.cfi_endproc
 111              	.LFE5600:
 113              		.weak	_ZN7daisysp9CrossFadeD1Ev
 114              		.thumb_set _ZN7daisysp9CrossFadeD1Ev,_ZN7daisysp9CrossFadeD2Ev
 115 0002 00BF     		.section	.text._ZN10bkshepherd18PitchShifterModuleD2Ev,"ax",%progbits
 116              		.align	1
 117              		.p2align 2,,3
 118              		.global	_ZN10bkshepherd18PitchShifterModuleD2Ev
 119              		.syntax unified
 120              		.thumb
 121              		.thumb_func
 123              	_ZN10bkshepherd18PitchShifterModuleD2Ev:
 124              	.LVL5:
 125              	.LFB5974:
   1:pitch_shifter_module.cpp **** #include "pitch_shifter_module.h"
   2:pitch_shifter_module.cpp **** #include <array>
   3:pitch_shifter_module.cpp **** 
   4:pitch_shifter_module.cpp **** #include <algorithm>
   5:pitch_shifter_module.cpp **** 
   6:pitch_shifter_module.cpp **** #include "../Util/pitch_shifter.h"
   7:pitch_shifter_module.cpp **** #include "daisysp.h"
   8:pitch_shifter_module.cpp **** 
   9:pitch_shifter_module.cpp **** using namespace bkshepherd;
  10:pitch_shifter_module.cpp **** 
ARM GAS  /tmp/ccRb3mjQ.s 			page 11


  11:pitch_shifter_module.cpp **** static const char *s_semitoneBinNames[8] = {"1", "2", "3", "4", "5", "6", "7", "OCT"};
  12:pitch_shifter_module.cpp **** static const char *s_directionBinNames[2] = {"DOWN", "UP"};
  13:pitch_shifter_module.cpp **** static const char *s_modeBinNames[2] = {"LATCH", "MOMENT"};
  14:pitch_shifter_module.cpp **** 
  15:pitch_shifter_module.cpp **** // How many samples to delay to based on the "Delay" knob and parameter
  16:pitch_shifter_module.cpp **** // when the time knob is set to max, this is used for the ramp up/down
  17:pitch_shifter_module.cpp **** // transition when in momentary mode. Has no effect on latching mode
  18:pitch_shifter_module.cpp **** const uint32_t k_maxSamplesMaxTime = 48000 * 2;
  19:pitch_shifter_module.cpp **** 
  20:pitch_shifter_module.cpp **** // Larger delay size is higher fidelity/quality for a farther transpose, at
  21:pitch_shifter_module.cpp **** // the cost of additional latency (like...a lot of latency)
  22:pitch_shifter_module.cpp **** // 2048 works pretty well for 1 semitone and is ~42ms
  23:pitch_shifter_module.cpp **** // 6000 samples was the best I could find for a usable full octave tone,
  24:pitch_shifter_module.cpp **** // but is a whopping 125 ms, nearly unusable? kind of cool when blended
  25:pitch_shifter_module.cpp **** // with the dry signal though
  26:pitch_shifter_module.cpp **** const uint32_t k_defaultSamplesDelayPitchShifter = 2048;
  27:pitch_shifter_module.cpp **** const uint32_t k_maxSamplesDelayPitchShifter = 6000;
  28:pitch_shifter_module.cpp **** 
  29:pitch_shifter_module.cpp **** static const auto s_metaData = [] {
  30:pitch_shifter_module.cpp ****     std::array<ParameterMetaData, PitchShifterModule::PARAM_COUNT> params{};
  31:pitch_shifter_module.cpp **** 
  32:pitch_shifter_module.cpp ****     params[PitchShifterModule::SEMITONE] = {
  33:pitch_shifter_module.cpp ****         name : "Semitone",
  34:pitch_shifter_module.cpp ****         valueType : ParameterValueType::Binned,
  35:pitch_shifter_module.cpp ****         valueBinCount : 8,
  36:pitch_shifter_module.cpp ****         valueBinNames : s_semitoneBinNames,
  37:pitch_shifter_module.cpp ****         defaultValue : {.uint_value = 0},
  38:pitch_shifter_module.cpp ****         knobMapping : 0,
  39:pitch_shifter_module.cpp ****         midiCCMapping : -1
  40:pitch_shifter_module.cpp ****     };
  41:pitch_shifter_module.cpp **** 
  42:pitch_shifter_module.cpp ****     params[PitchShifterModule::CROSSFADE] = {
  43:pitch_shifter_module.cpp ****         name : "Crossfade",
  44:pitch_shifter_module.cpp ****         valueType : ParameterValueType::Float,
  45:pitch_shifter_module.cpp ****         valueBinCount : 0,
  46:pitch_shifter_module.cpp ****         defaultValue : {.float_value = 1.0f},
  47:pitch_shifter_module.cpp ****         knobMapping : 1,
  48:pitch_shifter_module.cpp ****         midiCCMapping : -1
  49:pitch_shifter_module.cpp ****     };
  50:pitch_shifter_module.cpp **** 
  51:pitch_shifter_module.cpp ****     params[PitchShifterModule::DIRECTION] = {
  52:pitch_shifter_module.cpp ****         name : "Direction",
  53:pitch_shifter_module.cpp ****         valueType : ParameterValueType::Binned,
  54:pitch_shifter_module.cpp ****         valueBinCount : 2,
  55:pitch_shifter_module.cpp ****         valueBinNames : s_directionBinNames,
  56:pitch_shifter_module.cpp ****         defaultValue : {.uint_value = 0},
  57:pitch_shifter_module.cpp ****         knobMapping : 2,
  58:pitch_shifter_module.cpp ****         midiCCMapping : -1
  59:pitch_shifter_module.cpp ****     };
  60:pitch_shifter_module.cpp **** 
  61:pitch_shifter_module.cpp ****     params[PitchShifterModule::MODE] = {
  62:pitch_shifter_module.cpp ****         name : "Mode",
  63:pitch_shifter_module.cpp ****         valueType : ParameterValueType::Binned,
  64:pitch_shifter_module.cpp ****         valueBinCount : 2,
  65:pitch_shifter_module.cpp ****         valueBinNames : s_modeBinNames,
  66:pitch_shifter_module.cpp ****         defaultValue : {.uint_value = 0},
  67:pitch_shifter_module.cpp ****         knobMapping : 3,
ARM GAS  /tmp/ccRb3mjQ.s 			page 12


  68:pitch_shifter_module.cpp ****         midiCCMapping : -1
  69:pitch_shifter_module.cpp ****     };
  70:pitch_shifter_module.cpp **** 
  71:pitch_shifter_module.cpp ****     params[PitchShifterModule::SHIFT] = {
  72:pitch_shifter_module.cpp ****         name : "Shift",
  73:pitch_shifter_module.cpp ****         valueType : ParameterValueType::Float,
  74:pitch_shifter_module.cpp ****         valueBinCount : 0,
  75:pitch_shifter_module.cpp ****         defaultValue : {.float_value = 0.0f},
  76:pitch_shifter_module.cpp ****         knobMapping : 4,
  77:pitch_shifter_module.cpp ****         midiCCMapping : -1
  78:pitch_shifter_module.cpp ****     };
  79:pitch_shifter_module.cpp **** 
  80:pitch_shifter_module.cpp ****     params[PitchShifterModule::RETURN] = {
  81:pitch_shifter_module.cpp ****         name : "Return",
  82:pitch_shifter_module.cpp ****         valueType : ParameterValueType::Float,
  83:pitch_shifter_module.cpp ****         valueBinCount : 0,
  84:pitch_shifter_module.cpp ****         defaultValue : {.float_value = 0.0f},
  85:pitch_shifter_module.cpp ****         knobMapping : 5,
  86:pitch_shifter_module.cpp ****         midiCCMapping : -1
  87:pitch_shifter_module.cpp ****     };
  88:pitch_shifter_module.cpp **** 
  89:pitch_shifter_module.cpp ****     return params;
  90:pitch_shifter_module.cpp **** }();
  91:pitch_shifter_module.cpp **** 
  92:pitch_shifter_module.cpp **** DSY_SDRAM_BSS float pitch_delay_buffer_a[k_maxSamplesDelayPitchShifter];
  93:pitch_shifter_module.cpp **** DSY_SDRAM_BSS float pitch_delay_buffer_b[k_maxSamplesDelayPitchShifter];
  94:pitch_shifter_module.cpp **** 
  95:pitch_shifter_module.cpp **** static daisysp_modified::PitchShifter pitchShifter;
  96:pitch_shifter_module.cpp **** static daisysp::CrossFade pitchCrossfade;
  97:pitch_shifter_module.cpp **** 
  98:pitch_shifter_module.cpp **** // Default Constructor
  99:pitch_shifter_module.cpp **** PitchShifterModule::PitchShifterModule() : BaseEffectModule() {
 100:pitch_shifter_module.cpp ****     m_name = "Pitch";
 101:pitch_shifter_module.cpp **** 
 102:pitch_shifter_module.cpp ****     // Setup the meta data reference for this Effect
 103:pitch_shifter_module.cpp ****     m_paramMetaData = s_metaData.data();
 104:pitch_shifter_module.cpp **** 
 105:pitch_shifter_module.cpp ****     // Initialize Parameters for this Effect
 106:pitch_shifter_module.cpp ****     this->InitParams(static_cast<int>(s_metaData.size()));
 107:pitch_shifter_module.cpp **** }
 108:pitch_shifter_module.cpp **** 
 109:pitch_shifter_module.cpp **** // Destructor
 110:pitch_shifter_module.cpp **** PitchShifterModule::~PitchShifterModule() {}
 126              		.loc 1 110 1 is_stmt 1 view -0
 127              		.cfi_startproc
 128              		@ args = 0, pretend = 0, frame = 0
 129              		@ frame_needed = 0, uses_anonymous_args = 0
 130              	.LBB163:
 131              		.loc 1 110 41 is_stmt 0 view .LVU11
 132 0000 034B     		ldr	r3, .L8
 133              	.LBE163:
 134              		.loc 1 110 1 view .LVU12
 135 0002 10B5     		push	{r4, lr}
 136              		.cfi_def_cfa_offset 8
 137              		.cfi_offset 4, -8
 138              		.cfi_offset 14, -4
 139              		.loc 1 110 1 view .LVU13
ARM GAS  /tmp/ccRb3mjQ.s 			page 13


 140 0004 0446     		mov	r4, r0
 141              	.LBB164:
 142              		.loc 1 110 41 view .LVU14
 143 0006 0360     		str	r3, [r0]
 144              		.loc 1 110 44 view .LVU15
 145 0008 FFF7FEFF 		bl	_ZN10bkshepherd16BaseEffectModuleD2Ev
 146              	.LVL6:
 147              		.loc 1 110 44 view .LVU16
 148              	.LBE164:
 149 000c 2046     		mov	r0, r4
 150 000e 10BD     		pop	{r4, pc}
 151              	.LVL7:
 152              	.L9:
 153              		.loc 1 110 44 view .LVU17
 154              		.align	2
 155              	.L8:
 156 0010 08000000 		.word	_ZTVN10bkshepherd18PitchShifterModuleE+8
 157              		.cfi_endproc
 158              	.LFE5974:
 160              		.global	_ZN10bkshepherd18PitchShifterModuleD1Ev
 161              		.thumb_set _ZN10bkshepherd18PitchShifterModuleD1Ev,_ZN10bkshepherd18PitchShifterModuleD2Ev
 162              		.section	.text._ZN10bkshepherd18PitchShifterModuleD0Ev,"ax",%progbits
 163              		.align	1
 164              		.p2align 2,,3
 165              		.global	_ZN10bkshepherd18PitchShifterModuleD0Ev
 166              		.syntax unified
 167              		.thumb
 168              		.thumb_func
 170              	_ZN10bkshepherd18PitchShifterModuleD0Ev:
 171              	.LVL8:
 172              	.LFB5976:
 173              		.loc 1 110 1 is_stmt 1 view -0
 174              		.cfi_startproc
 175              		@ args = 0, pretend = 0, frame = 0
 176              		@ frame_needed = 0, uses_anonymous_args = 0
 177              	.LBB165:
 178              	.LBB166:
 179              		.loc 1 110 41 is_stmt 0 view .LVU19
 180 0000 054B     		ldr	r3, .L12
 181              	.LBE166:
 182              	.LBE165:
 183              		.loc 1 110 1 view .LVU20
 184 0002 10B5     		push	{r4, lr}
 185              		.cfi_def_cfa_offset 8
 186              		.cfi_offset 4, -8
 187              		.cfi_offset 14, -4
 188              		.loc 1 110 1 view .LVU21
 189 0004 0446     		mov	r4, r0
 190              	.LVL9:
 191              	.LBB168:
 192              	.LBI165:
 193              		.loc 1 110 1 is_stmt 1 view .LVU22
 194              	.LBB167:
 195              		.loc 1 110 41 is_stmt 0 view .LVU23
 196 0006 0360     		str	r3, [r0]
 197              		.loc 1 110 44 view .LVU24
 198 0008 FFF7FEFF 		bl	_ZN10bkshepherd16BaseEffectModuleD2Ev
ARM GAS  /tmp/ccRb3mjQ.s 			page 14


 199              	.LVL10:
 200              		.loc 1 110 44 view .LVU25
 201              	.LBE167:
 202              	.LBE168:
 203              		.loc 1 110 44 discriminator 1 view .LVU26
 204 000c 5021     		movs	r1, #80
 205 000e 2046     		mov	r0, r4
 206 0010 FFF7FEFF 		bl	_ZdlPvj
 207              	.LVL11:
 208              		.loc 1 110 44 view .LVU27
 209 0014 2046     		mov	r0, r4
 210 0016 10BD     		pop	{r4, pc}
 211              	.LVL12:
 212              	.L13:
 213              		.loc 1 110 44 view .LVU28
 214              		.align	2
 215              	.L12:
 216 0018 08000000 		.word	_ZTVN10bkshepherd18PitchShifterModuleE+8
 217              		.cfi_endproc
 218              	.LFE5976:
 220              		.section	.text._ZN10bkshepherd18PitchShifterModule27AlternateFootswitchReleasedEv,"ax",%progbits
 221              		.align	1
 222              		.p2align 2,,3
 223              		.global	_ZN10bkshepherd18PitchShifterModule27AlternateFootswitchReleasedEv
 224              		.syntax unified
 225              		.thumb
 226              		.thumb_func
 228              	_ZN10bkshepherd18PitchShifterModule27AlternateFootswitchReleasedEv:
 229              	.LVL13:
 230              	.LFB5985:
 111:pitch_shifter_module.cpp **** 
 112:pitch_shifter_module.cpp **** void PitchShifterModule::ProcessSemitoneTargetChange() {
 113:pitch_shifter_module.cpp ****     int semitoneNum = GetParameterAsBinnedValue(SEMITONE);
 114:pitch_shifter_module.cpp **** 
 115:pitch_shifter_module.cpp ****     // If this is the last semitone option, convert it to be a full octave
 116:pitch_shifter_module.cpp ****     if (semitoneNum == 8) {
 117:pitch_shifter_module.cpp ****         semitoneNum = 12;
 118:pitch_shifter_module.cpp ****     }
 119:pitch_shifter_module.cpp **** 
 120:pitch_shifter_module.cpp ****     m_semitoneTarget = semitoneNum;
 121:pitch_shifter_module.cpp ****     if (m_directionDown) {
 122:pitch_shifter_module.cpp ****         m_semitoneTarget *= -1.0f;
 123:pitch_shifter_module.cpp ****     }
 124:pitch_shifter_module.cpp **** }
 125:pitch_shifter_module.cpp **** 
 126:pitch_shifter_module.cpp **** void PitchShifterModule::SetTranspose(float semitone) {
 127:pitch_shifter_module.cpp ****     // If this is latching, then we also adjust the delay to get the best sound
 128:pitch_shifter_module.cpp ****     // from the adjustments at the cost of increased latency
 129:pitch_shifter_module.cpp ****     if (m_latching) {
 130:pitch_shifter_module.cpp ****         // Value between 0 and 1 where 0 is 1 semitone and 1 is 12 semitones
 131:pitch_shifter_module.cpp ****         const float interpolateValue = (std::abs(semitone) - 1.0f) / 11.0f;
 132:pitch_shifter_module.cpp **** 
 133:pitch_shifter_module.cpp ****         // Linearly just choose a value between the min and max based on how many
 134:pitch_shifter_module.cpp ****         // semitones we are dropping
 135:pitch_shifter_module.cpp ****         const uint32_t delaySize = std::lerp(k_defaultSamplesDelayPitchShifter, k_maxSamplesDelayPi
 136:pitch_shifter_module.cpp **** 
 137:pitch_shifter_module.cpp ****         // Set delay size clamping to the min/max that are possible
ARM GAS  /tmp/ccRb3mjQ.s 			page 15


 138:pitch_shifter_module.cpp ****         pitchShifter.SetDelSize(std::clamp(delaySize, k_defaultSamplesDelayPitchShifter, k_maxSampl
 139:pitch_shifter_module.cpp ****     }
 140:pitch_shifter_module.cpp ****     pitchShifter.SetTransposition(semitone);
 141:pitch_shifter_module.cpp **** }
 142:pitch_shifter_module.cpp **** 
 143:pitch_shifter_module.cpp **** void PitchShifterModule::Init(float sample_rate) {
 144:pitch_shifter_module.cpp ****     BaseEffectModule::Init(sample_rate);
 145:pitch_shifter_module.cpp **** 
 146:pitch_shifter_module.cpp ****     // clear and initialize SDRAM for pitch shift buffers
 147:pitch_shifter_module.cpp ****     memset(pitch_delay_buffer_a, 0, sizeof(pitch_delay_buffer_a));
 148:pitch_shifter_module.cpp ****     memset(pitch_delay_buffer_b, 0, sizeof(pitch_delay_buffer_b));
 149:pitch_shifter_module.cpp **** 
 150:pitch_shifter_module.cpp ****     pitchShifter.Init(sample_rate, pitch_delay_buffer_a, pitch_delay_buffer_b, k_maxSamplesDelayPit
 151:pitch_shifter_module.cpp **** 
 152:pitch_shifter_module.cpp ****     pitchCrossfade.Init(CROSSFADE_CPOW);
 153:pitch_shifter_module.cpp ****     pitchCrossfade.SetPos(GetParameterAsFloat(CROSSFADE));
 154:pitch_shifter_module.cpp **** 
 155:pitch_shifter_module.cpp ****     m_latching = GetParameterAsBinnedValue(MODE) == 1;
 156:pitch_shifter_module.cpp **** 
 157:pitch_shifter_module.cpp ****     m_directionDown = GetParameterAsBinnedValue(DIRECTION) == 1;
 158:pitch_shifter_module.cpp **** 
 159:pitch_shifter_module.cpp ****     ProcessSemitoneTargetChange();
 160:pitch_shifter_module.cpp **** 
 161:pitch_shifter_module.cpp ****     SetTranspose(m_semitoneTarget);
 162:pitch_shifter_module.cpp **** 
 163:pitch_shifter_module.cpp ****     m_samplesToDelayShift = static_cast<uint32_t>(static_cast<float>(k_maxSamplesMaxTime) * GetPara
 164:pitch_shifter_module.cpp ****     m_samplesToDelayReturn = static_cast<uint32_t>(static_cast<float>(k_maxSamplesMaxTime) * GetPar
 165:pitch_shifter_module.cpp **** }
 166:pitch_shifter_module.cpp **** 
 167:pitch_shifter_module.cpp **** void PitchShifterModule::ParameterChanged(int parameter_id) {
 168:pitch_shifter_module.cpp ****     if (parameter_id == SEMITONE || parameter_id == DIRECTION) {
 169:pitch_shifter_module.cpp ****         m_directionDown = GetParameterAsBinnedValue(DIRECTION) == 1;
 170:pitch_shifter_module.cpp **** 
 171:pitch_shifter_module.cpp ****         // Change semitone when semitone knob is turned or direction is changed
 172:pitch_shifter_module.cpp ****         ProcessSemitoneTargetChange();
 173:pitch_shifter_module.cpp ****     } else if (parameter_id == CROSSFADE) {
 174:pitch_shifter_module.cpp ****         pitchCrossfade.SetPos(GetParameterAsFloat(CROSSFADE));
 175:pitch_shifter_module.cpp ****     } else if (parameter_id == MODE) {
 176:pitch_shifter_module.cpp ****         m_latching = GetParameterAsBinnedValue(MODE) == 1;
 177:pitch_shifter_module.cpp ****         if (!m_latching) {
 178:pitch_shifter_module.cpp ****             pitchShifter.SetDelSize(k_defaultSamplesDelayPitchShifter);
 179:pitch_shifter_module.cpp ****         }
 180:pitch_shifter_module.cpp ****     } else if (parameter_id == SHIFT) {
 181:pitch_shifter_module.cpp ****         m_samplesToDelayShift = static_cast<uint32_t>(static_cast<float>(k_maxSamplesMaxTime) * Get
 182:pitch_shifter_module.cpp ****     } else if (parameter_id == RETURN) {
 183:pitch_shifter_module.cpp ****         m_samplesToDelayReturn = static_cast<uint32_t>(static_cast<float>(k_maxSamplesMaxTime) * Ge
 184:pitch_shifter_module.cpp ****     }
 185:pitch_shifter_module.cpp **** 
 186:pitch_shifter_module.cpp ****     // Parameters changed, reset the transposition target just in case (mostly
 187:pitch_shifter_module.cpp ****     // impacts momentary/latch and delay)
 188:pitch_shifter_module.cpp ****     SetTranspose(m_semitoneTarget);
 189:pitch_shifter_module.cpp **** }
 190:pitch_shifter_module.cpp **** 
 191:pitch_shifter_module.cpp **** void PitchShifterModule::AlternateFootswitchPressed() {
 192:pitch_shifter_module.cpp ****     m_alternateFootswitchPressed = true;
 193:pitch_shifter_module.cpp **** 
 194:pitch_shifter_module.cpp ****     if (!m_latching) {
ARM GAS  /tmp/ccRb3mjQ.s 			page 16


 195:pitch_shifter_module.cpp ****         // Initiate the ramp up transition for momentary mode
 196:pitch_shifter_module.cpp ****         m_transitioningShift = true;
 197:pitch_shifter_module.cpp **** 
 198:pitch_shifter_module.cpp ****         // We were in the middle of a return so reset for shifting
 199:pitch_shifter_module.cpp ****         if (m_transitioningReturn) {
 200:pitch_shifter_module.cpp ****             // Calculate sample counter to maintain the exact transpose/percentage we
 201:pitch_shifter_module.cpp ****             // are currently at to avoid it "starting from the beginning of the
 202:pitch_shifter_module.cpp ****             // transition"
 203:pitch_shifter_module.cpp ****             m_sampleCounter = (1.0f - m_percentageTransitionComplete) * m_samplesToDelayShift;
 204:pitch_shifter_module.cpp ****             m_transitioningReturn = false;
 205:pitch_shifter_module.cpp ****         }
 206:pitch_shifter_module.cpp ****     }
 207:pitch_shifter_module.cpp **** }
 208:pitch_shifter_module.cpp **** 
 209:pitch_shifter_module.cpp **** void PitchShifterModule::AlternateFootswitchReleased() {
 231              		.loc 1 209 56 is_stmt 1 view -0
 232              		.cfi_startproc
 233              		@ args = 0, pretend = 0, frame = 0
 234              		@ frame_needed = 0, uses_anonymous_args = 0
 235              		@ link register save eliminated.
 210:pitch_shifter_module.cpp ****     m_alternateFootswitchPressed = false;
 236              		.loc 1 210 5 view .LVU30
 237              		.loc 1 210 34 is_stmt 0 view .LVU31
 238 0000 0022     		movs	r2, #0
 211:pitch_shifter_module.cpp **** 
 212:pitch_shifter_module.cpp ****     if (!m_latching) {
 239              		.loc 1 212 5 view .LVU32
 240 0002 90F83430 		ldrb	r3, [r0, #52]	@ zero_extendqisi2
 210:pitch_shifter_module.cpp ****     m_alternateFootswitchPressed = false;
 241              		.loc 1 210 34 view .LVU33
 242 0006 80F83620 		strb	r2, [r0, #54]
 243              		.loc 1 212 5 is_stmt 1 view .LVU34
 244 000a BBB9     		cbnz	r3, .L14
 213:pitch_shifter_module.cpp ****         // Initiate the ramp down transition for momentary mode
 214:pitch_shifter_module.cpp ****         m_transitioningReturn = true;
 245              		.loc 1 214 9 view .LVU35
 246              		.loc 1 214 31 is_stmt 0 view .LVU36
 247 000c 0121     		movs	r1, #1
 215:pitch_shifter_module.cpp **** 
 216:pitch_shifter_module.cpp ****         // We were in the middle of a shift so reset for return
 217:pitch_shifter_module.cpp ****         if (m_transitioningShift) {
 248              		.loc 1 217 9 view .LVU37
 249 000e 90F84820 		ldrb	r2, [r0, #72]	@ zero_extendqisi2
 214:pitch_shifter_module.cpp **** 
 250              		.loc 1 214 31 view .LVU38
 251 0012 80F84910 		strb	r1, [r0, #73]
 252              		.loc 1 217 9 is_stmt 1 view .LVU39
 253 0016 8AB1     		cbz	r2, .L14
 254              	.LVL14:
 255              	.LBB171:
 256              	.LBI171:
 209:pitch_shifter_module.cpp ****     m_alternateFootswitchPressed = false;
 257              		.loc 1 209 6 view .LVU40
 258              	.LBB172:
 218:pitch_shifter_module.cpp ****             // Calculate sample counter to maintain the exact transpose/percentage we
 219:pitch_shifter_module.cpp ****             // are currently at to avoid it "starting from the beginning of the
 220:pitch_shifter_module.cpp ****             // transition"
ARM GAS  /tmp/ccRb3mjQ.s 			page 17


 221:pitch_shifter_module.cpp ****             m_sampleCounter = (1.0f - m_percentageTransitionComplete) * m_samplesToDelayReturn;
 259              		.loc 1 221 13 view .LVU41
 260              		.loc 1 221 37 is_stmt 0 view .LVU42
 261 0018 F7EE007A 		vmov.f32	s15, #1.0e+0
 262 001c 90ED137A 		vldr.32	s14, [r0, #76]
 222:pitch_shifter_module.cpp ****             m_transitioningShift = false;
 263              		.loc 1 222 34 view .LVU43
 264 0020 80F84830 		strb	r3, [r0, #72]
 221:pitch_shifter_module.cpp ****             m_transitioningShift = false;
 265              		.loc 1 221 37 view .LVU44
 266 0024 77EEC77A 		vsub.f32	s15, s15, s14
 221:pitch_shifter_module.cpp ****             m_transitioningShift = false;
 267              		.loc 1 221 71 view .LVU45
 268 0028 90ED117A 		vldr.32	s14, [r0, #68]	@ int
 269 002c B8EE477A 		vcvt.f32.u32	s14, s14
 270 0030 67EE877A 		vmul.f32	s15, s15, s14
 221:pitch_shifter_module.cpp ****             m_transitioningShift = false;
 271              		.loc 1 221 29 view .LVU46
 272 0034 FCEEE77A 		vcvt.u32.f32	s15, s15
 273 0038 C0ED0F7A 		vstr.32	s15, [r0, #60]	@ int
 274              		.loc 1 222 13 is_stmt 1 view .LVU47
 275              	.LVL15:
 276              	.L14:
 277              		.loc 1 222 13 is_stmt 0 view .LVU48
 278              	.LBE172:
 279              	.LBE171:
 223:pitch_shifter_module.cpp ****         }
 224:pitch_shifter_module.cpp ****     }
 225:pitch_shifter_module.cpp **** }
 280              		.loc 1 225 1 view .LVU49
 281 003c 7047     		bx	lr
 282              		.cfi_endproc
 283              	.LFE5985:
 285 003e 00BF     		.section	.text._ZN10bkshepherd18PitchShifterModule26AlternateFootswitchPressedEv,"ax",%progbits
 286              		.align	1
 287              		.p2align 2,,3
 288              		.global	_ZN10bkshepherd18PitchShifterModule26AlternateFootswitchPressedEv
 289              		.syntax unified
 290              		.thumb
 291              		.thumb_func
 293              	_ZN10bkshepherd18PitchShifterModule26AlternateFootswitchPressedEv:
 294              	.LVL16:
 295              	.LFB5984:
 191:pitch_shifter_module.cpp ****     m_alternateFootswitchPressed = true;
 296              		.loc 1 191 55 is_stmt 1 view -0
 297              		.cfi_startproc
 298              		@ args = 0, pretend = 0, frame = 0
 299              		@ frame_needed = 0, uses_anonymous_args = 0
 300              		@ link register save eliminated.
 192:pitch_shifter_module.cpp **** 
 301              		.loc 1 192 5 view .LVU51
 192:pitch_shifter_module.cpp **** 
 302              		.loc 1 192 34 is_stmt 0 view .LVU52
 303 0000 0123     		movs	r3, #1
 194:pitch_shifter_module.cpp ****         // Initiate the ramp up transition for momentary mode
 304              		.loc 1 194 5 view .LVU53
 305 0002 90F83420 		ldrb	r2, [r0, #52]	@ zero_extendqisi2
ARM GAS  /tmp/ccRb3mjQ.s 			page 18


 192:pitch_shifter_module.cpp **** 
 306              		.loc 1 192 34 view .LVU54
 307 0006 80F83630 		strb	r3, [r0, #54]
 194:pitch_shifter_module.cpp ****         // Initiate the ramp up transition for momentary mode
 308              		.loc 1 194 5 is_stmt 1 view .LVU55
 309 000a B2B9     		cbnz	r2, .L21
 196:pitch_shifter_module.cpp **** 
 310              		.loc 1 196 9 view .LVU56
 199:pitch_shifter_module.cpp ****             // Calculate sample counter to maintain the exact transpose/percentage we
 311              		.loc 1 199 9 is_stmt 0 view .LVU57
 312 000c 90F84910 		ldrb	r1, [r0, #73]	@ zero_extendqisi2
 196:pitch_shifter_module.cpp **** 
 313              		.loc 1 196 30 view .LVU58
 314 0010 80F84830 		strb	r3, [r0, #72]
 199:pitch_shifter_module.cpp ****             // Calculate sample counter to maintain the exact transpose/percentage we
 315              		.loc 1 199 9 is_stmt 1 view .LVU59
 316 0014 89B1     		cbz	r1, .L21
 317              	.LVL17:
 318              	.LBB175:
 319              	.LBI175:
 191:pitch_shifter_module.cpp ****     m_alternateFootswitchPressed = true;
 320              		.loc 1 191 6 view .LVU60
 321              	.LBB176:
 203:pitch_shifter_module.cpp ****             m_transitioningReturn = false;
 322              		.loc 1 203 13 view .LVU61
 203:pitch_shifter_module.cpp ****             m_transitioningReturn = false;
 323              		.loc 1 203 37 is_stmt 0 view .LVU62
 324 0016 F7EE007A 		vmov.f32	s15, #1.0e+0
 325 001a 90ED137A 		vldr.32	s14, [r0, #76]
 204:pitch_shifter_module.cpp ****         }
 326              		.loc 1 204 35 view .LVU63
 327 001e 80F84920 		strb	r2, [r0, #73]
 203:pitch_shifter_module.cpp ****             m_transitioningReturn = false;
 328              		.loc 1 203 37 view .LVU64
 329 0022 77EEC77A 		vsub.f32	s15, s15, s14
 203:pitch_shifter_module.cpp ****             m_transitioningReturn = false;
 330              		.loc 1 203 71 view .LVU65
 331 0026 90ED107A 		vldr.32	s14, [r0, #64]	@ int
 332 002a B8EE477A 		vcvt.f32.u32	s14, s14
 333 002e 67EE877A 		vmul.f32	s15, s15, s14
 203:pitch_shifter_module.cpp ****             m_transitioningReturn = false;
 334              		.loc 1 203 29 view .LVU66
 335 0032 FCEEE77A 		vcvt.u32.f32	s15, s15
 336 0036 C0ED0F7A 		vstr.32	s15, [r0, #60]	@ int
 204:pitch_shifter_module.cpp ****         }
 337              		.loc 1 204 13 is_stmt 1 view .LVU67
 338              	.LVL18:
 339              	.L21:
 204:pitch_shifter_module.cpp ****         }
 340              		.loc 1 204 13 is_stmt 0 view .LVU68
 341              	.LBE176:
 342              	.LBE175:
 207:pitch_shifter_module.cpp **** 
 343              		.loc 1 207 1 view .LVU69
 344 003a 7047     		bx	lr
 345              		.cfi_endproc
 346              	.LFE5984:
ARM GAS  /tmp/ccRb3mjQ.s 			page 19


 348              		.section	.text._ZN16daisysp_modified12PitchShifter7ProcessEf,"axG",%progbits,_ZN16daisysp_modified
 349              		.align	1
 350              		.p2align 2,,3
 351              		.weak	_ZN16daisysp_modified12PitchShifter7ProcessEf
 352              		.syntax unified
 353              		.thumb
 354              		.thumb_func
 356              	_ZN16daisysp_modified12PitchShifter7ProcessEf:
 357              	.LVL19:
 358              	.LFB5469:
  57:Util/../Util/pitch_shifter.h **** 
  58:Util/../Util/pitch_shifter.h ****     /** Initialize pitch shifter
  59:Util/../Util/pitch_shifter.h ****      *  \param sr the expected samplerate in Hz of the audio engines
  60:Util/../Util/pitch_shifter.h ****      *  \param bufferA the buffer to use for the first delay line
  61:Util/../Util/pitch_shifter.h ****      *  \param bufferB the buffer to use for the second delay line
  62:Util/../Util/pitch_shifter.h ****      *  \param buffer_size the size of the delay line buffers
  63:Util/../Util/pitch_shifter.h ****      *  \param quantize_semitones locks transpositions to integer values (defaults
  64:Util/../Util/pitch_shifter.h ****      * to false)
  65:Util/../Util/pitch_shifter.h ****      */
  66:Util/../Util/pitch_shifter.h ****     void Init(float sr, float *bufferA, float *bufferB, uint32_t buffer_size, bool quantize_semiton
  67:Util/../Util/pitch_shifter.h ****         force_recalc_ = false;
  68:Util/../Util/pitch_shifter.h ****         sr_ = sr;
  69:Util/../Util/pitch_shifter.h ****         mod_freq_ = 5.0f;
  70:Util/../Util/pitch_shifter.h **** 
  71:Util/../Util/pitch_shifter.h ****         d_[0].Init(bufferA, buffer_size);
  72:Util/../Util/pitch_shifter.h ****         d_[1].Init(bufferB, buffer_size);
  73:Util/../Util/pitch_shifter.h **** 
  74:Util/../Util/pitch_shifter.h ****         for (uint8_t i = 0; i < 2; i++) {
  75:Util/../Util/pitch_shifter.h ****             gain_[i] = 0.0f;
  76:Util/../Util/pitch_shifter.h ****             phs_[i].Init(sr, 50, i == 0 ? 0 : PI_F);
  77:Util/../Util/pitch_shifter.h ****         }
  78:Util/../Util/pitch_shifter.h **** 
  79:Util/../Util/pitch_shifter.h ****         buffer_size_ = buffer_size;
  80:Util/../Util/pitch_shifter.h ****         del_size_ = buffer_size;
  81:Util/../Util/pitch_shifter.h ****         SetDelSize(del_size_);
  82:Util/../Util/pitch_shifter.h ****         fun_ = 0.0f;
  83:Util/../Util/pitch_shifter.h ****         quantize_semitones_ = quantize_semitones;
  84:Util/../Util/pitch_shifter.h ****     }
  85:Util/../Util/pitch_shifter.h **** 
  86:Util/../Util/pitch_shifter.h ****     /** process pitch shifter
  87:Util/../Util/pitch_shifter.h ****      */
  88:Util/../Util/pitch_shifter.h ****     float Process(float in) {
 359              		.loc 4 88 11 is_stmt 1 view -0
 360              		.cfi_startproc
 361              		@ args = 0, pretend = 0, frame = 0
 362              		@ frame_needed = 0, uses_anonymous_args = 0
  89:Util/../Util/pitch_shifter.h ****         float val, fade1, fade2;
 363              		.loc 4 89 9 view .LVU71
  90:Util/../Util/pitch_shifter.h ****         // First Process delay mod/crossfade
  91:Util/../Util/pitch_shifter.h ****         fade1 = phs_[0].Process();
 364              		.loc 4 91 9 view .LVU72
 365              	.LBB217:
 366              	.LBB218:
 367              		.file 6 "Util/../Util/phasor.h"
   1:Util/../Util/phasor.h **** // This is a copy of the phasor from DaisySP with this PR applied:
   2:Util/../Util/phasor.h **** // https://github.com/electro-smith/DaisySP/pull/166
   3:Util/../Util/phasor.h **** // This file can be deleted if that PR is merged and the submodule is updated
ARM GAS  /tmp/ccRb3mjQ.s 			page 20


   4:Util/../Util/phasor.h **** 
   5:Util/../Util/phasor.h **** #pragma once
   6:Util/../Util/phasor.h **** #ifndef PHASOR_H
   7:Util/../Util/phasor.h **** #define PHASOR_H
   8:Util/../Util/phasor.h **** #ifdef __cplusplus
   9:Util/../Util/phasor.h **** 
  10:Util/../Util/phasor.h **** #define PI_F 3.1415927410125732421875f
  11:Util/../Util/phasor.h **** #define TWOPI_F (2.0f * PI_F)
  12:Util/../Util/phasor.h **** 
  13:Util/../Util/phasor.h **** namespace daisysp_modified {
  14:Util/../Util/phasor.h **** /** Generates a normalized signal moving from 0-1 at the specified frequency.
  15:Util/../Util/phasor.h **** 
  16:Util/../Util/phasor.h **** \todo Selecting which channels should be initialized/included in the sequence
  17:Util/../Util/phasor.h **** conversion. \todo Setup a similar start function for an external mux, but that
  18:Util/../Util/phasor.h **** seems outside the scope of this file.
  19:Util/../Util/phasor.h **** 
  20:Util/../Util/phasor.h **** */
  21:Util/../Util/phasor.h **** class Phasor {
  22:Util/../Util/phasor.h ****   public:
  23:Util/../Util/phasor.h ****     Phasor() {}
  24:Util/../Util/phasor.h ****     ~Phasor() {}
  25:Util/../Util/phasor.h ****     /** Initializes the Phasor module
  26:Util/../Util/phasor.h ****     sample rate, and freq are in Hz
  27:Util/../Util/phasor.h ****     initial phase is in radians
  28:Util/../Util/phasor.h ****     Additional Init functions have defaults when arg is not specified:
  29:Util/../Util/phasor.h ****     - phs = 0.0f
  30:Util/../Util/phasor.h ****     - freq = 1.0f
  31:Util/../Util/phasor.h ****     */
  32:Util/../Util/phasor.h ****     inline void Init(float sample_rate, float freq, float initial_phase) {
  33:Util/../Util/phasor.h ****         sample_rate_ = sample_rate;
  34:Util/../Util/phasor.h ****         phs_ = initial_phase;
  35:Util/../Util/phasor.h ****         SetFreq(freq);
  36:Util/../Util/phasor.h ****     }
  37:Util/../Util/phasor.h **** 
  38:Util/../Util/phasor.h ****     /** Initialize phasor with samplerate and freq
  39:Util/../Util/phasor.h ****      */
  40:Util/../Util/phasor.h ****     inline void Init(float sample_rate, float freq) { Init(sample_rate, freq, 0.0f); }
  41:Util/../Util/phasor.h **** 
  42:Util/../Util/phasor.h ****     /** Initialize phasor with samplerate
  43:Util/../Util/phasor.h ****      */
  44:Util/../Util/phasor.h ****     inline void Init(float sample_rate) { Init(sample_rate, 1.0f, 0.0f); }
  45:Util/../Util/phasor.h ****     /** processes Phasor and returns current value
  46:Util/../Util/phasor.h ****      */
  47:Util/../Util/phasor.h ****     float Process() {
  48:Util/../Util/phasor.h ****         float out;
  49:Util/../Util/phasor.h ****         out = phs_ / TWOPI_F;
 368              		.loc 6 49 15 is_stmt 0 view .LVU73
 369 0000 D0ED126A 		vldr.32	s13, [r0, #72]
  50:Util/../Util/phasor.h ****         phs_ += inc_;
 370              		.loc 6 50 14 view .LVU74
 371 0004 90ED117A 		vldr.32	s14, [r0, #68]
  49:Util/../Util/phasor.h ****         phs_ += inc_;
 372              		.loc 6 49 13 view .LVU75
 373 0008 DFED917A 		vldr.32	s15, .L109
 374              		.loc 6 50 14 view .LVU76
 375 000c 36EE877A 		vadd.f32	s14, s13, s14
  49:Util/../Util/phasor.h ****         phs_ += inc_;
ARM GAS  /tmp/ccRb3mjQ.s 			page 21


 376              		.loc 6 49 13 view .LVU77
 377 0010 86EEA75A 		vdiv.f32	s10, s13, s15
  51:Util/../Util/phasor.h ****         if (phs_ > TWOPI_F) {
 378              		.loc 6 51 9 view .LVU78
 379 0014 B4EEE77A 		vcmpe.f32	s14, s15
 380              	.LBE218:
 381              	.LBE217:
  88:Util/../Util/pitch_shifter.h ****         float val, fade1, fade2;
 382              		.loc 4 88 11 view .LVU79
 383 0018 70B5     		push	{r4, r5, r6, lr}
 384              		.cfi_def_cfa_offset 16
 385              		.cfi_offset 4, -16
 386              		.cfi_offset 5, -12
 387              		.cfi_offset 6, -8
 388              		.cfi_offset 14, -4
 389              	.LBB224:
 390              	.LBB219:
 391              		.loc 6 51 9 view .LVU80
 392 001a F1EE10FA 		vmrs	APSR_nzcv, FPSCR
 393              	.LBE219:
 394              	.LBE224:
  88:Util/../Util/pitch_shifter.h ****         float val, fade1, fade2;
 395              		.loc 4 88 11 view .LVU81
 396 001e 0446     		mov	r4, r0
 397              	.LVL20:
 398              	.LBB225:
 399              	.LBI217:
  47:Util/../Util/phasor.h ****         float out;
 400              		.loc 6 47 11 is_stmt 1 view .LVU82
 401              	.LBB220:
  48:Util/../Util/phasor.h ****         out = phs_ / TWOPI_F;
 402              		.loc 6 48 9 view .LVU83
  49:Util/../Util/phasor.h ****         phs_ += inc_;
 403              		.loc 6 49 9 view .LVU84
  50:Util/../Util/phasor.h ****         if (phs_ > TWOPI_F) {
 404              		.loc 6 50 9 view .LVU85
 405              		.loc 6 51 9 view .LVU86
 406              	.LBE220:
 407              	.LBE225:
  88:Util/../Util/pitch_shifter.h ****         float val, fade1, fade2;
 408              		.loc 4 88 11 is_stmt 0 view .LVU87
 409 0020 2DED048B 		vpush.64	{d8, d9}
 410              		.cfi_def_cfa_offset 32
 411              		.cfi_offset 80, -32
 412              		.cfi_offset 81, -28
 413              		.cfi_offset 82, -24
 414              		.cfi_offset 83, -20
  88:Util/../Util/pitch_shifter.h ****         float val, fade1, fade2;
 415              		.loc 4 88 11 view .LVU88
 416 0024 F0EE408A 		vmov.f32	s17, s0
 417              	.LBB226:
 418              	.LBB221:
 419              		.loc 6 51 9 view .LVU89
 420 0028 40DD     		ble	.L91
  52:Util/../Util/phasor.h ****             phs_ -= TWOPI_F;
 421              		.loc 6 52 13 is_stmt 1 view .LVU90
 422              		.loc 6 52 18 is_stmt 0 view .LVU91
ARM GAS  /tmp/ccRb3mjQ.s 			page 22


 423 002a 37EE677A 		vsub.f32	s14, s14, s15
  53:Util/../Util/phasor.h ****         }
  54:Util/../Util/phasor.h ****         if (phs_ < 0.0f) {
 424              		.loc 6 54 9 is_stmt 1 view .LVU92
 425              	.L31:
 426              	.LBE221:
 427              	.LBE226:
 428              	.LBB227:
 429              	.LBB228:
  49:Util/../Util/phasor.h ****         phs_ += inc_;
 430              		.loc 6 49 15 is_stmt 0 view .LVU93
 431 002e 94ED166A 		vldr.32	s12, [r4, #88]
  50:Util/../Util/phasor.h ****         if (phs_ > TWOPI_F) {
 432              		.loc 6 50 14 view .LVU94
 433 0032 D4ED157A 		vldr.32	s15, [r4, #84]
  49:Util/../Util/phasor.h ****         phs_ += inc_;
 434              		.loc 6 49 13 view .LVU95
 435 0036 DFED866A 		vldr.32	s13, .L109
  50:Util/../Util/phasor.h ****         if (phs_ > TWOPI_F) {
 436              		.loc 6 50 14 view .LVU96
 437 003a 76EE277A 		vadd.f32	s15, s12, s15
 438              	.LBE228:
 439              	.LBE227:
 440              	.LBB232:
 441              	.LBB222:
 442 003e 84ED127A 		vstr.32	s14, [r4, #72]
  55:Util/../Util/phasor.h ****             phs_ += TWOPI_F;
  56:Util/../Util/phasor.h ****         }
  57:Util/../Util/phasor.h ****         return out;
 443              		.loc 6 57 9 is_stmt 1 view .LVU97
 444              	.LVL21:
 445              		.loc 6 57 9 is_stmt 0 view .LVU98
 446              	.LBE222:
 447              	.LBE232:
  92:Util/../Util/pitch_shifter.h ****         fade2 = phs_[1].Process();
 448              		.loc 4 92 9 is_stmt 1 view .LVU99
 449              	.LBB233:
 450              	.LBI227:
  47:Util/../Util/phasor.h ****         float out;
 451              		.loc 6 47 11 view .LVU100
 452              	.LBB229:
  48:Util/../Util/phasor.h ****         out = phs_ / TWOPI_F;
 453              		.loc 6 48 9 view .LVU101
  49:Util/../Util/phasor.h ****         phs_ += inc_;
 454              		.loc 6 49 9 view .LVU102
  49:Util/../Util/phasor.h ****         phs_ += inc_;
 455              		.loc 6 49 13 is_stmt 0 view .LVU103
 456 0042 86EE264A 		vdiv.f32	s8, s12, s13
 457              	.LVL22:
  50:Util/../Util/phasor.h ****         if (phs_ > TWOPI_F) {
 458              		.loc 6 50 9 is_stmt 1 view .LVU104
  51:Util/../Util/phasor.h ****             phs_ -= TWOPI_F;
 459              		.loc 6 51 9 view .LVU105
 460 0046 F4EEE67A 		vcmpe.f32	s15, s13
 461 004a F1EE10FA 		vmrs	APSR_nzcv, FPSCR
 462 004e 35DD     		ble	.L92
  52:Util/../Util/phasor.h ****         }
ARM GAS  /tmp/ccRb3mjQ.s 			page 23


 463              		.loc 6 52 13 view .LVU106
  52:Util/../Util/phasor.h ****         }
 464              		.loc 6 52 18 is_stmt 0 view .LVU107
 465 0050 77EEE67A 		vsub.f32	s15, s15, s13
  54:Util/../Util/phasor.h ****             phs_ += TWOPI_F;
 466              		.loc 6 54 9 is_stmt 1 view .LVU108
 467              	.L35:
  54:Util/../Util/phasor.h ****             phs_ += TWOPI_F;
 468              		.loc 6 54 9 is_stmt 0 view .LVU109
 469              	.LBE229:
 470              	.LBE233:
  93:Util/../Util/pitch_shifter.h ****         bool recalc_a_fun = ((transpose_ >= 0.f) && (prev_phs_a_ > fade1)) || ((transpose_ < 0.f) &
 471              		.loc 4 93 31 view .LVU110
 472 0054 94ED1B7A 		vldr.32	s14, [r4, #108]
  94:Util/../Util/pitch_shifter.h ****         bool recalc_b_fun = ((transpose_ >= 0.f) && (prev_phs_b_ > fade2)) || ((transpose_ < 0.f) &
  95:Util/../Util/pitch_shifter.h ****         // Randomly trigger mod recalc when tranpose is 0 so that the "fun"
  96:Util/../Util/pitch_shifter.h ****         // parameter still does something when not transposing
  97:Util/../Util/pitch_shifter.h ****         bool rand_retrig = (transpose_ >= -0.25f && transpose_ < 0.25f);
  98:Util/../Util/pitch_shifter.h ****         if (rand_retrig && fun_ > 0.f)
  99:Util/../Util/pitch_shifter.h ****             if (myrand() % 65536 < 4)
 100:Util/../Util/pitch_shifter.h ****                 recalc_a_fun = recalc_b_fun = true;
 101:Util/../Util/pitch_shifter.h ****         if (recalc_a_fun) {
 102:Util/../Util/pitch_shifter.h ****             mod_a_amt_ = fun_ * ((float)(myrand() % 255) / 255.0f) * (del_size_ * 0.5f);
 103:Util/../Util/pitch_shifter.h ****             mod_coeff_[0] = 0.0002f + (((float)(myrand() % 255) / 255.0f) * 0.001f);
 104:Util/../Util/pitch_shifter.h ****         }
 105:Util/../Util/pitch_shifter.h ****         if (recalc_b_fun) {
 106:Util/../Util/pitch_shifter.h ****             mod_b_amt_ = fun_ * ((float)(myrand() % 255) / 255.0f) * (del_size_ * 0.5f);
 473              		.loc 4 106 71 discriminator 1 view .LVU111
 474 0058 256B     		ldr	r5, [r4, #48]
  93:Util/../Util/pitch_shifter.h ****         bool recalc_a_fun = ((transpose_ >= 0.f) && (prev_phs_a_ > fade1)) || ((transpose_ < 0.f) &
 475              		.loc 4 93 76 view .LVU112
 476 005a B5EEC07A 		vcmpe.f32	s14, #0
 477              	.LBB234:
 478              	.LBB230:
  50:Util/../Util/phasor.h ****         if (phs_ > TWOPI_F) {
 479              		.loc 6 50 14 view .LVU113
 480 005e C4ED167A 		vstr.32	s15, [r4, #88]
 481              		.loc 6 57 9 is_stmt 1 view .LVU114
 482              	.LVL23:
 483              		.loc 6 57 9 is_stmt 0 view .LVU115
 484              	.LBE230:
 485              	.LBE234:
  93:Util/../Util/pitch_shifter.h ****         bool recalc_a_fun = ((transpose_ >= 0.f) && (prev_phs_a_ > fade1)) || ((transpose_ < 0.f) &
 486              		.loc 4 93 9 is_stmt 1 view .LVU116
  93:Util/../Util/pitch_shifter.h ****         bool recalc_a_fun = ((transpose_ >= 0.f) && (prev_phs_a_ > fade1)) || ((transpose_ < 0.f) &
 487              		.loc 4 93 76 is_stmt 0 view .LVU117
 488 0062 F1EE10FA 		vmrs	APSR_nzcv, FPSCR
 489 0066 C0F2D480 		blt	.L93
  93:Util/../Util/pitch_shifter.h ****         bool recalc_a_fun = ((transpose_ >= 0.f) && (prev_phs_a_ > fade1)) || ((transpose_ < 0.f) &
 490              		.loc 4 93 50 discriminator 1 view .LVU118
 491 006a D4ED1F7A 		vldr.32	s15, [r4, #124]
  94:Util/../Util/pitch_shifter.h ****         bool recalc_b_fun = ((transpose_ >= 0.f) && (prev_phs_b_ > fade2)) || ((transpose_ < 0.f) &
 492              		.loc 4 94 54 discriminator 1 view .LVU119
 493 006e D4ED206A 		vldr.32	s13, [r4, #128]
  93:Util/../Util/pitch_shifter.h ****         bool recalc_a_fun = ((transpose_ >= 0.f) && (prev_phs_a_ > fade1)) || ((transpose_ < 0.f) &
 494              		.loc 4 93 50 discriminator 1 view .LVU120
 495 0072 F4EEC57A 		vcmpe.f32	s15, s10
ARM GAS  /tmp/ccRb3mjQ.s 			page 24


 496 0076 F1EE10FA 		vmrs	APSR_nzcv, FPSCR
 497 007a 27DD     		ble	.L103
  94:Util/../Util/pitch_shifter.h ****         bool recalc_b_fun = ((transpose_ >= 0.f) && (prev_phs_b_ > fade2)) || ((transpose_ < 0.f) &
 498              		.loc 4 94 9 is_stmt 1 view .LVU121
  94:Util/../Util/pitch_shifter.h ****         bool recalc_b_fun = ((transpose_ >= 0.f) && (prev_phs_b_ > fade2)) || ((transpose_ < 0.f) &
 499              		.loc 4 94 50 is_stmt 0 discriminator 1 view .LVU122
 500 007c B4EEE64A 		vcmpe.f32	s8, s13
  98:Util/../Util/pitch_shifter.h ****             if (myrand() % 65536 < 4)
 501              		.loc 4 98 28 discriminator 1 view .LVU123
 502 0080 94ED1C6A 		vldr.32	s12, [r4, #112]
  94:Util/../Util/pitch_shifter.h ****         bool recalc_b_fun = ((transpose_ >= 0.f) && (prev_phs_b_ > fade2)) || ((transpose_ < 0.f) &
 503              		.loc 4 94 50 discriminator 1 view .LVU124
 504 0084 F1EE10FA 		vmrs	APSR_nzcv, FPSCR
 505 0088 40F1D181 		bpl	.L104
 506              	.LVL24:
  97:Util/../Util/pitch_shifter.h ****         if (rand_retrig && fun_ > 0.f)
 507              		.loc 4 97 9 is_stmt 1 view .LVU125
  97:Util/../Util/pitch_shifter.h ****         if (rand_retrig && fun_ > 0.f)
 508              		.loc 4 97 50 is_stmt 0 discriminator 1 view .LVU126
 509 008c F5EE007A 		vmov.f32	s15, #2.5e-1
 510 0090 B4EEE77A 		vcmpe.f32	s14, s15
 511 0094 F1EE10FA 		vmrs	APSR_nzcv, FPSCR
 512 0098 40F1EF81 		bpl	.L64
 513              	.L59:
 514              	.LVL25:
  98:Util/../Util/pitch_shifter.h ****             if (myrand() % 65536 < 4)
 515              		.loc 4 98 9 is_stmt 1 view .LVU127
  98:Util/../Util/pitch_shifter.h ****             if (myrand() % 65536 < 4)
 516              		.loc 4 98 25 is_stmt 0 discriminator 1 view .LVU128
 517 009c B5EEC06A 		vcmpe.f32	s12, #0
 518 00a0 F1EE10FA 		vmrs	APSR_nzcv, FPSCR
 519 00a4 40F3E981 		ble	.L64
 520 00a8 0120     		movs	r0, #1
 521              	.LVL26:
  98:Util/../Util/pitch_shifter.h ****             if (myrand() % 65536 < 4)
 522              		.loc 4 98 25 discriminator 1 view .LVU129
 523 00aa CFE1     		b	.L63
 524              	.LVL27:
 525              	.L91:
 526              	.LBB235:
 527              	.LBB223:
  54:Util/../Util/phasor.h ****             phs_ += TWOPI_F;
 528              		.loc 6 54 9 is_stmt 1 view .LVU130
 529 00ac B5EEC07A 		vcmpe.f32	s14, #0
 530 00b0 F1EE10FA 		vmrs	APSR_nzcv, FPSCR
  55:Util/../Util/phasor.h ****         }
 531              		.loc 6 55 13 view .LVU131
  55:Util/../Util/phasor.h ****         }
 532              		.loc 6 55 18 is_stmt 0 view .LVU132
 533 00b4 48BF     		it	mi
 534 00b6 37EE277A 		vaddmi.f32	s14, s14, s15
 535 00ba B8E7     		b	.L31
 536              	.LVL28:
 537              	.L92:
  55:Util/../Util/phasor.h ****         }
 538              		.loc 6 55 18 view .LVU133
 539              	.LBE223:
ARM GAS  /tmp/ccRb3mjQ.s 			page 25


 540              	.LBE235:
 541              	.LBB236:
 542              	.LBB231:
  54:Util/../Util/phasor.h ****             phs_ += TWOPI_F;
 543              		.loc 6 54 9 is_stmt 1 view .LVU134
 544 00bc F5EEC07A 		vcmpe.f32	s15, #0
 545 00c0 F1EE10FA 		vmrs	APSR_nzcv, FPSCR
  55:Util/../Util/phasor.h ****         }
 546              		.loc 6 55 13 view .LVU135
  55:Util/../Util/phasor.h ****         }
 547              		.loc 6 55 18 is_stmt 0 view .LVU136
 548 00c4 48BF     		it	mi
 549 00c6 77EEA67A 		vaddmi.f32	s15, s15, s13
 550 00ca C3E7     		b	.L35
 551              	.LVL29:
 552              	.L103:
  55:Util/../Util/phasor.h ****         }
 553              		.loc 6 55 18 view .LVU137
 554              	.LBE231:
 555              	.LBE236:
  94:Util/../Util/pitch_shifter.h ****         // Randomly trigger mod recalc when tranpose is 0 so that the "fun"
 556              		.loc 4 94 50 discriminator 1 view .LVU138
 557 00cc B4EEE64A 		vcmpe.f32	s8, s13
  97:Util/../Util/pitch_shifter.h ****         if (rand_retrig && fun_ > 0.f)
 558              		.loc 4 97 50 discriminator 1 view .LVU139
 559 00d0 F5EE007A 		vmov.f32	s15, #2.5e-1
  94:Util/../Util/pitch_shifter.h ****         // Randomly trigger mod recalc when tranpose is 0 so that the "fun"
 560              		.loc 4 94 50 discriminator 1 view .LVU140
 561 00d4 F1EE10FA 		vmrs	APSR_nzcv, FPSCR
  97:Util/../Util/pitch_shifter.h ****         if (rand_retrig && fun_ > 0.f)
 562              		.loc 4 97 50 discriminator 1 view .LVU141
 563 00d8 B4EEE77A 		vcmpe.f32	s14, s15
  94:Util/../Util/pitch_shifter.h ****         // Randomly trigger mod recalc when tranpose is 0 so that the "fun"
 564              		.loc 4 94 50 discriminator 1 view .LVU142
 565 00dc 00F19981 		bmi	.L45
 566              	.LVL30:
  97:Util/../Util/pitch_shifter.h ****         if (rand_retrig && fun_ > 0.f)
 567              		.loc 4 97 9 is_stmt 1 view .LVU143
  97:Util/../Util/pitch_shifter.h ****         if (rand_retrig && fun_ > 0.f)
 568              		.loc 4 97 50 is_stmt 0 discriminator 1 view .LVU144
 569 00e0 F1EE10FA 		vmrs	APSR_nzcv, FPSCR
 570 00e4 40F1D280 		bpl	.L47
 571              	.L46:
 572              	.LVL31:
  98:Util/../Util/pitch_shifter.h ****             if (myrand() % 65536 < 4)
 573              		.loc 4 98 9 is_stmt 1 view .LVU145
  98:Util/../Util/pitch_shifter.h ****             if (myrand() % 65536 < 4)
 574              		.loc 4 98 25 is_stmt 0 discriminator 1 view .LVU146
 575 00e8 94ED1C6A 		vldr.32	s12, [r4, #112]
 576 00ec B5EEC06A 		vcmpe.f32	s12, #0
 577 00f0 F1EE10FA 		vmrs	APSR_nzcv, FPSCR
 578 00f4 40F3CA80 		ble	.L47
 579 00f8 0020     		movs	r0, #0
 580              	.LVL32:
 581              	.L61:
  99:Util/../Util/pitch_shifter.h ****                 recalc_a_fun = recalc_b_fun = true;
 582              		.loc 4 99 13 is_stmt 1 view .LVU147
ARM GAS  /tmp/ccRb3mjQ.s 			page 26


 583              	.LBB237:
 584              	.LBI237:
  29:Util/../Util/pitch_shifter.h ****     static uint32_t seed = 1;
 585              		.loc 4 29 17 view .LVU148
 586              	.LBB238:
  30:Util/../Util/pitch_shifter.h ****     seed = hash_xs32(seed);
 587              		.loc 4 30 5 view .LVU149
  31:Util/../Util/pitch_shifter.h ****     return seed;
 588              		.loc 4 31 5 view .LVU150
  31:Util/../Util/pitch_shifter.h ****     return seed;
 589              		.loc 4 31 21 is_stmt 0 view .LVU151
 590 00fa 5649     		ldr	r1, .L109+4
 591              	.LBE238:
 592              	.LBE237:
  99:Util/../Util/pitch_shifter.h ****                 recalc_a_fun = recalc_b_fun = true;
 593              		.loc 4 99 34 discriminator 1 view .LVU152
 594 00fc 4FF6FC72 		movw	r2, #65532
 595              	.LBB249:
 596              	.LBB243:
  31:Util/../Util/pitch_shifter.h ****     return seed;
 597              		.loc 4 31 21 view .LVU153
 598 0100 0B68     		ldr	r3, [r1]
 599              	.LVL33:
 600              	.LBB239:
 601              	.LBI239:
  22:Util/../Util/pitch_shifter.h ****     x ^= x << 13;
 602              		.loc 4 22 24 is_stmt 1 view .LVU154
 603              	.LBB240:
  23:Util/../Util/pitch_shifter.h ****     x ^= x >> 17;
 604              		.loc 4 23 5 view .LVU155
  23:Util/../Util/pitch_shifter.h ****     x ^= x >> 17;
 605              		.loc 4 23 7 is_stmt 0 view .LVU156
 606 0102 83EA4333 		eor	r3, r3, r3, lsl #13
 607              	.LVL34:
  24:Util/../Util/pitch_shifter.h ****     x ^= x << 5;
 608              		.loc 4 24 5 is_stmt 1 view .LVU157
  24:Util/../Util/pitch_shifter.h ****     x ^= x << 5;
 609              		.loc 4 24 7 is_stmt 0 view .LVU158
 610 0106 83EA5343 		eor	r3, r3, r3, lsr #17
 611              	.LVL35:
  25:Util/../Util/pitch_shifter.h ****     return x;
 612              		.loc 4 25 5 is_stmt 1 view .LVU159
  25:Util/../Util/pitch_shifter.h ****     return x;
 613              		.loc 4 25 7 is_stmt 0 view .LVU160
 614 010a 83EA4313 		eor	r3, r3, r3, lsl #5
 615              	.LVL36:
  26:Util/../Util/pitch_shifter.h **** }
 616              		.loc 4 26 5 is_stmt 1 view .LVU161
  26:Util/../Util/pitch_shifter.h **** }
 617              		.loc 4 26 5 is_stmt 0 view .LVU162
 618              	.LBE240:
 619              	.LBE239:
 620              	.LBE243:
 621              	.LBE249:
  99:Util/../Util/pitch_shifter.h ****                 recalc_a_fun = recalc_b_fun = true;
 622              		.loc 4 99 13 discriminator 1 view .LVU163
 623 010e 1342     		tst	r3, r2
ARM GAS  /tmp/ccRb3mjQ.s 			page 27


 624              	.LBB250:
 625              	.LBB244:
  31:Util/../Util/pitch_shifter.h ****     return seed;
 626              		.loc 4 31 10 discriminator 1 view .LVU164
 627 0110 0B60     		str	r3, [r1]
  32:Util/../Util/pitch_shifter.h **** }
 628              		.loc 4 32 5 is_stmt 1 view .LVU165
 629              	.LBE244:
 630              	.LBE250:
  99:Util/../Util/pitch_shifter.h ****                 recalc_a_fun = recalc_b_fun = true;
 631              		.loc 4 99 13 is_stmt 0 discriminator 1 view .LVU166
 632 0112 40F0C181 		bne	.L105
 633              	.L69:
 100:Util/../Util/pitch_shifter.h ****         if (recalc_a_fun) {
 634              		.loc 4 100 45 view .LVU167
 635 0116 0120     		movs	r0, #1
 636              	.LVL37:
 637              	.L56:
 102:Util/../Util/pitch_shifter.h ****             mod_coeff_[0] = 0.0002f + (((float)(myrand() % 255) / 255.0f) * 0.001f);
 638              		.loc 4 102 13 is_stmt 1 view .LVU168
 639              	.LBB251:
 640              	.LBI251:
  29:Util/../Util/pitch_shifter.h ****     static uint32_t seed = 1;
 641              		.loc 4 29 17 view .LVU169
 642              	.LBB252:
  30:Util/../Util/pitch_shifter.h ****     seed = hash_xs32(seed);
 643              		.loc 4 30 5 view .LVU170
  31:Util/../Util/pitch_shifter.h ****     return seed;
 644              		.loc 4 31 5 view .LVU171
 645              	.LBB253:
 646              	.LBI253:
  22:Util/../Util/pitch_shifter.h ****     x ^= x << 13;
 647              		.loc 4 22 24 view .LVU172
 648              	.LBB254:
  23:Util/../Util/pitch_shifter.h ****     x ^= x >> 17;
 649              		.loc 4 23 5 view .LVU173
  23:Util/../Util/pitch_shifter.h ****     x ^= x >> 17;
 650              		.loc 4 23 7 is_stmt 0 view .LVU174
 651 0118 83EA4333 		eor	r3, r3, r3, lsl #13
 652              	.LVL38:
  24:Util/../Util/pitch_shifter.h ****     x ^= x << 5;
 653              		.loc 4 24 5 is_stmt 1 view .LVU175
 654              	.LBE254:
 655              	.LBE253:
 656              	.LBE252:
 657              	.LBE251:
 102:Util/../Util/pitch_shifter.h ****             mod_coeff_[0] = 0.0002f + (((float)(myrand() % 255) / 255.0f) * 0.001f);
 658              		.loc 4 102 51 is_stmt 0 discriminator 1 view .LVU176
 659 011c 4E4A     		ldr	r2, .L109+8
 102:Util/../Util/pitch_shifter.h ****             mod_coeff_[0] = 0.0002f + (((float)(myrand() % 255) / 255.0f) * 0.001f);
 660              		.loc 4 102 58 discriminator 1 view .LVU177
 661 011e DFED4F5A 		vldr.32	s11, .L109+12
 662              	.LBB261:
 663              	.LBB259:
 664              	.LBB257:
 665              	.LBB255:
  24:Util/../Util/pitch_shifter.h ****     x ^= x << 5;
ARM GAS  /tmp/ccRb3mjQ.s 			page 28


 666              		.loc 4 24 7 view .LVU178
 667 0122 83EA5343 		eor	r3, r3, r3, lsr #17
 668              	.LVL39:
  25:Util/../Util/pitch_shifter.h ****     return x;
 669              		.loc 4 25 5 is_stmt 1 view .LVU179
 670              	.LBE255:
 671              	.LBE257:
 672              	.LBE259:
 673              	.LBE261:
 103:Util/../Util/pitch_shifter.h ****         }
 674              		.loc 4 103 37 is_stmt 0 discriminator 1 view .LVU180
 675 0126 DFED4E4A 		vldr.32	s9, .L109+16
 676 012a DFED4E3A 		vldr.32	s7, .L109+20
 677              	.LBB262:
 678              	.LBB260:
 679              	.LBB258:
 680              	.LBB256:
  25:Util/../Util/pitch_shifter.h ****     return x;
 681              		.loc 4 25 7 view .LVU181
 682 012e 83EA4313 		eor	r3, r3, r3, lsl #5
 683              	.LVL40:
  26:Util/../Util/pitch_shifter.h **** }
 684              		.loc 4 26 5 is_stmt 1 view .LVU182
 685              	.LBE256:
 686              	.LBE258:
  32:Util/../Util/pitch_shifter.h **** }
 687              		.loc 4 32 5 view .LVU183
  32:Util/../Util/pitch_shifter.h **** }
 688              		.loc 4 32 5 is_stmt 0 view .LVU184
 689              	.LBE260:
 690              	.LBE262:
 691              	.LBB263:
 692              	.LBB264:
 693              	.LBB265:
 694              	.LBB266:
  23:Util/../Util/pitch_shifter.h ****     x ^= x >> 17;
 695              		.loc 4 23 7 view .LVU185
 696 0132 83EA4336 		eor	r6, r3, r3, lsl #13
 697              	.LBE266:
 698              	.LBE265:
 699              	.LBE264:
 700              	.LBE263:
 102:Util/../Util/pitch_shifter.h ****             mod_coeff_[0] = 0.0002f + (((float)(myrand() % 255) / 255.0f) * 0.001f);
 701              		.loc 4 102 51 discriminator 1 view .LVU186
 702 0136 A2FB03EC 		umull	lr, ip, r2, r3
 703              	.LBB277:
 704              	.LBB273:
 705              	.LBB270:
 706              	.LBB267:
  24:Util/../Util/pitch_shifter.h ****     x ^= x << 5;
 707              		.loc 4 24 7 view .LVU187
 708 013a 86EA5646 		eor	r6, r6, r6, lsr #17
 709              	.LBE267:
 710              	.LBE270:
 711              	.LBE273:
 712              	.LBE277:
 102:Util/../Util/pitch_shifter.h ****             mod_coeff_[0] = 0.0002f + (((float)(myrand() % 255) / 255.0f) * 0.001f);
ARM GAS  /tmp/ccRb3mjQ.s 			page 29


 713              		.loc 4 102 51 discriminator 1 view .LVU188
 714 013e 4FEADC1C 		lsr	ip, ip, #7
 715              	.LBB278:
 716              	.LBB274:
 717              	.LBB271:
 718              	.LBB268:
  25:Util/../Util/pitch_shifter.h ****     return x;
 719              		.loc 4 25 7 view .LVU189
 720 0142 86EA4616 		eor	r6, r6, r6, lsl #5
 721              	.LBE268:
 722              	.LBE271:
 723              	.LBE274:
 724              	.LBE278:
 102:Util/../Util/pitch_shifter.h ****             mod_coeff_[0] = 0.0002f + (((float)(myrand() % 255) / 255.0f) * 0.001f);
 725              		.loc 4 102 51 discriminator 1 view .LVU190
 726 0146 CCEB0C2C 		rsb	ip, ip, ip, lsl #8
 103:Util/../Util/pitch_shifter.h ****         }
 727              		.loc 4 103 58 discriminator 1 view .LVU191
 728 014a A2FB06E2 		umull	lr, r2, r2, r6
 102:Util/../Util/pitch_shifter.h ****             mod_coeff_[0] = 0.0002f + (((float)(myrand() % 255) / 255.0f) * 0.001f);
 729              		.loc 4 102 51 discriminator 1 view .LVU192
 730 014e A3EB0C03 		sub	r3, r3, ip
 731              	.LBB279:
 732              	.LBB275:
  31:Util/../Util/pitch_shifter.h ****     return seed;
 733              		.loc 4 31 10 discriminator 1 view .LVU193
 734 0152 0E60     		str	r6, [r1]
 735              	.LBE275:
 736              	.LBE279:
 103:Util/../Util/pitch_shifter.h ****         }
 737              		.loc 4 103 58 discriminator 1 view .LVU194
 738 0154 D209     		lsrs	r2, r2, #7
 102:Util/../Util/pitch_shifter.h ****             mod_coeff_[0] = 0.0002f + (((float)(myrand() % 255) / 255.0f) * 0.001f);
 739              		.loc 4 102 34 discriminator 1 view .LVU195
 740 0156 07EE903A 		vmov	s15, r3	@ int
 103:Util/../Util/pitch_shifter.h ****         }
 741              		.loc 4 103 58 discriminator 1 view .LVU196
 742 015a C2EB0222 		rsb	r2, r2, r2, lsl #8
 102:Util/../Util/pitch_shifter.h ****             mod_coeff_[0] = 0.0002f + (((float)(myrand() % 255) / 255.0f) * 0.001f);
 743              		.loc 4 102 34 discriminator 1 view .LVU197
 744 015e F8EEE76A 		vcvt.f32.s32	s13, s15
 103:Util/../Util/pitch_shifter.h ****         }
 745              		.loc 4 103 58 discriminator 1 view .LVU198
 746 0162 B61A     		subs	r6, r6, r2
 103:Util/../Util/pitch_shifter.h ****         }
 747              		.loc 4 103 41 discriminator 1 view .LVU199
 748 0164 07EE906A 		vmov	s15, r6	@ int
 102:Util/../Util/pitch_shifter.h ****             mod_coeff_[0] = 0.0002f + (((float)(myrand() % 255) / 255.0f) * 0.001f);
 749              		.loc 4 102 58 discriminator 1 view .LVU200
 750 0168 86EEA57A 		vdiv.f32	s14, s13, s11
 103:Util/../Util/pitch_shifter.h ****         }
 751              		.loc 4 103 41 discriminator 1 view .LVU201
 752 016c F8EEE77A 		vcvt.f32.s32	s15, s15
 103:Util/../Util/pitch_shifter.h ****         }
 753              		.loc 4 103 65 discriminator 1 view .LVU202
 754 0170 C7EEA56A 		vdiv.f32	s13, s15, s11
 102:Util/../Util/pitch_shifter.h ****             mod_coeff_[0] = 0.0002f + (((float)(myrand() % 255) / 255.0f) * 0.001f);
ARM GAS  /tmp/ccRb3mjQ.s 			page 30


 755              		.loc 4 102 68 discriminator 1 view .LVU203
 756 0174 07EE905A 		vmov	s15, r5	@ int
 757 0178 FBEEEF7A 		vcvt.f32.u32	s15, s15, #1
 102:Util/../Util/pitch_shifter.h ****             mod_coeff_[0] = 0.0002f + (((float)(myrand() % 255) / 255.0f) * 0.001f);
 758              		.loc 4 102 31 discriminator 1 view .LVU204
 759 017c 27EE067A 		vmul.f32	s14, s14, s12
 102:Util/../Util/pitch_shifter.h ****             mod_coeff_[0] = 0.0002f + (((float)(myrand() % 255) / 255.0f) * 0.001f);
 760              		.loc 4 102 68 discriminator 1 view .LVU205
 761 0180 27EE277A 		vmul.f32	s14, s14, s15
 102:Util/../Util/pitch_shifter.h ****             mod_coeff_[0] = 0.0002f + (((float)(myrand() % 255) / 255.0f) * 0.001f);
 762              		.loc 4 102 24 discriminator 1 view .LVU206
 763 0184 84ED1D7A 		vstr.32	s14, [r4, #116]
 103:Util/../Util/pitch_shifter.h ****         }
 764              		.loc 4 103 13 is_stmt 1 view .LVU207
 765              	.LBB280:
 766              	.LBI263:
  29:Util/../Util/pitch_shifter.h ****     static uint32_t seed = 1;
 767              		.loc 4 29 17 view .LVU208
 768              	.LBB276:
  30:Util/../Util/pitch_shifter.h ****     seed = hash_xs32(seed);
 769              		.loc 4 30 5 view .LVU209
  31:Util/../Util/pitch_shifter.h ****     return seed;
 770              		.loc 4 31 5 view .LVU210
 771              	.LVL41:
 772              	.LBB272:
 773              	.LBI265:
  22:Util/../Util/pitch_shifter.h ****     x ^= x << 13;
 774              		.loc 4 22 24 view .LVU211
 775              	.LBB269:
  23:Util/../Util/pitch_shifter.h ****     x ^= x >> 17;
 776              		.loc 4 23 5 view .LVU212
  24:Util/../Util/pitch_shifter.h ****     x ^= x << 5;
 777              		.loc 4 24 5 view .LVU213
  25:Util/../Util/pitch_shifter.h ****     return x;
 778              		.loc 4 25 5 view .LVU214
  26:Util/../Util/pitch_shifter.h **** }
 779              		.loc 4 26 5 view .LVU215
  26:Util/../Util/pitch_shifter.h **** }
 780              		.loc 4 26 5 is_stmt 0 view .LVU216
 781              	.LBE269:
 782              	.LBE272:
  32:Util/../Util/pitch_shifter.h **** }
 783              		.loc 4 32 5 is_stmt 1 view .LVU217
 784              	.LBE276:
 785              	.LBE280:
 103:Util/../Util/pitch_shifter.h ****         }
 786              		.loc 4 103 37 is_stmt 0 discriminator 1 view .LVU218
 787 0188 E6EEA43A 		vfma.f32	s7, s13, s9
 103:Util/../Util/pitch_shifter.h ****         }
 788              		.loc 4 103 27 discriminator 1 view .LVU219
 789 018c C4ED233A 		vstr.32	s7, [r4, #140]
 790              	.L65:
 105:Util/../Util/pitch_shifter.h ****             mod_b_amt_ = fun_ * ((float)(myrand() % 255) / 255.0f) * (del_size_ * 0.5f);
 791              		.loc 4 105 9 is_stmt 1 view .LVU220
 792 0190 0028     		cmp	r0, #0
 793 0192 00F06981 		beq	.L106
  98:Util/../Util/pitch_shifter.h ****             if (myrand() % 65536 < 4)
ARM GAS  /tmp/ccRb3mjQ.s 			page 31


 794              		.loc 4 98 28 is_stmt 0 discriminator 1 view .LVU221
 795 0196 F0EE462A 		vmov.f32	s5, s12
 796              	.L53:
 797              		.loc 4 106 13 is_stmt 1 view .LVU222
 798              	.LBB281:
 799              	.LBI281:
  29:Util/../Util/pitch_shifter.h ****     static uint32_t seed = 1;
 800              		.loc 4 29 17 view .LVU223
 801              	.LBB282:
  30:Util/../Util/pitch_shifter.h ****     seed = hash_xs32(seed);
 802              		.loc 4 30 5 view .LVU224
  31:Util/../Util/pitch_shifter.h ****     return seed;
 803              		.loc 4 31 5 view .LVU225
  31:Util/../Util/pitch_shifter.h ****     return seed;
 804              		.loc 4 31 21 is_stmt 0 view .LVU226
 805 019a 0B68     		ldr	r3, [r1]
 806              	.LVL42:
 807              	.LBB283:
 808              	.LBI283:
  22:Util/../Util/pitch_shifter.h ****     x ^= x << 13;
 809              		.loc 4 22 24 is_stmt 1 view .LVU227
 810              	.LBB284:
  23:Util/../Util/pitch_shifter.h ****     x ^= x >> 17;
 811              		.loc 4 23 5 view .LVU228
 812              	.LBE284:
 813              	.LBE283:
 814              	.LBE282:
 815              	.LBE281:
 816              		.loc 4 106 51 is_stmt 0 discriminator 1 view .LVU229
 817 019c 2E48     		ldr	r0, .L109+8
 818              	.LBB294:
 819              	.LBB291:
 820              	.LBB288:
 821              	.LBB285:
  23:Util/../Util/pitch_shifter.h ****     x ^= x >> 17;
 822              		.loc 4 23 7 view .LVU230
 823 019e 83EA4333 		eor	r3, r3, r3, lsl #13
 824              	.LVL43:
  24:Util/../Util/pitch_shifter.h ****     x ^= x << 5;
 825              		.loc 4 24 5 is_stmt 1 view .LVU231
 826              	.LBE285:
 827              	.LBE288:
 828              	.LBE291:
 829              	.LBE294:
 830              		.loc 4 106 58 is_stmt 0 discriminator 1 view .LVU232
 831 01a2 DFED2E5A 		vldr.32	s11, .L109+12
 107:Util/../Util/pitch_shifter.h ****             mod_coeff_[1] = 0.0002f + (((float)(myrand() % 255) / 255.0f) * 0.001f);
 832              		.loc 4 107 37 discriminator 1 view .LVU233
 833 01a6 9FED2E3A 		vldr.32	s6, .L109+16
 834              	.LBB295:
 835              	.LBB292:
 836              	.LBB289:
 837              	.LBB286:
  24:Util/../Util/pitch_shifter.h ****     x ^= x << 5;
 838              		.loc 4 24 7 view .LVU234
 839 01aa 83EA5343 		eor	r3, r3, r3, lsr #17
 840              	.LVL44:
ARM GAS  /tmp/ccRb3mjQ.s 			page 32


  25:Util/../Util/pitch_shifter.h ****     return x;
 841              		.loc 4 25 5 is_stmt 1 view .LVU235
 842              	.LBE286:
 843              	.LBE289:
 844              	.LBE292:
 845              	.LBE295:
 846              		.loc 4 107 37 is_stmt 0 discriminator 1 view .LVU236
 847 01ae DFED2D4A 		vldr.32	s9, .L109+20
 848              	.LBB296:
 849              	.LBB293:
 850              	.LBB290:
 851              	.LBB287:
  25:Util/../Util/pitch_shifter.h ****     return x;
 852              		.loc 4 25 7 view .LVU237
 853 01b2 83EA4313 		eor	r3, r3, r3, lsl #5
 854              	.LVL45:
  26:Util/../Util/pitch_shifter.h **** }
 855              		.loc 4 26 5 is_stmt 1 view .LVU238
 856              	.LBE287:
 857              	.LBE290:
  32:Util/../Util/pitch_shifter.h **** }
 858              		.loc 4 32 5 view .LVU239
  32:Util/../Util/pitch_shifter.h **** }
 859              		.loc 4 32 5 is_stmt 0 view .LVU240
 860              	.LBE293:
 861              	.LBE296:
 862              	.LBB297:
 863              	.LBB298:
 864              	.LBB299:
 865              	.LBB300:
  23:Util/../Util/pitch_shifter.h ****     x ^= x >> 17;
 866              		.loc 4 23 7 view .LVU241
 867 01b6 83EA4332 		eor	r2, r3, r3, lsl #13
  24:Util/../Util/pitch_shifter.h ****     x ^= x << 5;
 868              		.loc 4 24 7 view .LVU242
 869 01ba 82EA5242 		eor	r2, r2, r2, lsr #17
  25:Util/../Util/pitch_shifter.h ****     return x;
 870              		.loc 4 25 7 view .LVU243
 871 01be 82EA4212 		eor	r2, r2, r2, lsl #5
 872              	.LBE300:
 873              	.LBE299:
  31:Util/../Util/pitch_shifter.h ****     return seed;
 874              		.loc 4 31 10 discriminator 1 view .LVU244
 875 01c2 0A60     		str	r2, [r1]
 876              	.LBE298:
 877              	.LBE297:
 106:Util/../Util/pitch_shifter.h ****             mod_coeff_[1] = 0.0002f + (((float)(myrand() % 255) / 255.0f) * 0.001f);
 878              		.loc 4 106 51 discriminator 1 view .LVU245
 879 01c4 A0FB0316 		umull	r1, r6, r0, r3
 880              		.loc 4 107 58 discriminator 1 view .LVU246
 881 01c8 A0FB0201 		umull	r0, r1, r0, r2
 106:Util/../Util/pitch_shifter.h ****             mod_coeff_[1] = 0.0002f + (((float)(myrand() % 255) / 255.0f) * 0.001f);
 882              		.loc 4 106 51 discriminator 1 view .LVU247
 883 01cc F009     		lsrs	r0, r6, #7
 884              		.loc 4 107 58 discriminator 1 view .LVU248
 885 01ce C909     		lsrs	r1, r1, #7
 106:Util/../Util/pitch_shifter.h ****             mod_coeff_[1] = 0.0002f + (((float)(myrand() % 255) / 255.0f) * 0.001f);
ARM GAS  /tmp/ccRb3mjQ.s 			page 33


 886              		.loc 4 106 51 discriminator 1 view .LVU249
 887 01d0 C0EB0020 		rsb	r0, r0, r0, lsl #8
 888              		.loc 4 107 58 discriminator 1 view .LVU250
 889 01d4 C1EB0121 		rsb	r1, r1, r1, lsl #8
 106:Util/../Util/pitch_shifter.h ****             mod_coeff_[1] = 0.0002f + (((float)(myrand() % 255) / 255.0f) * 0.001f);
 890              		.loc 4 106 51 discriminator 1 view .LVU251
 891 01d8 1B1A     		subs	r3, r3, r0
 892              		.loc 4 107 58 discriminator 1 view .LVU252
 893 01da 521A     		subs	r2, r2, r1
 106:Util/../Util/pitch_shifter.h ****             mod_coeff_[1] = 0.0002f + (((float)(myrand() % 255) / 255.0f) * 0.001f);
 894              		.loc 4 106 34 discriminator 1 view .LVU253
 895 01dc 07EE903A 		vmov	s15, r3	@ int
 896              		.loc 4 107 41 discriminator 1 view .LVU254
 897 01e0 06EE902A 		vmov	s13, r2	@ int
 106:Util/../Util/pitch_shifter.h ****             mod_coeff_[1] = 0.0002f + (((float)(myrand() % 255) / 255.0f) * 0.001f);
 898              		.loc 4 106 34 discriminator 1 view .LVU255
 899 01e4 F8EEE77A 		vcvt.f32.s32	s15, s15
 900              		.loc 4 107 41 discriminator 1 view .LVU256
 901 01e8 B8EEE66A 		vcvt.f32.s32	s12, s13
 106:Util/../Util/pitch_shifter.h ****             mod_coeff_[1] = 0.0002f + (((float)(myrand() % 255) / 255.0f) * 0.001f);
 902              		.loc 4 106 58 discriminator 1 view .LVU257
 903 01ec C7EEA56A 		vdiv.f32	s13, s15, s11
 904              		.loc 4 107 65 discriminator 1 view .LVU258
 905 01f0 C6EE257A 		vdiv.f32	s15, s12, s11
 106:Util/../Util/pitch_shifter.h ****             mod_coeff_[1] = 0.0002f + (((float)(myrand() % 255) / 255.0f) * 0.001f);
 906              		.loc 4 106 31 discriminator 1 view .LVU259
 907 01f4 66EEA26A 		vmul.f32	s13, s13, s5
 908              		.loc 4 107 37 discriminator 1 view .LVU260
 909 01f8 E7EE834A 		vfma.f32	s9, s15, s6
 106:Util/../Util/pitch_shifter.h ****             mod_coeff_[1] = 0.0002f + (((float)(myrand() % 255) / 255.0f) * 0.001f);
 910              		.loc 4 106 68 discriminator 1 view .LVU261
 911 01fc 07EE905A 		vmov	s15, r5	@ int
 912 0200 FBEEEF7A 		vcvt.f32.u32	s15, s15, #1
 913 0204 66EEA76A 		vmul.f32	s13, s13, s15
 914              		.loc 4 107 27 discriminator 1 view .LVU262
 915 0208 C4ED244A 		vstr.32	s9, [r4, #144]
 106:Util/../Util/pitch_shifter.h ****             mod_coeff_[1] = 0.0002f + (((float)(myrand() % 255) / 255.0f) * 0.001f);
 916              		.loc 4 106 24 discriminator 1 view .LVU263
 917 020c C4ED1E6A 		vstr.32	s13, [r4, #120]
 918              		.loc 4 107 13 is_stmt 1 view .LVU264
 919              	.LBB304:
 920              	.LBI297:
  29:Util/../Util/pitch_shifter.h ****     static uint32_t seed = 1;
 921              		.loc 4 29 17 view .LVU265
 922              	.LBB303:
  30:Util/../Util/pitch_shifter.h ****     seed = hash_xs32(seed);
 923              		.loc 4 30 5 view .LVU266
  31:Util/../Util/pitch_shifter.h ****     return seed;
 924              		.loc 4 31 5 view .LVU267
 925              	.LVL46:
 926              	.LBB302:
 927              	.LBI299:
  22:Util/../Util/pitch_shifter.h ****     x ^= x << 13;
 928              		.loc 4 22 24 view .LVU268
 929              	.LBB301:
  23:Util/../Util/pitch_shifter.h ****     x ^= x >> 17;
 930              		.loc 4 23 5 view .LVU269
ARM GAS  /tmp/ccRb3mjQ.s 			page 34


  24:Util/../Util/pitch_shifter.h ****     x ^= x << 5;
 931              		.loc 4 24 5 view .LVU270
  25:Util/../Util/pitch_shifter.h ****     return x;
 932              		.loc 4 25 5 view .LVU271
  26:Util/../Util/pitch_shifter.h **** }
 933              		.loc 4 26 5 view .LVU272
  26:Util/../Util/pitch_shifter.h **** }
 934              		.loc 4 26 5 is_stmt 0 view .LVU273
 935              	.LBE301:
 936              	.LBE302:
  32:Util/../Util/pitch_shifter.h **** }
 937              		.loc 4 32 5 is_stmt 1 view .LVU274
 938              	.LBE303:
 939              	.LBE304:
 940 0210 44E0     		b	.L42
 941              	.LVL47:
 942              	.L93:
  93:Util/../Util/pitch_shifter.h ****         bool recalc_b_fun = ((transpose_ >= 0.f) && (prev_phs_b_ > fade2)) || ((transpose_ < 0.f) &
 943              		.loc 4 93 76 is_stmt 0 discriminator 4 view .LVU275
 944 0212 3BD5     		bpl	.L47
  93:Util/../Util/pitch_shifter.h ****         bool recalc_b_fun = ((transpose_ >= 0.f) && (prev_phs_b_ > fade2)) || ((transpose_ < 0.f) &
 945              		.loc 4 93 99 discriminator 5 view .LVU276
 946 0214 D4ED1F7A 		vldr.32	s15, [r4, #124]
  94:Util/../Util/pitch_shifter.h ****         // Randomly trigger mod recalc when tranpose is 0 so that the "fun"
 947              		.loc 4 94 54 discriminator 1 view .LVU277
 948 0218 D4ED206A 		vldr.32	s13, [r4, #128]
  93:Util/../Util/pitch_shifter.h ****         bool recalc_b_fun = ((transpose_ >= 0.f) && (prev_phs_b_ > fade2)) || ((transpose_ < 0.f) &
 949              		.loc 4 93 99 discriminator 5 view .LVU278
 950 021c B4EEE75A 		vcmpe.f32	s10, s15
 951 0220 F1EE10FA 		vmrs	APSR_nzcv, FPSCR
 952 0224 24DD     		ble	.L107
  94:Util/../Util/pitch_shifter.h ****         // Randomly trigger mod recalc when tranpose is 0 so that the "fun"
 953              		.loc 4 94 9 is_stmt 1 view .LVU279
  94:Util/../Util/pitch_shifter.h ****         // Randomly trigger mod recalc when tranpose is 0 so that the "fun"
 954              		.loc 4 94 99 is_stmt 0 discriminator 5 view .LVU280
 955 0226 B4EEE64A 		vcmpe.f32	s8, s13
  98:Util/../Util/pitch_shifter.h ****             if (myrand() % 65536 < 4)
 956              		.loc 4 98 28 discriminator 1 view .LVU281
 957 022a 94ED1C6A 		vldr.32	s12, [r4, #112]
  97:Util/../Util/pitch_shifter.h ****         if (rand_retrig && fun_ > 0.f)
 958              		.loc 4 97 50 view .LVU282
 959 022e FDEE007A 		vmov.f32	s15, #-2.5e-1
  94:Util/../Util/pitch_shifter.h ****         // Randomly trigger mod recalc when tranpose is 0 so that the "fun"
 960              		.loc 4 94 99 discriminator 5 view .LVU283
 961 0232 F1EE10FA 		vmrs	APSR_nzcv, FPSCR
  97:Util/../Util/pitch_shifter.h ****         if (rand_retrig && fun_ > 0.f)
 962              		.loc 4 97 50 view .LVU284
 963 0236 B4EEE77A 		vcmpe.f32	s14, s15
  94:Util/../Util/pitch_shifter.h ****         // Randomly trigger mod recalc when tranpose is 0 so that the "fun"
 964              		.loc 4 94 99 discriminator 5 view .LVU285
 965 023a 00F31A81 		bgt	.L54
 966              	.LVL48:
  97:Util/../Util/pitch_shifter.h ****         if (rand_retrig && fun_ > 0.f)
 967              		.loc 4 97 9 is_stmt 1 view .LVU286
  97:Util/../Util/pitch_shifter.h ****         if (rand_retrig && fun_ > 0.f)
 968              		.loc 4 97 50 is_stmt 0 view .LVU287
 969 023e F1EE10FA 		vmrs	APSR_nzcv, FPSCR
ARM GAS  /tmp/ccRb3mjQ.s 			page 35


 970 0242 80F2FC80 		bge	.L60
 971              	.L100:
 972              	.LVL49:
 101:Util/../Util/pitch_shifter.h ****             mod_a_amt_ = fun_ * ((float)(myrand() % 255) / 255.0f) * (del_size_ * 0.5f);
 973              		.loc 4 101 9 is_stmt 1 view .LVU288
 974              	.LBB305:
 975              	.LBB245:
  31:Util/../Util/pitch_shifter.h ****     return seed;
 976              		.loc 4 31 21 is_stmt 0 view .LVU289
 977 0246 0349     		ldr	r1, .L109+4
 978 0248 0020     		movs	r0, #0
 979              	.LVL50:
  31:Util/../Util/pitch_shifter.h ****     return seed;
 980              		.loc 4 31 21 view .LVU290
 981 024a 0B68     		ldr	r3, [r1]
 982 024c 64E7     		b	.L56
 983              	.L110:
 984 024e 00BF     		.align	2
 985              	.L109:
 986 0250 DB0FC940 		.word	1086918619
 987 0254 00000000 		.word	_ZZN16daisysp_modified6myrandEvE4seed
 988 0258 81808080 		.word	-2139062143
 989 025c 00007F43 		.word	1132396544
 990 0260 6F12833A 		.word	981668463
 991 0264 17B75139 		.word	961656599
 992 0268 DB0F4940 		.word	1078530011
 993 026c 00000000 		.word	0
 994              	.LVL51:
 995              	.L107:
  31:Util/../Util/pitch_shifter.h ****     return seed;
 996              		.loc 4 31 21 view .LVU291
 997              	.LBE245:
 998              	.LBE305:
  94:Util/../Util/pitch_shifter.h ****         // Randomly trigger mod recalc when tranpose is 0 so that the "fun"
 999              		.loc 4 94 99 discriminator 5 view .LVU292
 1000 0270 B4EEE64A 		vcmpe.f32	s8, s13
  97:Util/../Util/pitch_shifter.h ****         if (rand_retrig && fun_ > 0.f)
 1001              		.loc 4 97 50 view .LVU293
 1002 0274 FDEE007A 		vmov.f32	s15, #-2.5e-1
  94:Util/../Util/pitch_shifter.h ****         // Randomly trigger mod recalc when tranpose is 0 so that the "fun"
 1003              		.loc 4 94 99 discriminator 5 view .LVU294
 1004 0278 F1EE10FA 		vmrs	APSR_nzcv, FPSCR
  97:Util/../Util/pitch_shifter.h ****         if (rand_retrig && fun_ > 0.f)
 1005              		.loc 4 97 50 view .LVU295
 1006 027c B4EEE77A 		vcmpe.f32	s14, s15
  94:Util/../Util/pitch_shifter.h ****         // Randomly trigger mod recalc when tranpose is 0 so that the "fun"
 1007              		.loc 4 94 99 discriminator 5 view .LVU296
 1008 0280 00F3FF80 		bgt	.L50
 1009              	.LVL52:
  97:Util/../Util/pitch_shifter.h ****         if (rand_retrig && fun_ > 0.f)
 1010              		.loc 4 97 9 is_stmt 1 view .LVU297
  97:Util/../Util/pitch_shifter.h ****         if (rand_retrig && fun_ > 0.f)
 1011              		.loc 4 97 50 is_stmt 0 view .LVU298
 1012 0284 F1EE10FA 		vmrs	APSR_nzcv, FPSCR
 1013 0288 BFF62EAF 		bge	.L46
 1014              	.LVL53:
 1015              	.L47:
ARM GAS  /tmp/ccRb3mjQ.s 			page 36


 108:Util/../Util/pitch_shifter.h ****         }
 109:Util/../Util/pitch_shifter.h ****         slewed_mod_[0] += mod_coeff_[0] * (mod_a_amt_ - slewed_mod_[0]);
 1016              		.loc 4 109 39 view .LVU299
 1017 028c D4ED233A 		vldr.32	s7, [r4, #140]
 1018              		.loc 4 109 44 view .LVU300
 1019 0290 94ED1D7A 		vldr.32	s14, [r4, #116]
 110:Util/../Util/pitch_shifter.h ****         slewed_mod_[1] += mod_coeff_[1] * (mod_b_amt_ - slewed_mod_[1]);
 1020              		.loc 4 110 39 view .LVU301
 1021 0294 D4ED244A 		vldr.32	s9, [r4, #144]
 1022              		.loc 4 110 44 view .LVU302
 1023 0298 D4ED1E6A 		vldr.32	s13, [r4, #120]
 1024              	.LVL54:
 1025              	.L42:
 109:Util/../Util/pitch_shifter.h ****         slewed_mod_[1] += mod_coeff_[1] * (mod_b_amt_ - slewed_mod_[1]);
 1026              		.loc 4 109 9 is_stmt 1 view .LVU303
 109:Util/../Util/pitch_shifter.h ****         slewed_mod_[1] += mod_coeff_[1] * (mod_b_amt_ - slewed_mod_[1]);
 1027              		.loc 4 109 22 is_stmt 0 view .LVU304
 1028 029c D4ED215A 		vldr.32	s11, [r4, #132]
 111:Util/../Util/pitch_shifter.h ****         prev_phs_a_ = fade1;
 112:Util/../Util/pitch_shifter.h ****         prev_phs_b_ = fade2;
 113:Util/../Util/pitch_shifter.h ****         fade1 = 1.0f - fade1;
 114:Util/../Util/pitch_shifter.h ****         fade2 = 1.0f - fade2;
 115:Util/../Util/pitch_shifter.h ****         mod_[0] = fade1 * (del_size_ - 1);
 1029              		.loc 4 115 38 view .LVU305
 1030 02a0 6B1E     		subs	r3, r5, #1
 110:Util/../Util/pitch_shifter.h ****         prev_phs_a_ = fade1;
 1031              		.loc 4 110 22 view .LVU306
 1032 02a2 94ED226A 		vldr.32	s12, [r4, #136]
 113:Util/../Util/pitch_shifter.h ****         fade2 = 1.0f - fade2;
 1033              		.loc 4 113 15 view .LVU307
 1034 02a6 B7EE008A 		vmov.f32	s16, #1.0e+0
 109:Util/../Util/pitch_shifter.h ****         slewed_mod_[1] += mod_coeff_[1] * (mod_b_amt_ - slewed_mod_[1]);
 1035              		.loc 4 109 55 view .LVU308
 1036 02aa 37EE657A 		vsub.f32	s14, s14, s11
 1037              		.loc 4 115 38 view .LVU309
 1038 02ae 07EE903A 		vmov	s15, r3	@ int
 110:Util/../Util/pitch_shifter.h ****         prev_phs_a_ = fade1;
 1039              		.loc 4 110 55 view .LVU310
 1040 02b2 76EEC66A 		vsub.f32	s13, s13, s12
 116:Util/../Util/pitch_shifter.h ****         mod_[1] = fade2 * (del_size_ - 1);
 117:Util/../Util/pitch_shifter.h **** #ifdef USE_ARM_DSP
 118:Util/../Util/pitch_shifter.h ****         gain_[0] = arm_sin_f32(fade1 * (float)M_PI);
 119:Util/../Util/pitch_shifter.h ****         gain_[1] = arm_sin_f32(fade2 * (float)M_PI);
 120:Util/../Util/pitch_shifter.h **** #else
 121:Util/../Util/pitch_shifter.h ****         gain_[0] = sinf(fade1 * PI_F);
 1041              		.loc 4 121 24 view .LVU311
 1042 02b6 1FED149A 		vldr.32	s18, .L109+24
 113:Util/../Util/pitch_shifter.h ****         fade2 = 1.0f - fade2;
 1043              		.loc 4 113 15 view .LVU312
 1044 02ba 38EE450A 		vsub.f32	s0, s16, s10
 1045              	.LVL55:
 111:Util/../Util/pitch_shifter.h ****         prev_phs_b_ = fade2;
 1046              		.loc 4 111 21 view .LVU313
 1047 02be 84ED1F5A 		vstr.32	s10, [r4, #124]
 109:Util/../Util/pitch_shifter.h ****         slewed_mod_[1] += mod_coeff_[1] * (mod_b_amt_ - slewed_mod_[1]);
 1048              		.loc 4 109 24 view .LVU314
 1049 02c2 E7EE235A 		vfma.f32	s11, s14, s7
ARM GAS  /tmp/ccRb3mjQ.s 			page 37


 112:Util/../Util/pitch_shifter.h ****         fade1 = 1.0f - fade1;
 1050              		.loc 4 112 21 view .LVU315
 1051 02c6 84ED204A 		vstr.32	s8, [r4, #128]
 110:Util/../Util/pitch_shifter.h ****         prev_phs_a_ = fade1;
 1052              		.loc 4 110 24 view .LVU316
 1053 02ca A6EEA46A 		vfma.f32	s12, s13, s9
 114:Util/../Util/pitch_shifter.h ****         mod_[0] = fade1 * (del_size_ - 1);
 1054              		.loc 4 114 15 view .LVU317
 1055 02ce 38EE448A 		vsub.f32	s16, s16, s8
 115:Util/../Util/pitch_shifter.h ****         mod_[1] = fade2 * (del_size_ - 1);
 1056              		.loc 4 115 25 view .LVU318
 1057 02d2 F8EE677A 		vcvt.f32.u32	s15, s15
 1058 02d6 27EE807A 		vmul.f32	s14, s15, s0
 109:Util/../Util/pitch_shifter.h ****         slewed_mod_[1] += mod_coeff_[1] * (mod_b_amt_ - slewed_mod_[1]);
 1059              		.loc 4 109 24 view .LVU319
 1060 02da C4ED215A 		vstr.32	s11, [r4, #132]
 116:Util/../Util/pitch_shifter.h **** #ifdef USE_ARM_DSP
 1061              		.loc 4 116 25 view .LVU320
 1062 02de 67EE887A 		vmul.f32	s15, s15, s16
 110:Util/../Util/pitch_shifter.h ****         prev_phs_a_ = fade1;
 1063              		.loc 4 110 9 is_stmt 1 view .LVU321
 110:Util/../Util/pitch_shifter.h ****         prev_phs_a_ = fade1;
 1064              		.loc 4 110 24 is_stmt 0 view .LVU322
 1065 02e2 84ED226A 		vstr.32	s12, [r4, #136]
 111:Util/../Util/pitch_shifter.h ****         prev_phs_b_ = fade2;
 1066              		.loc 4 111 9 is_stmt 1 view .LVU323
 112:Util/../Util/pitch_shifter.h ****         fade1 = 1.0f - fade1;
 1067              		.loc 4 112 9 view .LVU324
 113:Util/../Util/pitch_shifter.h ****         fade2 = 1.0f - fade2;
 1068              		.loc 4 113 9 view .LVU325
 1069              	.LVL56:
 114:Util/../Util/pitch_shifter.h ****         mod_[0] = fade1 * (del_size_ - 1);
 1070              		.loc 4 114 9 view .LVU326
 115:Util/../Util/pitch_shifter.h ****         mod_[1] = fade2 * (del_size_ - 1);
 1071              		.loc 4 115 9 view .LVU327
 116:Util/../Util/pitch_shifter.h **** #ifdef USE_ARM_DSP
 1072              		.loc 4 116 9 view .LVU328
 1073              		.loc 4 121 9 view .LVU329
 1074              		.loc 4 121 24 is_stmt 0 view .LVU330
 1075 02e6 20EE090A 		vmul.f32	s0, s0, s18
 1076              	.LVL57:
 115:Util/../Util/pitch_shifter.h ****         mod_[1] = fade2 * (del_size_ - 1);
 1077              		.loc 4 115 17 view .LVU331
 1078 02ea 84ED197A 		vstr.32	s14, [r4, #100]
 116:Util/../Util/pitch_shifter.h **** #ifdef USE_ARM_DSP
 1079              		.loc 4 116 17 view .LVU332
 1080 02ee C4ED1A7A 		vstr.32	s15, [r4, #104]
 1081              		.loc 4 121 24 view .LVU333
 1082 02f2 FFF7FEFF 		bl	sinf
 1083              	.LVL58:
 1084              		.loc 4 121 24 view .LVU334
 1085 02f6 F0EE407A 		vmov.f32	s15, s0
 122:Util/../Util/pitch_shifter.h ****         gain_[1] = sinf(fade2 * PI_F);
 1086              		.loc 4 122 24 view .LVU335
 1087 02fa 28EE090A 		vmul.f32	s0, s16, s18
 121:Util/../Util/pitch_shifter.h ****         gain_[1] = sinf(fade2 * PI_F);
 1088              		.loc 4 121 18 discriminator 1 view .LVU336
ARM GAS  /tmp/ccRb3mjQ.s 			page 38


 1089 02fe C4ED177A 		vstr.32	s15, [r4, #92]
 1090              		.loc 4 122 9 is_stmt 1 view .LVU337
 1091              		.loc 4 122 24 is_stmt 0 view .LVU338
 1092 0302 FFF7FEFF 		bl	sinf
 1093              	.LVL59:
 1094              	.LBB306:
 1095              	.LBB307:
 1096              		.file 7 "Util/../Util/RuntimeDelayLine.h"
   1:Util/../Util/RuntimeDelayLine.h **** // This is a modified version of delayline.h that makes it easier to use SDRAM
   2:Util/../Util/RuntimeDelayLine.h **** // for the buffer and allows for runtime allocation of the buffer size.
   3:Util/../Util/RuntimeDelayLine.h **** 
   4:Util/../Util/RuntimeDelayLine.h **** /*
   5:Util/../Util/RuntimeDelayLine.h **** Copyright (c) 2020 Electrosmith, Corp
   6:Util/../Util/RuntimeDelayLine.h **** 
   7:Util/../Util/RuntimeDelayLine.h **** Use of this source code is governed by an MIT-style
   8:Util/../Util/RuntimeDelayLine.h **** license that can be found in the LICENSE file or at
   9:Util/../Util/RuntimeDelayLine.h **** https://opensource.org/licenses/MIT.
  10:Util/../Util/RuntimeDelayLine.h **** */
  11:Util/../Util/RuntimeDelayLine.h **** 
  12:Util/../Util/RuntimeDelayLine.h **** #pragma once
  13:Util/../Util/RuntimeDelayLine.h **** #ifndef DSY_RUNTIME_DELAY_H
  14:Util/../Util/RuntimeDelayLine.h **** #define DSY_RUNTIME_DELAY_H
  15:Util/../Util/RuntimeDelayLine.h **** #include <algorithm>
  16:Util/../Util/RuntimeDelayLine.h **** #include <cstdint>
  17:Util/../Util/RuntimeDelayLine.h **** 
  18:Util/../Util/RuntimeDelayLine.h **** namespace daisysp_modified {
  19:Util/../Util/RuntimeDelayLine.h **** 
  20:Util/../Util/RuntimeDelayLine.h **** template <typename T> class DelayLine {
  21:Util/../Util/RuntimeDelayLine.h ****   public:
  22:Util/../Util/RuntimeDelayLine.h ****     DelayLine() : buffer_(nullptr), size_(0), write_ptr_(0), delay_(1), frac_(0.f) {}
  23:Util/../Util/RuntimeDelayLine.h **** 
  24:Util/../Util/RuntimeDelayLine.h ****     void Init(T *buffer, size_t size) {
  25:Util/../Util/RuntimeDelayLine.h ****         buffer_ = buffer;
  26:Util/../Util/RuntimeDelayLine.h ****         size_ = size;
  27:Util/../Util/RuntimeDelayLine.h ****         Reset();
  28:Util/../Util/RuntimeDelayLine.h ****     }
  29:Util/../Util/RuntimeDelayLine.h **** 
  30:Util/../Util/RuntimeDelayLine.h ****     void Reset() {
  31:Util/../Util/RuntimeDelayLine.h ****         for (size_t i = 0; i < size_; ++i)
  32:Util/../Util/RuntimeDelayLine.h ****             buffer_[i] = T(0);
  33:Util/../Util/RuntimeDelayLine.h ****         write_ptr_ = 0;
  34:Util/../Util/RuntimeDelayLine.h ****         delay_ = 1;
  35:Util/../Util/RuntimeDelayLine.h ****         frac_ = 0.f;
  36:Util/../Util/RuntimeDelayLine.h ****     }
  37:Util/../Util/RuntimeDelayLine.h **** 
  38:Util/../Util/RuntimeDelayLine.h ****     void SetDelay(size_t delay) {
  39:Util/../Util/RuntimeDelayLine.h ****         delay_ = (delay < size_) ? delay : size_ - 1;
  40:Util/../Util/RuntimeDelayLine.h ****         frac_ = 0.f;
  41:Util/../Util/RuntimeDelayLine.h ****     }
  42:Util/../Util/RuntimeDelayLine.h **** 
  43:Util/../Util/RuntimeDelayLine.h ****     void SetDelay(float delay) {
  44:Util/../Util/RuntimeDelayLine.h ****         int32_t int_delay = static_cast<int32_t>(delay);
  45:Util/../Util/RuntimeDelayLine.h ****         frac_ = delay - static_cast<float>(int_delay);
  46:Util/../Util/RuntimeDelayLine.h ****         size_t safe_delay = static_cast<size_t>(std::max(int_delay, int32_t(0)));
  47:Util/../Util/RuntimeDelayLine.h ****         delay_ = (safe_delay < size_) ? safe_delay : size_ - 1;
  48:Util/../Util/RuntimeDelayLine.h ****     }
  49:Util/../Util/RuntimeDelayLine.h **** 
ARM GAS  /tmp/ccRb3mjQ.s 			page 39


  50:Util/../Util/RuntimeDelayLine.h ****     void Write(const T sample) {
  51:Util/../Util/RuntimeDelayLine.h ****         buffer_[write_ptr_] = sample;
 1097              		.loc 7 51 9 view .LVU339
 1098 0306 D4F800E0 		ldr	lr, [r4]
 1099              	.LBE307:
 1100              	.LBE306:
 1101              	.LBB311:
 1102              	.LBB312:
 1103 030a D4F814C0 		ldr	ip, [r4, #20]
 1104              	.LBE312:
 1105              	.LBE311:
 1106              		.loc 4 122 18 discriminator 1 view .LVU340
 1107 030e 84ED180A 		vstr.32	s0, [r4, #96]
 123:Util/../Util/pitch_shifter.h **** #endif
 124:Util/../Util/pitch_shifter.h **** 
 125:Util/../Util/pitch_shifter.h ****         // Handle Delay Writing
 126:Util/../Util/pitch_shifter.h ****         d_[0].Write(in);
 1108              		.loc 4 126 9 is_stmt 1 view .LVU341
 1109              	.LVL60:
 1110              	.LBB319:
 1111              	.LBI306:
  50:Util/../Util/RuntimeDelayLine.h ****         buffer_[write_ptr_] = sample;
 1112              		.loc 7 50 10 view .LVU342
 1113              	.LBE319:
 1114              	.LBB320:
 1115              	.LBB313:
  52:Util/../Util/RuntimeDelayLine.h ****         write_ptr_ = (write_ptr_ - 1 + size_) % size_;
 1116              		.loc 7 52 40 is_stmt 0 view .LVU343
 1117 0312 A169     		ldr	r1, [r4, #24]
 1118              	.LBE313:
 1119              	.LBE320:
 1120              	.LBB321:
 1121              	.LBB308:
 1122 0314 D4E90105 		ldrd	r0, r5, [r4, #4]
  51:Util/../Util/RuntimeDelayLine.h ****         write_ptr_ = (write_ptr_ - 1 + size_) % size_;
 1123              		.loc 7 51 29 view .LVU344
 1124 0318 0EEB8503 		add	r3, lr, r5, lsl #2
 1125              		.loc 7 52 38 view .LVU345
 1126 031c 0544     		add	r5, r5, r0
 1127 031e 013D     		subs	r5, r5, #1
  51:Util/../Util/RuntimeDelayLine.h ****         write_ptr_ = (write_ptr_ - 1 + size_) % size_;
 1128              		.loc 7 51 29 view .LVU346
 1129 0320 C3ED008A 		vstr.32	s17, [r3]
 1130              	.LBE308:
 1131              	.LBE321:
 1132              	.LBB322:
 1133              	.LBB314:
  51:Util/../Util/RuntimeDelayLine.h ****         write_ptr_ = (write_ptr_ - 1 + size_) % size_;
 1134              		.loc 7 51 17 view .LVU347
 1135 0324 E369     		ldr	r3, [r4, #28]
 1136              	.LBE314:
 1137              	.LBE322:
 1138              	.LBB323:
 1139              	.LBB309:
 1140              		.loc 7 52 47 view .LVU348
 1141 0326 B5FBF0F2 		udiv	r2, r5, r0
 1142 032a 00FB1255 		mls	r5, r0, r2, r5
ARM GAS  /tmp/ccRb3mjQ.s 			page 40


 1143              	.LBE309:
 1144              	.LBE323:
 1145              	.LBB324:
 1146              	.LBB315:
  51:Util/../Util/RuntimeDelayLine.h ****         write_ptr_ = (write_ptr_ - 1 + size_) % size_;
 1147              		.loc 7 51 29 view .LVU349
 1148 032e 0CEB8302 		add	r2, ip, r3, lsl #2
 1149              		.loc 7 52 38 view .LVU350
 1150 0332 0B44     		add	r3, r3, r1
 1151              	.LBE315:
 1152              	.LBE324:
 1153              	.LBB325:
 1154              	.LBB310:
 1155              		.loc 7 52 20 view .LVU351
 1156 0334 A560     		str	r5, [r4, #8]
 1157              	.LVL61:
 1158              		.loc 7 52 20 view .LVU352
 1159              	.LBE310:
 1160              	.LBE325:
 127:Util/../Util/pitch_shifter.h ****         d_[1].Write(in);
 1161              		.loc 4 127 9 is_stmt 1 view .LVU353
 1162              	.LBB326:
 1163              	.LBI311:
  50:Util/../Util/RuntimeDelayLine.h ****         buffer_[write_ptr_] = sample;
 1164              		.loc 7 50 10 view .LVU354
 1165              	.LBB316:
  51:Util/../Util/RuntimeDelayLine.h ****         write_ptr_ = (write_ptr_ - 1 + size_) % size_;
 1166              		.loc 7 51 29 is_stmt 0 view .LVU355
 1167 0336 C2ED008A 		vstr.32	s17, [r2]
 1168              		.loc 7 52 38 view .LVU356
 1169 033a 013B     		subs	r3, r3, #1
 1170              	.LBE316:
 1171              	.LBE326:
 128:Util/../Util/pitch_shifter.h ****         // Modulate Delay Lines
 129:Util/../Util/pitch_shifter.h ****         // d_[0].SetDelay(mod_[0] + mod_a_amt_);
 130:Util/../Util/pitch_shifter.h ****         // d_[1].SetDelay(mod_[1] + mod_b_amt_);
 131:Util/../Util/pitch_shifter.h ****         d_[0].SetDelay(mod_[0] + slewed_mod_[0]);
 1172              		.loc 4 131 23 view .LVU357
 1173 033c D4ED217A 		vldr.32	s15, [r4, #132]
 1174 0340 94ED197A 		vldr.32	s14, [r4, #100]
 1175 0344 37EE277A 		vadd.f32	s14, s14, s15
 1176              	.LBB327:
 1177              	.LBB317:
 1178              		.loc 7 52 47 view .LVU358
 1179 0348 B3FBF1F6 		udiv	r6, r3, r1
 1180              	.LBE317:
 1181              	.LBE327:
 1182              	.LBB328:
 1183              	.LBB329:
  44:Util/../Util/RuntimeDelayLine.h ****         frac_ = delay - static_cast<float>(int_delay);
 1184              		.loc 7 44 29 view .LVU359
 1185 034c FDEEC77A 		vcvt.s32.f32	s15, s14
 1186              	.LBE329:
 1187              	.LBE328:
 1188              	.LBB340:
 1189              	.LBB318:
 1190              		.loc 7 52 47 view .LVU360
ARM GAS  /tmp/ccRb3mjQ.s 			page 41


 1191 0350 01FB1633 		mls	r3, r1, r6, r3
 1192              		.loc 7 52 20 view .LVU361
 1193 0354 E361     		str	r3, [r4, #28]
 1194              	.LBE318:
 1195              	.LBE340:
 1196              	.LBB341:
 1197              	.LBB334:
  45:Util/../Util/RuntimeDelayLine.h ****         size_t safe_delay = static_cast<size_t>(std::max(int_delay, int32_t(0)));
 1198              		.loc 7 45 25 view .LVU362
 1199 0356 F8EEE76A 		vcvt.f32.s32	s13, s15
 1200              	.LVL62:
  45:Util/../Util/RuntimeDelayLine.h ****         size_t safe_delay = static_cast<size_t>(std::max(int_delay, int32_t(0)));
 1201              		.loc 7 45 25 view .LVU363
 1202              	.LBE334:
 1203              	.LBE341:
 1204              		.loc 4 131 9 is_stmt 1 view .LVU364
 1205              	.LBB342:
 1206              	.LBI328:
  43:Util/../Util/RuntimeDelayLine.h ****         int32_t int_delay = static_cast<int32_t>(delay);
 1207              		.loc 7 43 10 view .LVU365
 1208              	.LBB335:
 1209              	.LBB330:
 1210              	.LBI330:
 1211              		.file 8 "/usr/arm-none-eabi/include/c++/15.2.0/bits/stl_algobase.h"
   1:/usr/arm-none-eabi/include/c++/15.2.0/bits/stl_algobase.h **** // Core algorithmic facilities -*- C++ -*-
   2:/usr/arm-none-eabi/include/c++/15.2.0/bits/stl_algobase.h **** 
   3:/usr/arm-none-eabi/include/c++/15.2.0/bits/stl_algobase.h **** // Copyright (C) 2001-2025 Free Software Foundation, Inc.
   4:/usr/arm-none-eabi/include/c++/15.2.0/bits/stl_algobase.h **** //
   5:/usr/arm-none-eabi/include/c++/15.2.0/bits/stl_algobase.h **** // This file is part of the GNU ISO C++ Library.  This library is free
   6:/usr/arm-none-eabi/include/c++/15.2.0/bits/stl_algobase.h **** // software; you can redistribute it and/or modify it under the
   7:/usr/arm-none-eabi/include/c++/15.2.0/bits/stl_algobase.h **** // terms of the GNU General Public License as published by the
   8:/usr/arm-none-eabi/include/c++/15.2.0/bits/stl_algobase.h **** // Free Software Foundation; either version 3, or (at your option)
   9:/usr/arm-none-eabi/include/c++/15.2.0/bits/stl_algobase.h **** // any later version.
  10:/usr/arm-none-eabi/include/c++/15.2.0/bits/stl_algobase.h **** 
  11:/usr/arm-none-eabi/include/c++/15.2.0/bits/stl_algobase.h **** // This library is distributed in the hope that it will be useful,
  12:/usr/arm-none-eabi/include/c++/15.2.0/bits/stl_algobase.h **** // but WITHOUT ANY WARRANTY; without even the implied warranty of
  13:/usr/arm-none-eabi/include/c++/15.2.0/bits/stl_algobase.h **** // MERCHANTABILITY or FITNESS FOR A PARTICULAR PURPOSE.  See the
  14:/usr/arm-none-eabi/include/c++/15.2.0/bits/stl_algobase.h **** // GNU General Public License for more details.
  15:/usr/arm-none-eabi/include/c++/15.2.0/bits/stl_algobase.h **** 
  16:/usr/arm-none-eabi/include/c++/15.2.0/bits/stl_algobase.h **** // Under Section 7 of GPL version 3, you are granted additional
  17:/usr/arm-none-eabi/include/c++/15.2.0/bits/stl_algobase.h **** // permissions described in the GCC Runtime Library Exception, version
  18:/usr/arm-none-eabi/include/c++/15.2.0/bits/stl_algobase.h **** // 3.1, as published by the Free Software Foundation.
  19:/usr/arm-none-eabi/include/c++/15.2.0/bits/stl_algobase.h **** 
  20:/usr/arm-none-eabi/include/c++/15.2.0/bits/stl_algobase.h **** // You should have received a copy of the GNU General Public License and
  21:/usr/arm-none-eabi/include/c++/15.2.0/bits/stl_algobase.h **** // a copy of the GCC Runtime Library Exception along with this program;
  22:/usr/arm-none-eabi/include/c++/15.2.0/bits/stl_algobase.h **** // see the files COPYING3 and COPYING.RUNTIME respectively.  If not, see
  23:/usr/arm-none-eabi/include/c++/15.2.0/bits/stl_algobase.h **** // <http://www.gnu.org/licenses/>.
  24:/usr/arm-none-eabi/include/c++/15.2.0/bits/stl_algobase.h **** 
  25:/usr/arm-none-eabi/include/c++/15.2.0/bits/stl_algobase.h **** /*
  26:/usr/arm-none-eabi/include/c++/15.2.0/bits/stl_algobase.h ****  *
  27:/usr/arm-none-eabi/include/c++/15.2.0/bits/stl_algobase.h ****  * Copyright (c) 1994
  28:/usr/arm-none-eabi/include/c++/15.2.0/bits/stl_algobase.h ****  * Hewlett-Packard Company
  29:/usr/arm-none-eabi/include/c++/15.2.0/bits/stl_algobase.h ****  *
  30:/usr/arm-none-eabi/include/c++/15.2.0/bits/stl_algobase.h ****  * Permission to use, copy, modify, distribute and sell this software
  31:/usr/arm-none-eabi/include/c++/15.2.0/bits/stl_algobase.h ****  * and its documentation for any purpose is hereby granted without fee,
  32:/usr/arm-none-eabi/include/c++/15.2.0/bits/stl_algobase.h ****  * provided that the above copyright notice appear in all copies and
  33:/usr/arm-none-eabi/include/c++/15.2.0/bits/stl_algobase.h ****  * that both that copyright notice and this permission notice appear
ARM GAS  /tmp/ccRb3mjQ.s 			page 42


  34:/usr/arm-none-eabi/include/c++/15.2.0/bits/stl_algobase.h ****  * in supporting documentation.  Hewlett-Packard Company makes no
  35:/usr/arm-none-eabi/include/c++/15.2.0/bits/stl_algobase.h ****  * representations about the suitability of this software for any
  36:/usr/arm-none-eabi/include/c++/15.2.0/bits/stl_algobase.h ****  * purpose.  It is provided "as is" without express or implied warranty.
  37:/usr/arm-none-eabi/include/c++/15.2.0/bits/stl_algobase.h ****  *
  38:/usr/arm-none-eabi/include/c++/15.2.0/bits/stl_algobase.h ****  *
  39:/usr/arm-none-eabi/include/c++/15.2.0/bits/stl_algobase.h ****  * Copyright (c) 1996-1998
  40:/usr/arm-none-eabi/include/c++/15.2.0/bits/stl_algobase.h ****  * Silicon Graphics Computer Systems, Inc.
  41:/usr/arm-none-eabi/include/c++/15.2.0/bits/stl_algobase.h ****  *
  42:/usr/arm-none-eabi/include/c++/15.2.0/bits/stl_algobase.h ****  * Permission to use, copy, modify, distribute and sell this software
  43:/usr/arm-none-eabi/include/c++/15.2.0/bits/stl_algobase.h ****  * and its documentation for any purpose is hereby granted without fee,
  44:/usr/arm-none-eabi/include/c++/15.2.0/bits/stl_algobase.h ****  * provided that the above copyright notice appear in all copies and
  45:/usr/arm-none-eabi/include/c++/15.2.0/bits/stl_algobase.h ****  * that both that copyright notice and this permission notice appear
  46:/usr/arm-none-eabi/include/c++/15.2.0/bits/stl_algobase.h ****  * in supporting documentation.  Silicon Graphics makes no
  47:/usr/arm-none-eabi/include/c++/15.2.0/bits/stl_algobase.h ****  * representations about the suitability of this software for any
  48:/usr/arm-none-eabi/include/c++/15.2.0/bits/stl_algobase.h ****  * purpose.  It is provided "as is" without express or implied warranty.
  49:/usr/arm-none-eabi/include/c++/15.2.0/bits/stl_algobase.h ****  */
  50:/usr/arm-none-eabi/include/c++/15.2.0/bits/stl_algobase.h **** 
  51:/usr/arm-none-eabi/include/c++/15.2.0/bits/stl_algobase.h **** /** @file bits/stl_algobase.h
  52:/usr/arm-none-eabi/include/c++/15.2.0/bits/stl_algobase.h ****  *  This is an internal header file, included by other library headers.
  53:/usr/arm-none-eabi/include/c++/15.2.0/bits/stl_algobase.h ****  *  Do not attempt to use it directly. @headername{algorithm}
  54:/usr/arm-none-eabi/include/c++/15.2.0/bits/stl_algobase.h ****  */
  55:/usr/arm-none-eabi/include/c++/15.2.0/bits/stl_algobase.h **** 
  56:/usr/arm-none-eabi/include/c++/15.2.0/bits/stl_algobase.h **** #ifndef _STL_ALGOBASE_H
  57:/usr/arm-none-eabi/include/c++/15.2.0/bits/stl_algobase.h **** #define _STL_ALGOBASE_H 1
  58:/usr/arm-none-eabi/include/c++/15.2.0/bits/stl_algobase.h **** 
  59:/usr/arm-none-eabi/include/c++/15.2.0/bits/stl_algobase.h **** #include <bits/c++config.h>
  60:/usr/arm-none-eabi/include/c++/15.2.0/bits/stl_algobase.h **** #include <bits/functexcept.h>
  61:/usr/arm-none-eabi/include/c++/15.2.0/bits/stl_algobase.h **** #include <bits/cpp_type_traits.h>
  62:/usr/arm-none-eabi/include/c++/15.2.0/bits/stl_algobase.h **** #include <ext/type_traits.h>
  63:/usr/arm-none-eabi/include/c++/15.2.0/bits/stl_algobase.h **** #include <ext/numeric_traits.h>
  64:/usr/arm-none-eabi/include/c++/15.2.0/bits/stl_algobase.h **** #include <bits/stl_pair.h>
  65:/usr/arm-none-eabi/include/c++/15.2.0/bits/stl_algobase.h **** #include <bits/stl_iterator_base_types.h>
  66:/usr/arm-none-eabi/include/c++/15.2.0/bits/stl_algobase.h **** #include <bits/stl_iterator_base_funcs.h>
  67:/usr/arm-none-eabi/include/c++/15.2.0/bits/stl_algobase.h **** #include <bits/stl_iterator.h>
  68:/usr/arm-none-eabi/include/c++/15.2.0/bits/stl_algobase.h **** #include <bits/concept_check.h>
  69:/usr/arm-none-eabi/include/c++/15.2.0/bits/stl_algobase.h **** #include <debug/debug.h>
  70:/usr/arm-none-eabi/include/c++/15.2.0/bits/stl_algobase.h **** #include <bits/move.h> // For std::swap
  71:/usr/arm-none-eabi/include/c++/15.2.0/bits/stl_algobase.h **** #include <bits/predefined_ops.h>
  72:/usr/arm-none-eabi/include/c++/15.2.0/bits/stl_algobase.h **** #if __cplusplus >= 201103L
  73:/usr/arm-none-eabi/include/c++/15.2.0/bits/stl_algobase.h **** # include <type_traits>
  74:/usr/arm-none-eabi/include/c++/15.2.0/bits/stl_algobase.h **** #endif
  75:/usr/arm-none-eabi/include/c++/15.2.0/bits/stl_algobase.h **** #if __cplusplus >= 201402L
  76:/usr/arm-none-eabi/include/c++/15.2.0/bits/stl_algobase.h **** # include <bit> // std::__bit_width
  77:/usr/arm-none-eabi/include/c++/15.2.0/bits/stl_algobase.h **** #endif
  78:/usr/arm-none-eabi/include/c++/15.2.0/bits/stl_algobase.h **** #if __cplusplus >= 202002L
  79:/usr/arm-none-eabi/include/c++/15.2.0/bits/stl_algobase.h **** # include <compare>
  80:/usr/arm-none-eabi/include/c++/15.2.0/bits/stl_algobase.h **** # include <bits/ptr_traits.h> // std::to_address
  81:/usr/arm-none-eabi/include/c++/15.2.0/bits/stl_algobase.h **** #endif
  82:/usr/arm-none-eabi/include/c++/15.2.0/bits/stl_algobase.h **** 
  83:/usr/arm-none-eabi/include/c++/15.2.0/bits/stl_algobase.h **** namespace std _GLIBCXX_VISIBILITY(default)
  84:/usr/arm-none-eabi/include/c++/15.2.0/bits/stl_algobase.h **** {
  85:/usr/arm-none-eabi/include/c++/15.2.0/bits/stl_algobase.h **** _GLIBCXX_BEGIN_NAMESPACE_VERSION
  86:/usr/arm-none-eabi/include/c++/15.2.0/bits/stl_algobase.h **** 
  87:/usr/arm-none-eabi/include/c++/15.2.0/bits/stl_algobase.h ****   /*
  88:/usr/arm-none-eabi/include/c++/15.2.0/bits/stl_algobase.h ****    * A constexpr wrapper for __builtin_memcmp.
  89:/usr/arm-none-eabi/include/c++/15.2.0/bits/stl_algobase.h ****    * @param __num The number of elements of type _Tp (not bytes).
  90:/usr/arm-none-eabi/include/c++/15.2.0/bits/stl_algobase.h ****    */
ARM GAS  /tmp/ccRb3mjQ.s 			page 43


  91:/usr/arm-none-eabi/include/c++/15.2.0/bits/stl_algobase.h ****   template<typename _Tp, typename _Up>
  92:/usr/arm-none-eabi/include/c++/15.2.0/bits/stl_algobase.h ****     _GLIBCXX14_CONSTEXPR
  93:/usr/arm-none-eabi/include/c++/15.2.0/bits/stl_algobase.h ****     inline int
  94:/usr/arm-none-eabi/include/c++/15.2.0/bits/stl_algobase.h ****     __memcmp(const _Tp* __first1, const _Up* __first2, size_t __num)
  95:/usr/arm-none-eabi/include/c++/15.2.0/bits/stl_algobase.h ****     {
  96:/usr/arm-none-eabi/include/c++/15.2.0/bits/stl_algobase.h **** #if __cplusplus >= 201103L
  97:/usr/arm-none-eabi/include/c++/15.2.0/bits/stl_algobase.h ****       static_assert(sizeof(_Tp) == sizeof(_Up), "can be compared with memcmp");
  98:/usr/arm-none-eabi/include/c++/15.2.0/bits/stl_algobase.h **** #endif
  99:/usr/arm-none-eabi/include/c++/15.2.0/bits/stl_algobase.h **** #ifdef __cpp_lib_is_constant_evaluated
 100:/usr/arm-none-eabi/include/c++/15.2.0/bits/stl_algobase.h ****       if (std::is_constant_evaluated())
 101:/usr/arm-none-eabi/include/c++/15.2.0/bits/stl_algobase.h **** 	{
 102:/usr/arm-none-eabi/include/c++/15.2.0/bits/stl_algobase.h **** 	  for(; __num > 0; ++__first1, ++__first2, --__num)
 103:/usr/arm-none-eabi/include/c++/15.2.0/bits/stl_algobase.h **** 	    if (*__first1 != *__first2)
 104:/usr/arm-none-eabi/include/c++/15.2.0/bits/stl_algobase.h **** 	      return *__first1 < *__first2 ? -1 : 1;
 105:/usr/arm-none-eabi/include/c++/15.2.0/bits/stl_algobase.h **** 	  return 0;
 106:/usr/arm-none-eabi/include/c++/15.2.0/bits/stl_algobase.h **** 	}
 107:/usr/arm-none-eabi/include/c++/15.2.0/bits/stl_algobase.h ****       else
 108:/usr/arm-none-eabi/include/c++/15.2.0/bits/stl_algobase.h **** #endif
 109:/usr/arm-none-eabi/include/c++/15.2.0/bits/stl_algobase.h **** 	return __builtin_memcmp(__first1, __first2, sizeof(_Tp) * __num);
 110:/usr/arm-none-eabi/include/c++/15.2.0/bits/stl_algobase.h ****     }
 111:/usr/arm-none-eabi/include/c++/15.2.0/bits/stl_algobase.h **** 
 112:/usr/arm-none-eabi/include/c++/15.2.0/bits/stl_algobase.h **** #if __cplusplus < 201103L
 113:/usr/arm-none-eabi/include/c++/15.2.0/bits/stl_algobase.h ****   // See http://gcc.gnu.org/ml/libstdc++/2004-08/msg00167.html: in a
 114:/usr/arm-none-eabi/include/c++/15.2.0/bits/stl_algobase.h ****   // nutshell, we are partially implementing the resolution of DR 187,
 115:/usr/arm-none-eabi/include/c++/15.2.0/bits/stl_algobase.h ****   // when it's safe, i.e., the value_types are equal.
 116:/usr/arm-none-eabi/include/c++/15.2.0/bits/stl_algobase.h ****   template<bool _BoolType>
 117:/usr/arm-none-eabi/include/c++/15.2.0/bits/stl_algobase.h ****     struct __iter_swap
 118:/usr/arm-none-eabi/include/c++/15.2.0/bits/stl_algobase.h ****     {
 119:/usr/arm-none-eabi/include/c++/15.2.0/bits/stl_algobase.h ****       template<typename _ForwardIterator1, typename _ForwardIterator2>
 120:/usr/arm-none-eabi/include/c++/15.2.0/bits/stl_algobase.h **** 	static void
 121:/usr/arm-none-eabi/include/c++/15.2.0/bits/stl_algobase.h **** 	iter_swap(_ForwardIterator1 __a, _ForwardIterator2 __b)
 122:/usr/arm-none-eabi/include/c++/15.2.0/bits/stl_algobase.h **** 	{
 123:/usr/arm-none-eabi/include/c++/15.2.0/bits/stl_algobase.h **** 	  typedef typename iterator_traits<_ForwardIterator1>::value_type
 124:/usr/arm-none-eabi/include/c++/15.2.0/bits/stl_algobase.h **** 	    _ValueType1;
 125:/usr/arm-none-eabi/include/c++/15.2.0/bits/stl_algobase.h **** 	  _ValueType1 __tmp = *__a;
 126:/usr/arm-none-eabi/include/c++/15.2.0/bits/stl_algobase.h **** 	  *__a = *__b;
 127:/usr/arm-none-eabi/include/c++/15.2.0/bits/stl_algobase.h **** 	  *__b = __tmp;
 128:/usr/arm-none-eabi/include/c++/15.2.0/bits/stl_algobase.h **** 	}
 129:/usr/arm-none-eabi/include/c++/15.2.0/bits/stl_algobase.h ****     };
 130:/usr/arm-none-eabi/include/c++/15.2.0/bits/stl_algobase.h **** 
 131:/usr/arm-none-eabi/include/c++/15.2.0/bits/stl_algobase.h ****   template<>
 132:/usr/arm-none-eabi/include/c++/15.2.0/bits/stl_algobase.h ****     struct __iter_swap<true>
 133:/usr/arm-none-eabi/include/c++/15.2.0/bits/stl_algobase.h ****     {
 134:/usr/arm-none-eabi/include/c++/15.2.0/bits/stl_algobase.h ****       template<typename _ForwardIterator1, typename _ForwardIterator2>
 135:/usr/arm-none-eabi/include/c++/15.2.0/bits/stl_algobase.h **** 	static void
 136:/usr/arm-none-eabi/include/c++/15.2.0/bits/stl_algobase.h **** 	iter_swap(_ForwardIterator1 __a, _ForwardIterator2 __b)
 137:/usr/arm-none-eabi/include/c++/15.2.0/bits/stl_algobase.h **** 	{
 138:/usr/arm-none-eabi/include/c++/15.2.0/bits/stl_algobase.h **** 	  swap(*__a, *__b);
 139:/usr/arm-none-eabi/include/c++/15.2.0/bits/stl_algobase.h **** 	}
 140:/usr/arm-none-eabi/include/c++/15.2.0/bits/stl_algobase.h ****     };
 141:/usr/arm-none-eabi/include/c++/15.2.0/bits/stl_algobase.h **** #endif // C++03
 142:/usr/arm-none-eabi/include/c++/15.2.0/bits/stl_algobase.h **** 
 143:/usr/arm-none-eabi/include/c++/15.2.0/bits/stl_algobase.h ****   /**
 144:/usr/arm-none-eabi/include/c++/15.2.0/bits/stl_algobase.h ****    *  @brief Swaps the contents of two iterators.
 145:/usr/arm-none-eabi/include/c++/15.2.0/bits/stl_algobase.h ****    *  @ingroup mutating_algorithms
 146:/usr/arm-none-eabi/include/c++/15.2.0/bits/stl_algobase.h ****    *  @param  __a  An iterator.
 147:/usr/arm-none-eabi/include/c++/15.2.0/bits/stl_algobase.h ****    *  @param  __b  Another iterator.
ARM GAS  /tmp/ccRb3mjQ.s 			page 44


 148:/usr/arm-none-eabi/include/c++/15.2.0/bits/stl_algobase.h ****    *  @return   Nothing.
 149:/usr/arm-none-eabi/include/c++/15.2.0/bits/stl_algobase.h ****    *
 150:/usr/arm-none-eabi/include/c++/15.2.0/bits/stl_algobase.h ****    *  This function swaps the values pointed to by two iterators, not the
 151:/usr/arm-none-eabi/include/c++/15.2.0/bits/stl_algobase.h ****    *  iterators themselves.
 152:/usr/arm-none-eabi/include/c++/15.2.0/bits/stl_algobase.h ****   */
 153:/usr/arm-none-eabi/include/c++/15.2.0/bits/stl_algobase.h ****   template<typename _ForwardIterator1, typename _ForwardIterator2>
 154:/usr/arm-none-eabi/include/c++/15.2.0/bits/stl_algobase.h ****     _GLIBCXX20_CONSTEXPR
 155:/usr/arm-none-eabi/include/c++/15.2.0/bits/stl_algobase.h ****     inline void
 156:/usr/arm-none-eabi/include/c++/15.2.0/bits/stl_algobase.h ****     iter_swap(_ForwardIterator1 __a, _ForwardIterator2 __b)
 157:/usr/arm-none-eabi/include/c++/15.2.0/bits/stl_algobase.h ****     {
 158:/usr/arm-none-eabi/include/c++/15.2.0/bits/stl_algobase.h ****       // concept requirements
 159:/usr/arm-none-eabi/include/c++/15.2.0/bits/stl_algobase.h ****       __glibcxx_function_requires(_Mutable_ForwardIteratorConcept<
 160:/usr/arm-none-eabi/include/c++/15.2.0/bits/stl_algobase.h **** 				  _ForwardIterator1>)
 161:/usr/arm-none-eabi/include/c++/15.2.0/bits/stl_algobase.h ****       __glibcxx_function_requires(_Mutable_ForwardIteratorConcept<
 162:/usr/arm-none-eabi/include/c++/15.2.0/bits/stl_algobase.h **** 				  _ForwardIterator2>)
 163:/usr/arm-none-eabi/include/c++/15.2.0/bits/stl_algobase.h **** 
 164:/usr/arm-none-eabi/include/c++/15.2.0/bits/stl_algobase.h **** #if __cplusplus < 201103L
 165:/usr/arm-none-eabi/include/c++/15.2.0/bits/stl_algobase.h ****       typedef typename iterator_traits<_ForwardIterator1>::value_type
 166:/usr/arm-none-eabi/include/c++/15.2.0/bits/stl_algobase.h **** 	_ValueType1;
 167:/usr/arm-none-eabi/include/c++/15.2.0/bits/stl_algobase.h ****       typedef typename iterator_traits<_ForwardIterator2>::value_type
 168:/usr/arm-none-eabi/include/c++/15.2.0/bits/stl_algobase.h **** 	_ValueType2;
 169:/usr/arm-none-eabi/include/c++/15.2.0/bits/stl_algobase.h **** 
 170:/usr/arm-none-eabi/include/c++/15.2.0/bits/stl_algobase.h ****       __glibcxx_function_requires(_ConvertibleConcept<_ValueType1,
 171:/usr/arm-none-eabi/include/c++/15.2.0/bits/stl_algobase.h **** 				  _ValueType2>)
 172:/usr/arm-none-eabi/include/c++/15.2.0/bits/stl_algobase.h ****       __glibcxx_function_requires(_ConvertibleConcept<_ValueType2,
 173:/usr/arm-none-eabi/include/c++/15.2.0/bits/stl_algobase.h **** 				  _ValueType1>)
 174:/usr/arm-none-eabi/include/c++/15.2.0/bits/stl_algobase.h **** 
 175:/usr/arm-none-eabi/include/c++/15.2.0/bits/stl_algobase.h ****       typedef typename iterator_traits<_ForwardIterator1>::reference
 176:/usr/arm-none-eabi/include/c++/15.2.0/bits/stl_algobase.h **** 	_ReferenceType1;
 177:/usr/arm-none-eabi/include/c++/15.2.0/bits/stl_algobase.h ****       typedef typename iterator_traits<_ForwardIterator2>::reference
 178:/usr/arm-none-eabi/include/c++/15.2.0/bits/stl_algobase.h **** 	_ReferenceType2;
 179:/usr/arm-none-eabi/include/c++/15.2.0/bits/stl_algobase.h ****       std::__iter_swap<__are_same<_ValueType1, _ValueType2>::__value
 180:/usr/arm-none-eabi/include/c++/15.2.0/bits/stl_algobase.h **** 	&& __are_same<_ValueType1&, _ReferenceType1>::__value
 181:/usr/arm-none-eabi/include/c++/15.2.0/bits/stl_algobase.h **** 	&& __are_same<_ValueType2&, _ReferenceType2>::__value>::
 182:/usr/arm-none-eabi/include/c++/15.2.0/bits/stl_algobase.h **** 	iter_swap(__a, __b);
 183:/usr/arm-none-eabi/include/c++/15.2.0/bits/stl_algobase.h **** #else
 184:/usr/arm-none-eabi/include/c++/15.2.0/bits/stl_algobase.h ****       // _GLIBCXX_RESOLVE_LIB_DEFECTS
 185:/usr/arm-none-eabi/include/c++/15.2.0/bits/stl_algobase.h ****       // 187. iter_swap underspecified
 186:/usr/arm-none-eabi/include/c++/15.2.0/bits/stl_algobase.h ****       swap(*__a, *__b);
 187:/usr/arm-none-eabi/include/c++/15.2.0/bits/stl_algobase.h **** #endif
 188:/usr/arm-none-eabi/include/c++/15.2.0/bits/stl_algobase.h ****     }
 189:/usr/arm-none-eabi/include/c++/15.2.0/bits/stl_algobase.h **** 
 190:/usr/arm-none-eabi/include/c++/15.2.0/bits/stl_algobase.h ****   /**
 191:/usr/arm-none-eabi/include/c++/15.2.0/bits/stl_algobase.h ****    *  @brief Swap the elements of two sequences.
 192:/usr/arm-none-eabi/include/c++/15.2.0/bits/stl_algobase.h ****    *  @ingroup mutating_algorithms
 193:/usr/arm-none-eabi/include/c++/15.2.0/bits/stl_algobase.h ****    *  @param  __first1  A forward iterator.
 194:/usr/arm-none-eabi/include/c++/15.2.0/bits/stl_algobase.h ****    *  @param  __last1   A forward iterator.
 195:/usr/arm-none-eabi/include/c++/15.2.0/bits/stl_algobase.h ****    *  @param  __first2  A forward iterator.
 196:/usr/arm-none-eabi/include/c++/15.2.0/bits/stl_algobase.h ****    *  @return   An iterator equal to @p first2+(last1-first1).
 197:/usr/arm-none-eabi/include/c++/15.2.0/bits/stl_algobase.h ****    *
 198:/usr/arm-none-eabi/include/c++/15.2.0/bits/stl_algobase.h ****    *  Swaps each element in the range @p [first1,last1) with the
 199:/usr/arm-none-eabi/include/c++/15.2.0/bits/stl_algobase.h ****    *  corresponding element in the range @p [first2,(last1-first1)).
 200:/usr/arm-none-eabi/include/c++/15.2.0/bits/stl_algobase.h ****    *  The ranges must not overlap.
 201:/usr/arm-none-eabi/include/c++/15.2.0/bits/stl_algobase.h ****   */
 202:/usr/arm-none-eabi/include/c++/15.2.0/bits/stl_algobase.h ****   template<typename _ForwardIterator1, typename _ForwardIterator2>
 203:/usr/arm-none-eabi/include/c++/15.2.0/bits/stl_algobase.h ****     _GLIBCXX20_CONSTEXPR
 204:/usr/arm-none-eabi/include/c++/15.2.0/bits/stl_algobase.h ****     _ForwardIterator2
ARM GAS  /tmp/ccRb3mjQ.s 			page 45


 205:/usr/arm-none-eabi/include/c++/15.2.0/bits/stl_algobase.h ****     swap_ranges(_ForwardIterator1 __first1, _ForwardIterator1 __last1,
 206:/usr/arm-none-eabi/include/c++/15.2.0/bits/stl_algobase.h **** 		_ForwardIterator2 __first2)
 207:/usr/arm-none-eabi/include/c++/15.2.0/bits/stl_algobase.h ****     {
 208:/usr/arm-none-eabi/include/c++/15.2.0/bits/stl_algobase.h ****       // concept requirements
 209:/usr/arm-none-eabi/include/c++/15.2.0/bits/stl_algobase.h ****       __glibcxx_function_requires(_Mutable_ForwardIteratorConcept<
 210:/usr/arm-none-eabi/include/c++/15.2.0/bits/stl_algobase.h **** 				  _ForwardIterator1>)
 211:/usr/arm-none-eabi/include/c++/15.2.0/bits/stl_algobase.h ****       __glibcxx_function_requires(_Mutable_ForwardIteratorConcept<
 212:/usr/arm-none-eabi/include/c++/15.2.0/bits/stl_algobase.h **** 				  _ForwardIterator2>)
 213:/usr/arm-none-eabi/include/c++/15.2.0/bits/stl_algobase.h ****       __glibcxx_requires_valid_range(__first1, __last1);
 214:/usr/arm-none-eabi/include/c++/15.2.0/bits/stl_algobase.h **** 
 215:/usr/arm-none-eabi/include/c++/15.2.0/bits/stl_algobase.h ****       for (; __first1 != __last1; ++__first1, (void)++__first2)
 216:/usr/arm-none-eabi/include/c++/15.2.0/bits/stl_algobase.h **** 	std::iter_swap(__first1, __first2);
 217:/usr/arm-none-eabi/include/c++/15.2.0/bits/stl_algobase.h ****       return __first2;
 218:/usr/arm-none-eabi/include/c++/15.2.0/bits/stl_algobase.h ****     }
 219:/usr/arm-none-eabi/include/c++/15.2.0/bits/stl_algobase.h **** 
 220:/usr/arm-none-eabi/include/c++/15.2.0/bits/stl_algobase.h ****   /**
 221:/usr/arm-none-eabi/include/c++/15.2.0/bits/stl_algobase.h ****    *  @brief This does what you think it does.
 222:/usr/arm-none-eabi/include/c++/15.2.0/bits/stl_algobase.h ****    *  @ingroup sorting_algorithms
 223:/usr/arm-none-eabi/include/c++/15.2.0/bits/stl_algobase.h ****    *  @param  __a  A thing of arbitrary type.
 224:/usr/arm-none-eabi/include/c++/15.2.0/bits/stl_algobase.h ****    *  @param  __b  Another thing of arbitrary type.
 225:/usr/arm-none-eabi/include/c++/15.2.0/bits/stl_algobase.h ****    *  @return   The lesser of the parameters.
 226:/usr/arm-none-eabi/include/c++/15.2.0/bits/stl_algobase.h ****    *
 227:/usr/arm-none-eabi/include/c++/15.2.0/bits/stl_algobase.h ****    *  This is the simple classic generic implementation.  It will work on
 228:/usr/arm-none-eabi/include/c++/15.2.0/bits/stl_algobase.h ****    *  temporary expressions, since they are only evaluated once, unlike a
 229:/usr/arm-none-eabi/include/c++/15.2.0/bits/stl_algobase.h ****    *  preprocessor macro.
 230:/usr/arm-none-eabi/include/c++/15.2.0/bits/stl_algobase.h ****   */
 231:/usr/arm-none-eabi/include/c++/15.2.0/bits/stl_algobase.h ****   template<typename _Tp>
 232:/usr/arm-none-eabi/include/c++/15.2.0/bits/stl_algobase.h ****     _GLIBCXX_NODISCARD _GLIBCXX14_CONSTEXPR
 233:/usr/arm-none-eabi/include/c++/15.2.0/bits/stl_algobase.h ****     inline const _Tp&
 234:/usr/arm-none-eabi/include/c++/15.2.0/bits/stl_algobase.h ****     min(const _Tp& __a, const _Tp& __b)
 235:/usr/arm-none-eabi/include/c++/15.2.0/bits/stl_algobase.h ****     {
 236:/usr/arm-none-eabi/include/c++/15.2.0/bits/stl_algobase.h ****       // concept requirements
 237:/usr/arm-none-eabi/include/c++/15.2.0/bits/stl_algobase.h ****       __glibcxx_function_requires(_LessThanComparableConcept<_Tp>)
 238:/usr/arm-none-eabi/include/c++/15.2.0/bits/stl_algobase.h ****       //return __b < __a ? __b : __a;
 239:/usr/arm-none-eabi/include/c++/15.2.0/bits/stl_algobase.h ****       if (__b < __a)
 240:/usr/arm-none-eabi/include/c++/15.2.0/bits/stl_algobase.h **** 	return __b;
 241:/usr/arm-none-eabi/include/c++/15.2.0/bits/stl_algobase.h ****       return __a;
 242:/usr/arm-none-eabi/include/c++/15.2.0/bits/stl_algobase.h ****     }
 243:/usr/arm-none-eabi/include/c++/15.2.0/bits/stl_algobase.h **** 
 244:/usr/arm-none-eabi/include/c++/15.2.0/bits/stl_algobase.h ****   /**
 245:/usr/arm-none-eabi/include/c++/15.2.0/bits/stl_algobase.h ****    *  @brief This does what you think it does.
 246:/usr/arm-none-eabi/include/c++/15.2.0/bits/stl_algobase.h ****    *  @ingroup sorting_algorithms
 247:/usr/arm-none-eabi/include/c++/15.2.0/bits/stl_algobase.h ****    *  @param  __a  A thing of arbitrary type.
 248:/usr/arm-none-eabi/include/c++/15.2.0/bits/stl_algobase.h ****    *  @param  __b  Another thing of arbitrary type.
 249:/usr/arm-none-eabi/include/c++/15.2.0/bits/stl_algobase.h ****    *  @return   The greater of the parameters.
 250:/usr/arm-none-eabi/include/c++/15.2.0/bits/stl_algobase.h ****    *
 251:/usr/arm-none-eabi/include/c++/15.2.0/bits/stl_algobase.h ****    *  This is the simple classic generic implementation.  It will work on
 252:/usr/arm-none-eabi/include/c++/15.2.0/bits/stl_algobase.h ****    *  temporary expressions, since they are only evaluated once, unlike a
 253:/usr/arm-none-eabi/include/c++/15.2.0/bits/stl_algobase.h ****    *  preprocessor macro.
 254:/usr/arm-none-eabi/include/c++/15.2.0/bits/stl_algobase.h ****   */
 255:/usr/arm-none-eabi/include/c++/15.2.0/bits/stl_algobase.h ****   template<typename _Tp>
 256:/usr/arm-none-eabi/include/c++/15.2.0/bits/stl_algobase.h ****     _GLIBCXX_NODISCARD _GLIBCXX14_CONSTEXPR
 257:/usr/arm-none-eabi/include/c++/15.2.0/bits/stl_algobase.h ****     inline const _Tp&
 258:/usr/arm-none-eabi/include/c++/15.2.0/bits/stl_algobase.h ****     max(const _Tp& __a, const _Tp& __b)
 1212              		.loc 8 258 5 view .LVU366
 1213              	.LBB331:
 259:/usr/arm-none-eabi/include/c++/15.2.0/bits/stl_algobase.h ****     {
ARM GAS  /tmp/ccRb3mjQ.s 			page 46


 260:/usr/arm-none-eabi/include/c++/15.2.0/bits/stl_algobase.h ****       // concept requirements
 261:/usr/arm-none-eabi/include/c++/15.2.0/bits/stl_algobase.h ****       __glibcxx_function_requires(_LessThanComparableConcept<_Tp>)
 262:/usr/arm-none-eabi/include/c++/15.2.0/bits/stl_algobase.h ****       //return  __a < __b ? __b : __a;
 263:/usr/arm-none-eabi/include/c++/15.2.0/bits/stl_algobase.h ****       if (__a < __b)
 1214              		.loc 8 263 7 is_stmt 0 view .LVU367
 1215 035a 17EE902A 		vmov	r2, s15	@ int
 1216              	.LBE331:
 1217              	.LBE330:
 1218              	.LBE335:
 1219              	.LBE342:
 132:Util/../Util/pitch_shifter.h ****         d_[1].SetDelay(mod_[1] + slewed_mod_[1]);
 1220              		.loc 4 132 23 view .LVU368
 1221 035e D4ED1A7A 		vldr.32	s15, [r4, #104]
 1222              	.LBB343:
 1223              	.LBB336:
 1224              	.LBB333:
 1225              	.LBB332:
 1226              		.loc 8 263 7 view .LVU369
 1227 0362 22EAE272 		bic	r2, r2, r2, asr #31
 1228              	.LVL63:
 1229              		.loc 8 263 7 view .LVU370
 1230              	.LBE332:
 1231              	.LBE333:
  45:Util/../Util/RuntimeDelayLine.h ****         size_t safe_delay = static_cast<size_t>(std::max(int_delay, int32_t(0)));
 1232              		.loc 7 45 23 view .LVU371
 1233 0366 37EE667A 		vsub.f32	s14, s14, s13
 1234              	.LVL64:
  45:Util/../Util/RuntimeDelayLine.h ****         size_t safe_delay = static_cast<size_t>(std::max(int_delay, int32_t(0)));
 1235              		.loc 7 45 23 view .LVU372
 1236              	.LBE336:
 1237              	.LBE343:
 1238              		.loc 4 132 23 view .LVU373
 1239 036a D4ED226A 		vldr.32	s13, [r4, #136]
 1240              	.LBB344:
 1241              	.LBB337:
  47:Util/../Util/RuntimeDelayLine.h ****     }
 1242              		.loc 7 47 39 view .LVU374
 1243 036e 8242     		cmp	r2, r0
 1244              	.LBE337:
 1245              	.LBE344:
 1246              		.loc 4 132 23 view .LVU375
 1247 0370 77EEA67A 		vadd.f32	s15, s15, s13
 1248              	.LBB345:
 1249              	.LBB338:
  47:Util/../Util/RuntimeDelayLine.h ****     }
 1250              		.loc 7 47 39 discriminator 1 view .LVU376
 1251 0374 28BF     		it	cs
 1252 0376 00F1FF32 		addcs	r2, r0, #-1
 1253              	.LVL65:
  45:Util/../Util/RuntimeDelayLine.h ****         size_t safe_delay = static_cast<size_t>(std::max(int_delay, int32_t(0)));
 1254              		.loc 7 45 15 view .LVU377
 1255 037a 84ED047A 		vstr.32	s14, [r4, #16]
 1256              	.LBE338:
 1257              	.LBE345:
 1258              	.LBB346:
 1259              	.LBB347:
  44:Util/../Util/RuntimeDelayLine.h ****         frac_ = delay - static_cast<float>(int_delay);
ARM GAS  /tmp/ccRb3mjQ.s 			page 47


 1260              		.loc 7 44 29 view .LVU378
 1261 037e FDEEE76A 		vcvt.s32.f32	s13, s15
 1262              	.LBE347:
 1263              	.LBE346:
 1264              	.LBB353:
 1265              	.LBB339:
  47:Util/../Util/RuntimeDelayLine.h ****     }
 1266              		.loc 7 47 16 discriminator 4 view .LVU379
 1267 0382 E260     		str	r2, [r4, #12]
 1268              	.LVL66:
  47:Util/../Util/RuntimeDelayLine.h ****     }
 1269              		.loc 7 47 16 discriminator 4 view .LVU380
 1270              	.LBE339:
 1271              	.LBE353:
 1272              		.loc 4 132 9 is_stmt 1 view .LVU381
 1273              	.LBB354:
 1274              	.LBI346:
  43:Util/../Util/RuntimeDelayLine.h ****         int32_t int_delay = static_cast<int32_t>(delay);
 1275              		.loc 7 43 10 view .LVU382
 1276              	.LBB351:
  45:Util/../Util/RuntimeDelayLine.h ****         size_t safe_delay = static_cast<size_t>(std::max(int_delay, int32_t(0)));
 1277              		.loc 7 45 25 is_stmt 0 view .LVU383
 1278 0384 B8EEE66A 		vcvt.f32.s32	s12, s13
 1279              	.LBB348:
 1280              	.LBB349:
 1281              		.loc 8 263 7 view .LVU384
 1282 0388 16EE906A 		vmov	r6, s13	@ int
 1283 038c 26EAE676 		bic	r6, r6, r6, asr #31
 1284              	.LBE349:
 1285              	.LBE348:
  45:Util/../Util/RuntimeDelayLine.h ****         size_t safe_delay = static_cast<size_t>(std::max(int_delay, int32_t(0)));
 1286              		.loc 7 45 23 view .LVU385
 1287 0390 77EEC67A 		vsub.f32	s15, s15, s12
 1288              	.LVL67:
  47:Util/../Util/RuntimeDelayLine.h ****     }
 1289              		.loc 7 47 39 view .LVU386
 1290 0394 8E42     		cmp	r6, r1
  45:Util/../Util/RuntimeDelayLine.h ****         size_t safe_delay = static_cast<size_t>(std::max(int_delay, int32_t(0)));
 1291              		.loc 7 45 15 view .LVU387
 1292 0396 C4ED097A 		vstr.32	s15, [r4, #36]
 1293              	.LVL68:
 1294              	.LBB350:
 1295              	.LBI348:
 258:/usr/arm-none-eabi/include/c++/15.2.0/bits/stl_algobase.h ****     {
 1296              		.loc 8 258 5 is_stmt 1 view .LVU388
 258:/usr/arm-none-eabi/include/c++/15.2.0/bits/stl_algobase.h ****     {
 1297              		.loc 8 258 5 is_stmt 0 view .LVU389
 1298              	.LBE350:
  47:Util/../Util/RuntimeDelayLine.h ****     }
 1299              		.loc 7 47 39 view .LVU390
 1300 039a 00D3     		bcc	.L68
  47:Util/../Util/RuntimeDelayLine.h ****     }
 1301              		.loc 7 47 39 discriminator 1 view .LVU391
 1302 039c 4E1E     		subs	r6, r1, #1
 1303              	.LVL69:
 1304              	.L68:
  47:Util/../Util/RuntimeDelayLine.h ****     }
ARM GAS  /tmp/ccRb3mjQ.s 			page 48


 1305              		.loc 7 47 39 discriminator 1 view .LVU392
 1306              	.LBE351:
 1307              	.LBE354:
 1308              	.LBB355:
 1309              	.LBB356:
  53:Util/../Util/RuntimeDelayLine.h ****     }
  54:Util/../Util/RuntimeDelayLine.h **** 
  55:Util/../Util/RuntimeDelayLine.h ****     T Read() const {
  56:Util/../Util/RuntimeDelayLine.h ****         T a = buffer_[(write_ptr_ + delay_) % size_];
 1310              		.loc 7 56 35 view .LVU393
 1311 039e 2A44     		add	r2, r2, r5
 1312              	.LBE356:
 1313              	.LBE355:
 133:Util/../Util/pitch_shifter.h ****         val = 0.0f;
 134:Util/../Util/pitch_shifter.h ****         val += (d_[0].Read() * gain_[0]);
 1314              		.loc 4 134 13 discriminator 1 view .LVU394
 1315 03a0 D4ED174A 		vldr.32	s9, [r4, #92]
 135:Util/../Util/pitch_shifter.h ****         val += (d_[1].Read() * gain_[1]);
 1316              		.loc 4 135 13 discriminator 1 view .LVU395
 1317 03a4 94ED185A 		vldr.32	s10, [r4, #96]
 1318              	.LBB362:
 1319              	.LBB363:
 1320              		.loc 7 56 35 view .LVU396
 1321 03a8 3344     		add	r3, r3, r6
 1322              	.LBE363:
 1323              	.LBE362:
 1324              	.LBB369:
 1325              	.LBB352:
  47:Util/../Util/RuntimeDelayLine.h ****     }
 1326              		.loc 7 47 16 discriminator 4 view .LVU397
 1327 03aa 2662     		str	r6, [r4, #32]
 1328              	.LVL70:
  47:Util/../Util/RuntimeDelayLine.h ****     }
 1329              		.loc 7 47 16 discriminator 4 view .LVU398
 1330              	.LBE352:
 1331              	.LBE369:
 133:Util/../Util/pitch_shifter.h ****         val = 0.0f;
 1332              		.loc 4 133 9 is_stmt 1 view .LVU399
 134:Util/../Util/pitch_shifter.h ****         val += (d_[1].Read() * gain_[1]);
 1333              		.loc 4 134 9 view .LVU400
 1334              	.LBB370:
 1335              	.LBI355:
  55:Util/../Util/RuntimeDelayLine.h ****         T a = buffer_[(write_ptr_ + delay_) % size_];
 1336              		.loc 7 55 7 view .LVU401
 1337              	.LBB357:
  57:Util/../Util/RuntimeDelayLine.h ****         T b = buffer_[(write_ptr_ + delay_ + 1) % size_];
 1338              		.loc 7 57 44 is_stmt 0 view .LVU402
 1339 03ac 541C     		adds	r4, r2, #1
 1340              	.LVL71:
 1341              		.loc 7 57 44 view .LVU403
 1342              	.LBE357:
 1343              	.LBE370:
 134:Util/../Util/pitch_shifter.h ****         val += (d_[1].Read() * gain_[1]);
 1344              		.loc 4 134 13 discriminator 1 view .LVU404
 1345 03ae 1FED510A 		vldr.32	s0, .L109+28
 1346              	.LBB371:
 1347              	.LBB358:
ARM GAS  /tmp/ccRb3mjQ.s 			page 49


  56:Util/../Util/RuntimeDelayLine.h ****         T b = buffer_[(write_ptr_ + delay_ + 1) % size_];
 1348              		.loc 7 56 45 view .LVU405
 1349 03b2 B2FBF0F5 		udiv	r5, r2, r0
 1350 03b6 00FB1522 		mls	r2, r0, r5, r2
  56:Util/../Util/RuntimeDelayLine.h ****         T b = buffer_[(write_ptr_ + delay_ + 1) % size_];
 1351              		.loc 7 56 11 view .LVU406
 1352 03ba 0EEB8202 		add	r2, lr, r2, lsl #2
 1353 03be 92ED006A 		vldr.32	s12, [r2]
 1354              	.LVL72:
 1355              		.loc 7 57 49 view .LVU407
 1356 03c2 B4FBF0F2 		udiv	r2, r4, r0
 1357 03c6 00FB1244 		mls	r4, r0, r2, r4
 1358              	.LBE358:
 1359              	.LBE371:
 1360              	.LBB372:
 1361              	.LBB364:
 1362              		.loc 7 57 44 view .LVU408
 1363 03ca 5A1C     		adds	r2, r3, #1
  56:Util/../Util/RuntimeDelayLine.h ****         T b = buffer_[(write_ptr_ + delay_ + 1) % size_];
 1364              		.loc 7 56 45 view .LVU409
 1365 03cc B3FBF1F0 		udiv	r0, r3, r1
 1366 03d0 01FB1033 		mls	r3, r1, r0, r3
 1367              	.LBE364:
 1368              	.LBE372:
 1369              	.LBB373:
 1370              	.LBB359:
 1371              		.loc 7 57 11 view .LVU410
 1372 03d4 0EEB840E 		add	lr, lr, r4, lsl #2
 1373              	.LBE359:
 1374              	.LBE373:
 1375              	.LBB374:
 1376              	.LBB365:
  56:Util/../Util/RuntimeDelayLine.h ****         T b = buffer_[(write_ptr_ + delay_ + 1) % size_];
 1377              		.loc 7 56 11 view .LVU411
 1378 03d8 0CEB8303 		add	r3, ip, r3, lsl #2
 1379              	.LBE365:
 1380              	.LBE374:
 1381              	.LBB375:
 1382              	.LBB360:
  58:Util/../Util/RuntimeDelayLine.h ****         return a + (b - a) * frac_;
 1383              		.loc 7 58 23 view .LVU412
 1384 03dc DEED005A 		vldr.32	s11, [lr]
 1385              	.LBE360:
 1386              	.LBE375:
 1387              	.LBB376:
 1388              	.LBB366:
  56:Util/../Util/RuntimeDelayLine.h ****         T b = buffer_[(write_ptr_ + delay_ + 1) % size_];
 1389              		.loc 7 56 11 view .LVU413
 1390 03e0 D3ED006A 		vldr.32	s13, [r3]
 1391              	.LBE366:
 1392              	.LBE376:
 1393              	.LBB377:
 1394              	.LBB361:
 1395              		.loc 7 58 23 view .LVU414
 1396 03e4 75EEC65A 		vsub.f32	s11, s11, s12
 1397              	.LBE361:
 1398              	.LBE377:
ARM GAS  /tmp/ccRb3mjQ.s 			page 50


 1399              	.LBB378:
 1400              	.LBB367:
  57:Util/../Util/RuntimeDelayLine.h ****         T b = buffer_[(write_ptr_ + delay_ + 1) % size_];
 1401              		.loc 7 57 49 view .LVU415
 1402 03e8 B2FBF1F3 		udiv	r3, r2, r1
 1403 03ec 01FB1322 		mls	r2, r1, r3, r2
 1404              	.LBE367:
 1405              	.LBE378:
 134:Util/../Util/pitch_shifter.h ****         val += (d_[1].Read() * gain_[1]);
 1406              		.loc 4 134 13 discriminator 1 view .LVU416
 1407 03f0 A7EE256A 		vfma.f32	s12, s14, s11
 1408              	.LBB379:
 1409              	.LBB368:
  57:Util/../Util/RuntimeDelayLine.h ****         return a + (b - a) * frac_;
 1410              		.loc 7 57 11 view .LVU417
 1411 03f4 0CEB820C 		add	ip, ip, r2, lsl #2
 1412              		.loc 7 58 23 view .LVU418
 1413 03f8 9CED007A 		vldr.32	s14, [ip]
 1414 03fc 37EE667A 		vsub.f32	s14, s14, s13
 1415              	.LBE368:
 1416              	.LBE379:
 134:Util/../Util/pitch_shifter.h ****         val += (d_[1].Read() * gain_[1]);
 1417              		.loc 4 134 13 discriminator 1 view .LVU419
 1418 0400 A4EE860A 		vfma.f32	s0, s9, s12
 1419              	.LVL73:
 1420              		.loc 4 135 9 is_stmt 1 view .LVU420
 1421              	.LBB380:
 1422              	.LBI362:
  55:Util/../Util/RuntimeDelayLine.h ****         T a = buffer_[(write_ptr_ + delay_) % size_];
 1423              		.loc 7 55 7 view .LVU421
  55:Util/../Util/RuntimeDelayLine.h ****         T a = buffer_[(write_ptr_ + delay_) % size_];
 1424              		.loc 7 55 7 is_stmt 0 view .LVU422
 1425              	.LBE380:
 1426              		.loc 4 135 13 discriminator 1 view .LVU423
 1427 0404 E7EE876A 		vfma.f32	s13, s15, s14
 136:Util/../Util/pitch_shifter.h ****         return val;
 137:Util/../Util/pitch_shifter.h ****     }
 1428              		.loc 4 137 5 view .LVU424
 1429 0408 BDEC048B 		vldm	sp!, {d8-d9}
 1430              		.cfi_remember_state
 1431              		.cfi_restore 82
 1432              		.cfi_restore 83
 1433              		.cfi_restore 80
 1434              		.cfi_restore 81
 1435              		.cfi_def_cfa_offset 16
 1436              	.LVL74:
 135:Util/../Util/pitch_shifter.h ****         return val;
 1437              		.loc 4 135 13 discriminator 1 view .LVU425
 1438 040c A5EE260A 		vfma.f32	s0, s10, s13
 1439              	.LVL75:
 136:Util/../Util/pitch_shifter.h ****         return val;
 1440              		.loc 4 136 9 is_stmt 1 view .LVU426
 1441              		.loc 4 137 5 is_stmt 0 view .LVU427
 1442 0410 70BD     		pop	{r4, r5, r6, pc}
 1443              	.LVL76:
 1444              	.L45:
 1445              		.cfi_restore_state
ARM GAS  /tmp/ccRb3mjQ.s 			page 51


  97:Util/../Util/pitch_shifter.h ****         if (rand_retrig && fun_ > 0.f)
 1446              		.loc 4 97 9 is_stmt 1 view .LVU428
  97:Util/../Util/pitch_shifter.h ****         if (rand_retrig && fun_ > 0.f)
 1447              		.loc 4 97 50 is_stmt 0 discriminator 1 view .LVU429
 1448 0412 F1EE10FA 		vmrs	APSR_nzcv, FPSCR
 1449 0416 37D5     		bpl	.L101
 1450              	.L52:
 1451              	.LVL77:
  98:Util/../Util/pitch_shifter.h ****             if (myrand() % 65536 < 4)
 1452              		.loc 4 98 9 is_stmt 1 view .LVU430
  98:Util/../Util/pitch_shifter.h ****             if (myrand() % 65536 < 4)
 1453              		.loc 4 98 28 is_stmt 0 discriminator 1 view .LVU431
 1454 0418 94ED1C6A 		vldr.32	s12, [r4, #112]
  98:Util/../Util/pitch_shifter.h ****             if (myrand() % 65536 < 4)
 1455              		.loc 4 98 25 discriminator 1 view .LVU432
 1456 041c B5EEC06A 		vcmpe.f32	s12, #0
  98:Util/../Util/pitch_shifter.h ****             if (myrand() % 65536 < 4)
 1457              		.loc 4 98 28 discriminator 1 view .LVU433
 1458 0420 F0EE462A 		vmov.f32	s5, s12
  98:Util/../Util/pitch_shifter.h ****             if (myrand() % 65536 < 4)
 1459              		.loc 4 98 25 discriminator 1 view .LVU434
 1460 0424 F1EE10FA 		vmrs	APSR_nzcv, FPSCR
 1461 0428 3BDD     		ble	.L108
 1462 042a 0120     		movs	r0, #1
 1463              	.LVL78:
  98:Util/../Util/pitch_shifter.h ****             if (myrand() % 65536 < 4)
 1464              		.loc 4 98 25 discriminator 1 view .LVU435
 1465 042c 65E6     		b	.L61
 1466              	.LVL79:
 1467              	.L104:
  97:Util/../Util/pitch_shifter.h ****         if (rand_retrig && fun_ > 0.f)
 1468              		.loc 4 97 9 is_stmt 1 view .LVU436
  97:Util/../Util/pitch_shifter.h ****         if (rand_retrig && fun_ > 0.f)
 1469              		.loc 4 97 50 is_stmt 0 discriminator 1 view .LVU437
 1470 042e F5EE007A 		vmov.f32	s15, #2.5e-1
 1471 0432 B4EEE77A 		vcmpe.f32	s14, s15
 1472 0436 F1EE10FA 		vmrs	APSR_nzcv, FPSCR
 1473 043a 7FF504AF 		bpl	.L100
 1474              	.L60:
 1475              	.LVL80:
  98:Util/../Util/pitch_shifter.h ****             if (myrand() % 65536 < 4)
 1476              		.loc 4 98 9 is_stmt 1 view .LVU438
  98:Util/../Util/pitch_shifter.h ****             if (myrand() % 65536 < 4)
 1477              		.loc 4 98 25 is_stmt 0 discriminator 1 view .LVU439
 1478 043e B5EEC06A 		vcmpe.f32	s12, #0
 1479 0442 F1EE10FA 		vmrs	APSR_nzcv, FPSCR
 1480 0446 7FF7FEAE 		ble	.L100
 1481 044a 0020     		movs	r0, #0
 1482              	.LVL81:
 1483              	.L63:
  99:Util/../Util/pitch_shifter.h ****                 recalc_a_fun = recalc_b_fun = true;
 1484              		.loc 4 99 13 is_stmt 1 view .LVU440
 1485              	.LBB381:
  29:Util/../Util/pitch_shifter.h ****     static uint32_t seed = 1;
 1486              		.loc 4 29 17 view .LVU441
 1487              	.LBB246:
  30:Util/../Util/pitch_shifter.h ****     seed = hash_xs32(seed);
ARM GAS  /tmp/ccRb3mjQ.s 			page 52


 1488              		.loc 4 30 5 view .LVU442
  31:Util/../Util/pitch_shifter.h ****     return seed;
 1489              		.loc 4 31 5 view .LVU443
  31:Util/../Util/pitch_shifter.h ****     return seed;
 1490              		.loc 4 31 21 is_stmt 0 view .LVU444
 1491 044c 1849     		ldr	r1, .L111
 1492              	.LBE246:
 1493              	.LBE381:
  99:Util/../Util/pitch_shifter.h ****                 recalc_a_fun = recalc_b_fun = true;
 1494              		.loc 4 99 34 discriminator 1 view .LVU445
 1495 044e 4FF6FC72 		movw	r2, #65532
 1496              	.LBB382:
 1497              	.LBB247:
  31:Util/../Util/pitch_shifter.h ****     return seed;
 1498              		.loc 4 31 21 view .LVU446
 1499 0452 0B68     		ldr	r3, [r1]
 1500              	.LVL82:
 1501              	.LBB242:
  22:Util/../Util/pitch_shifter.h ****     x ^= x << 13;
 1502              		.loc 4 22 24 is_stmt 1 view .LVU447
 1503              	.LBB241:
  23:Util/../Util/pitch_shifter.h ****     x ^= x >> 17;
 1504              		.loc 4 23 5 view .LVU448
  23:Util/../Util/pitch_shifter.h ****     x ^= x >> 17;
 1505              		.loc 4 23 7 is_stmt 0 view .LVU449
 1506 0454 83EA4333 		eor	r3, r3, r3, lsl #13
 1507              	.LVL83:
  24:Util/../Util/pitch_shifter.h ****     x ^= x << 5;
 1508              		.loc 4 24 5 is_stmt 1 view .LVU450
  24:Util/../Util/pitch_shifter.h ****     x ^= x << 5;
 1509              		.loc 4 24 7 is_stmt 0 view .LVU451
 1510 0458 83EA5343 		eor	r3, r3, r3, lsr #17
 1511              	.LVL84:
  25:Util/../Util/pitch_shifter.h ****     return x;
 1512              		.loc 4 25 5 is_stmt 1 view .LVU452
  25:Util/../Util/pitch_shifter.h ****     return x;
 1513              		.loc 4 25 7 is_stmt 0 view .LVU453
 1514 045c 83EA4313 		eor	r3, r3, r3, lsl #5
 1515              	.LVL85:
  26:Util/../Util/pitch_shifter.h **** }
 1516              		.loc 4 26 5 is_stmt 1 view .LVU454
 1517              	.LBE241:
 1518              	.LBE242:
  32:Util/../Util/pitch_shifter.h **** }
 1519              		.loc 4 32 5 view .LVU455
  32:Util/../Util/pitch_shifter.h **** }
 1520              		.loc 4 32 5 is_stmt 0 view .LVU456
 1521              	.LBE247:
 1522              	.LBE382:
  99:Util/../Util/pitch_shifter.h ****                 recalc_a_fun = recalc_b_fun = true;
 1523              		.loc 4 99 13 discriminator 1 view .LVU457
 1524 0460 1342     		tst	r3, r2
 1525 0462 7FF459AE 		bne	.L56
 1526 0466 56E6     		b	.L69
 1527              	.LVL86:
 1528              	.L106:
 110:Util/../Util/pitch_shifter.h ****         prev_phs_a_ = fade1;
ARM GAS  /tmp/ccRb3mjQ.s 			page 53


 1529              		.loc 4 110 39 view .LVU458
 1530 0468 D4ED244A 		vldr.32	s9, [r4, #144]
 110:Util/../Util/pitch_shifter.h ****         prev_phs_a_ = fade1;
 1531              		.loc 4 110 44 view .LVU459
 1532 046c D4ED1E6A 		vldr.32	s13, [r4, #120]
 1533 0470 14E7     		b	.L42
 1534              	.LVL87:
 1535              	.L54:
  97:Util/../Util/pitch_shifter.h ****         if (rand_retrig && fun_ > 0.f)
 1536              		.loc 4 97 9 is_stmt 1 view .LVU460
  97:Util/../Util/pitch_shifter.h ****         if (rand_retrig && fun_ > 0.f)
 1537              		.loc 4 97 50 is_stmt 0 view .LVU461
 1538 0472 F1EE10FA 		vmrs	APSR_nzcv, FPSCR
 1539 0476 BFF611AE 		bge	.L59
 1540              	.L64:
 1541              	.LVL88:
 1542              	.LBB383:
 1543              	.LBB248:
  31:Util/../Util/pitch_shifter.h ****     return seed;
 1544              		.loc 4 31 21 view .LVU462
 1545 047a 0D49     		ldr	r1, .L111
 1546 047c 0120     		movs	r0, #1
 1547              	.LVL89:
  31:Util/../Util/pitch_shifter.h ****     return seed;
 1548              		.loc 4 31 21 view .LVU463
 1549 047e 0B68     		ldr	r3, [r1]
 1550 0480 4AE6     		b	.L56
 1551              	.LVL90:
 1552              	.L50:
  31:Util/../Util/pitch_shifter.h ****     return seed;
 1553              		.loc 4 31 21 view .LVU464
 1554              	.LBE248:
 1555              	.LBE383:
  97:Util/../Util/pitch_shifter.h ****         if (rand_retrig && fun_ > 0.f)
 1556              		.loc 4 97 9 is_stmt 1 view .LVU465
  97:Util/../Util/pitch_shifter.h ****         if (rand_retrig && fun_ > 0.f)
 1557              		.loc 4 97 50 is_stmt 0 view .LVU466
 1558 0482 F1EE10FA 		vmrs	APSR_nzcv, FPSCR
 1559 0486 C7DA     		bge	.L52
 1560              	.L101:
  98:Util/../Util/pitch_shifter.h ****             if (myrand() % 65536 < 4)
 1561              		.loc 4 98 28 discriminator 1 view .LVU467
 1562 0488 D4ED1C2A 		vldr.32	s5, [r4, #112]
 109:Util/../Util/pitch_shifter.h ****         slewed_mod_[1] += mod_coeff_[1] * (mod_b_amt_ - slewed_mod_[1]);
 1563              		.loc 4 109 39 view .LVU468
 1564 048c D4ED233A 		vldr.32	s7, [r4, #140]
 109:Util/../Util/pitch_shifter.h ****         slewed_mod_[1] += mod_coeff_[1] * (mod_b_amt_ - slewed_mod_[1]);
 1565              		.loc 4 109 44 view .LVU469
 1566 0490 94ED1D7A 		vldr.32	s14, [r4, #116]
 1567 0494 0649     		ldr	r1, .L111
 1568 0496 80E6     		b	.L53
 1569              	.LVL91:
 1570              	.L105:
 109:Util/../Util/pitch_shifter.h ****         slewed_mod_[1] += mod_coeff_[1] * (mod_b_amt_ - slewed_mod_[1]);
 1571              		.loc 4 109 39 view .LVU470
 1572 0498 D4ED233A 		vldr.32	s7, [r4, #140]
 109:Util/../Util/pitch_shifter.h ****         slewed_mod_[1] += mod_coeff_[1] * (mod_b_amt_ - slewed_mod_[1]);
ARM GAS  /tmp/ccRb3mjQ.s 			page 54


 1573              		.loc 4 109 44 view .LVU471
 1574 049c 94ED1D7A 		vldr.32	s14, [r4, #116]
 1575 04a0 76E6     		b	.L65
 1576              	.LVL92:
 1577              	.L108:
 109:Util/../Util/pitch_shifter.h ****         slewed_mod_[1] += mod_coeff_[1] * (mod_b_amt_ - slewed_mod_[1]);
 1578              		.loc 4 109 39 view .LVU472
 1579 04a2 D4ED233A 		vldr.32	s7, [r4, #140]
 109:Util/../Util/pitch_shifter.h ****         slewed_mod_[1] += mod_coeff_[1] * (mod_b_amt_ - slewed_mod_[1]);
 1580              		.loc 4 109 44 view .LVU473
 1581 04a6 94ED1D7A 		vldr.32	s14, [r4, #116]
 1582 04aa 0149     		ldr	r1, .L111
 1583 04ac 75E6     		b	.L53
 1584              	.L112:
 1585 04ae 00BF     		.align	2
 1586              	.L111:
 1587 04b0 00000000 		.word	_ZZN16daisysp_modified6myrandEvE4seed
 1588              		.cfi_endproc
 1589              	.LFE5469:
 1591              		.section	.rodata._ZN10bkshepherd18PitchShifterModuleC2Ev.str1.4,"aMS",%progbits,1
 1592              		.align	2
 1593              	.LC0:
 1594 0000 50697463 		.ascii	"Pitch\000"
 1594      6800
 1595              		.section	.text._ZN10bkshepherd18PitchShifterModuleC2Ev,"ax",%progbits
 1596              		.align	1
 1597              		.p2align 2,,3
 1598              		.global	_ZN10bkshepherd18PitchShifterModuleC2Ev
 1599              		.syntax unified
 1600              		.thumb
 1601              		.thumb_func
 1603              	_ZN10bkshepherd18PitchShifterModuleC2Ev:
 1604              	.LVL93:
 1605              	.LFB5971:
  99:pitch_shifter_module.cpp ****     m_name = "Pitch";
 1606              		.loc 1 99 1 is_stmt 1 view -0
 1607              		.cfi_startproc
 1608              		@ args = 0, pretend = 0, frame = 0
 1609              		@ frame_needed = 0, uses_anonymous_args = 0
  99:pitch_shifter_module.cpp ****     m_name = "Pitch";
 1610              		.loc 1 99 1 is_stmt 0 view .LVU475
 1611 0000 10B5     		push	{r4, lr}
 1612              		.cfi_def_cfa_offset 8
 1613              		.cfi_offset 4, -8
 1614              		.cfi_offset 14, -4
  99:pitch_shifter_module.cpp ****     m_name = "Pitch";
 1615              		.loc 1 99 1 view .LVU476
 1616 0002 0446     		mov	r4, r0
 1617              	.LBB384:
  99:pitch_shifter_module.cpp ****     m_name = "Pitch";
 1618              		.loc 1 99 61 view .LVU477
 1619 0004 FFF7FEFF 		bl	_ZN10bkshepherd16BaseEffectModuleC2Ev
 1620              	.LVL94:
  99:pitch_shifter_module.cpp ****     m_name = "Pitch";
 1621              		.loc 1 99 61 discriminator 1 view .LVU478
 1622 0008 0023     		movs	r3, #0
 1623 000a 0022     		movs	r2, #0
ARM GAS  /tmp/ccRb3mjQ.s 			page 55


 100:pitch_shifter_module.cpp **** 
 1624              		.loc 1 100 12 view .LVU479
 1625 000c DFF838E0 		ldr	lr, .L115+4
  99:pitch_shifter_module.cpp ****     m_name = "Pitch";
 1626              		.loc 1 99 61 discriminator 1 view .LVU480
 1627 0010 40F20111 		movw	r1, #257
 103:pitch_shifter_module.cpp **** 
 1628              		.loc 1 103 21 view .LVU481
 1629 0014 DFF834C0 		ldr	ip, .L115+8
  99:pitch_shifter_module.cpp ****     m_name = "Pitch";
 1630              		.loc 1 99 61 discriminator 1 view .LVU482
 1631 0018 0A48     		ldr	r0, .L115
 1632 001a A186     		strh	r1, [r4, #52]	@ movhi
 106:pitch_shifter_module.cpp **** }
 1633              		.loc 1 106 21 view .LVU483
 1634 001c 0621     		movs	r1, #6
  99:pitch_shifter_module.cpp ****     m_name = "Pitch";
 1635              		.loc 1 99 61 discriminator 1 view .LVU484
 1636 001e 2060     		str	r0, [r4]
 106:pitch_shifter_module.cpp **** }
 1637              		.loc 1 106 21 view .LVU485
 1638 0020 2046     		mov	r0, r4
  99:pitch_shifter_module.cpp ****     m_name = "Pitch";
 1639              		.loc 1 99 61 discriminator 1 view .LVU486
 1640 0022 84F83630 		strb	r3, [r4, #54]
 1641 0026 A263     		str	r2, [r4, #56]	@ float
 1642 0028 6364     		str	r3, [r4, #68]
 1643 002a A4F84830 		strh	r3, [r4, #72]	@ movhi
 1644 002e E264     		str	r2, [r4, #76]	@ float
 100:pitch_shifter_module.cpp **** 
 1645              		.loc 1 100 5 is_stmt 1 view .LVU487
 100:pitch_shifter_module.cpp **** 
 1646              		.loc 1 100 12 is_stmt 0 view .LVU488
 1647 0030 C4F804E0 		str	lr, [r4, #4]
 103:pitch_shifter_module.cpp **** 
 1648              		.loc 1 103 5 is_stmt 1 view .LVU489
 103:pitch_shifter_module.cpp **** 
 1649              		.loc 1 103 21 is_stmt 0 view .LVU490
 1650 0034 C4F818C0 		str	ip, [r4, #24]
 106:pitch_shifter_module.cpp **** }
 1651              		.loc 1 106 5 is_stmt 1 view .LVU491
  99:pitch_shifter_module.cpp ****     m_name = "Pitch";
 1652              		.loc 1 99 61 is_stmt 0 discriminator 1 view .LVU492
 1653 0038 C4E90F33 		strd	r3, r3, [r4, #60]
 106:pitch_shifter_module.cpp **** }
 1654              		.loc 1 106 21 view .LVU493
 1655 003c FFF7FEFF 		bl	_ZN10bkshepherd16BaseEffectModule10InitParamsEi
 1656              	.LVL95:
 1657              	.LBE384:
 107:pitch_shifter_module.cpp **** 
 1658              		.loc 1 107 1 view .LVU494
 1659 0040 2046     		mov	r0, r4
 1660 0042 10BD     		pop	{r4, pc}
 1661              	.LVL96:
 1662              	.L116:
 107:pitch_shifter_module.cpp **** 
 1663              		.loc 1 107 1 view .LVU495
ARM GAS  /tmp/ccRb3mjQ.s 			page 56


 1664              		.align	2
 1665              	.L115:
 1666 0044 08000000 		.word	_ZTVN10bkshepherd18PitchShifterModuleE+8
 1667 0048 00000000 		.word	.LC0
 1668 004c 00000000 		.word	_ZL10s_metaData
 1669              		.cfi_endproc
 1670              	.LFE5971:
 1672              		.global	_ZN10bkshepherd18PitchShifterModuleC1Ev
 1673              		.thumb_set _ZN10bkshepherd18PitchShifterModuleC1Ev,_ZN10bkshepherd18PitchShifterModuleC2Ev
 1674              		.section	.text._ZN10bkshepherd18PitchShifterModule27ProcessSemitoneTargetChangeEv,"ax",%progbits
 1675              		.align	1
 1676              		.p2align 2,,3
 1677              		.global	_ZN10bkshepherd18PitchShifterModule27ProcessSemitoneTargetChangeEv
 1678              		.syntax unified
 1679              		.thumb
 1680              		.thumb_func
 1682              	_ZN10bkshepherd18PitchShifterModule27ProcessSemitoneTargetChangeEv:
 1683              	.LVL97:
 1684              	.LFB5977:
 112:pitch_shifter_module.cpp ****     int semitoneNum = GetParameterAsBinnedValue(SEMITONE);
 1685              		.loc 1 112 56 is_stmt 1 view -0
 1686              		.cfi_startproc
 1687              		@ args = 0, pretend = 0, frame = 0
 1688              		@ frame_needed = 0, uses_anonymous_args = 0
 113:pitch_shifter_module.cpp **** 
 1689              		.loc 1 113 5 view .LVU497
 112:pitch_shifter_module.cpp ****     int semitoneNum = GetParameterAsBinnedValue(SEMITONE);
 1690              		.loc 1 112 56 is_stmt 0 view .LVU498
 1691 0000 10B5     		push	{r4, lr}
 1692              		.cfi_def_cfa_offset 8
 1693              		.cfi_offset 4, -8
 1694              		.cfi_offset 14, -4
 113:pitch_shifter_module.cpp **** 
 1695              		.loc 1 113 48 view .LVU499
 1696 0002 0021     		movs	r1, #0
 112:pitch_shifter_module.cpp ****     int semitoneNum = GetParameterAsBinnedValue(SEMITONE);
 1697              		.loc 1 112 56 view .LVU500
 1698 0004 0446     		mov	r4, r0
 113:pitch_shifter_module.cpp **** 
 1699              		.loc 1 113 48 view .LVU501
 1700 0006 FFF7FEFF 		bl	_ZNK10bkshepherd16BaseEffectModule25GetParameterAsBinnedValueEi
 1701              	.LVL98:
 116:pitch_shifter_module.cpp ****         semitoneNum = 12;
 1702              		.loc 1 116 5 is_stmt 1 view .LVU502
 1703 000a 0828     		cmp	r0, #8
 1704 000c 0DD0     		beq	.L120
 120:pitch_shifter_module.cpp ****     if (m_directionDown) {
 1705              		.loc 1 120 22 is_stmt 0 view .LVU503
 1706 000e 07EE900A 		vmov	s15, r0	@ int
 1707 0012 F8EEE77A 		vcvt.f32.s32	s15, s15
 1708              	.L118:
 1709              	.LVL99:
 120:pitch_shifter_module.cpp ****     if (m_directionDown) {
 1710              		.loc 1 120 5 is_stmt 1 view .LVU504
 121:pitch_shifter_module.cpp ****         m_semitoneTarget *= -1.0f;
 1711              		.loc 1 121 5 is_stmt 0 view .LVU505
 1712 0016 94F83530 		ldrb	r3, [r4, #53]	@ zero_extendqisi2
ARM GAS  /tmp/ccRb3mjQ.s 			page 57


 120:pitch_shifter_module.cpp ****     if (m_directionDown) {
 1713              		.loc 1 120 22 view .LVU506
 1714 001a C4ED0E7A 		vstr.32	s15, [r4, #56]
 121:pitch_shifter_module.cpp ****         m_semitoneTarget *= -1.0f;
 1715              		.loc 1 121 5 is_stmt 1 view .LVU507
 1716 001e 1BB1     		cbz	r3, .L117
 122:pitch_shifter_module.cpp ****     }
 1717              		.loc 1 122 9 view .LVU508
 122:pitch_shifter_module.cpp ****     }
 1718              		.loc 1 122 26 is_stmt 0 view .LVU509
 1719 0020 F1EE677A 		vneg.f32	s15, s15
 1720 0024 C4ED0E7A 		vstr.32	s15, [r4, #56]
 1721              	.L117:
 124:pitch_shifter_module.cpp **** 
 1722              		.loc 1 124 1 view .LVU510
 1723 0028 10BD     		pop	{r4, pc}
 1724              	.LVL100:
 1725              	.L120:
 124:pitch_shifter_module.cpp **** 
 1726              		.loc 1 124 1 view .LVU511
 1727 002a F2EE087A 		vmov.f32	s15, #1.2e+1
 1728 002e F2E7     		b	.L118
 1729              		.cfi_endproc
 1730              	.LFE5977:
 1732              		.section	.text._ZN10bkshepherd18PitchShifterModule12SetTransposeEf,"ax",%progbits
 1733              		.align	1
 1734              		.p2align 2,,3
 1735              		.global	_ZN10bkshepherd18PitchShifterModule12SetTransposeEf
 1736              		.syntax unified
 1737              		.thumb
 1738              		.thumb_func
 1740              	_ZN10bkshepherd18PitchShifterModule12SetTransposeEf:
 1741              	.LVL101:
 1742              	.LFB5978:
 126:pitch_shifter_module.cpp ****     // If this is latching, then we also adjust the delay to get the best sound
 1743              		.loc 1 126 55 is_stmt 1 view -0
 1744              		.cfi_startproc
 1745              		@ args = 0, pretend = 0, frame = 16
 1746              		@ frame_needed = 0, uses_anonymous_args = 0
 129:pitch_shifter_module.cpp ****         // Value between 0 and 1 where 0 is 1 semitone and 1 is 12 semitones
 1747              		.loc 1 129 5 view .LVU513
 1748              	.LBB426:
 1749 0000 90F83430 		ldrb	r3, [r0, #52]	@ zero_extendqisi2
 1750              	.LBE426:
 126:pitch_shifter_module.cpp ****     // If this is latching, then we also adjust the delay to get the best sound
 1751              		.loc 1 126 55 is_stmt 0 view .LVU514
 1752 0004 F0EE407A 		vmov.f32	s15, s0
 1753 0008 30B5     		push	{r4, r5, lr}
 1754              		.cfi_def_cfa_offset 12
 1755              		.cfi_offset 4, -12
 1756              		.cfi_offset 5, -8
 1757              		.cfi_offset 14, -4
 1758 000a 85B0     		sub	sp, sp, #20
 1759              		.cfi_def_cfa_offset 32
 1760              	.LBB509:
 129:pitch_shifter_module.cpp ****         // Value between 0 and 1 where 0 is 1 semitone and 1 is 12 semitones
 1761              		.loc 1 129 5 view .LVU515
ARM GAS  /tmp/ccRb3mjQ.s 			page 58


 1762 000c 002B     		cmp	r3, #0
 1763 000e 56D1     		bne	.L154
 1764              	.LBE509:
 140:pitch_shifter_module.cpp **** }
 1765              		.loc 1 140 5 is_stmt 1 view .LVU516
 1766              	.LVL102:
 1767              	.LBB510:
 1768              	.LBI510:
 138:Util/../Util/pitch_shifter.h **** 
 139:Util/../Util/pitch_shifter.h ****     /** sets transposition in semitones
 140:Util/../Util/pitch_shifter.h ****      */
 141:Util/../Util/pitch_shifter.h ****     void SetTransposition(const float &transpose) {
 1769              		.loc 4 141 10 view .LVU517
 1770              	.LBB511:
 142:Util/../Util/pitch_shifter.h ****         float ratio;
 1771              		.loc 4 142 9 view .LVU518
 143:Util/../Util/pitch_shifter.h ****         if (transpose_ != transpose || force_recalc_) {
 1772              		.loc 4 143 9 view .LVU519
 1773              		.loc 4 143 40 is_stmt 0 discriminator 1 view .LVU520
 1774 0010 7F4C     		ldr	r4, .L158+24
 1775              		.loc 4 143 9 view .LVU521
 1776 0012 94ED1B7A 		vldr.32	s14, [r4, #108]
 1777              		.loc 4 143 40 discriminator 1 view .LVU522
 1778 0016 94F83430 		ldrb	r3, [r4, #52]	@ zero_extendqisi2
 1779              		.loc 4 143 9 view .LVU523
 1780 001a B4EE407A 		vcmp.f32	s14, s0
 1781 001e F1EE10FA 		vmrs	APSR_nzcv, FPSCR
 1782 0022 49D0     		beq	.L155
 1783              	.L133:
 144:Util/../Util/pitch_shifter.h ****             transpose_ = quantize_semitones_ ? (int32_t)transpose : transpose;
 1784              		.loc 4 144 13 is_stmt 1 view .LVU524
 1785              		.loc 4 144 26 is_stmt 0 view .LVU525
 1786 0024 94F89810 		ldrb	r1, [r4, #152]	@ zero_extendqisi2
 145:Util/../Util/pitch_shifter.h ****             ratio = pow(2.f, transpose_ / 12.f);
 146:Util/../Util/pitch_shifter.h ****             mod_freq_ = ((ratio - 1.0f) * sr_) / del_size_;
 1787              		.loc 4 146 43 view .LVU526
 1788 0028 D4ED0E6A 		vldr.32	s13, [r4, #56]
 1789              	.LBB512:
 1790              	.LBB513:
  58:Util/../Util/phasor.h ****     }
  59:Util/../Util/phasor.h **** 
  60:Util/../Util/phasor.h ****     /** Sets frequency of the Phasor in Hz
  61:Util/../Util/phasor.h ****      */
  62:Util/../Util/phasor.h ****     void SetFreq(float freq) {
  63:Util/../Util/phasor.h ****         freq_ = freq;
  64:Util/../Util/phasor.h ****         inc_ = (TWOPI_F * freq_) / sample_rate_;
 1791              		.loc 6 64 36 view .LVU527
 1792 002c D4ED105A 		vldr.32	s11, [r4, #64]
 1793              	.LBE513:
 1794              	.LBE512:
 1795              	.LBB519:
 1796              	.LBB520:
 1797 0030 94ED146A 		vldr.32	s12, [r4, #80]
 1798              	.LBE520:
 1799              	.LBE519:
 1800              		.loc 4 146 50 view .LVU528
 1801 0034 256B     		ldr	r5, [r4, #48]
ARM GAS  /tmp/ccRb3mjQ.s 			page 59


 144:Util/../Util/pitch_shifter.h ****             ratio = pow(2.f, transpose_ / 12.f);
 1802              		.loc 4 144 46 view .LVU529
 1803 0036 19B1     		cbz	r1, .L135
 1804              	.LVL103:
 1805              	.L157:
 144:Util/../Util/pitch_shifter.h ****             ratio = pow(2.f, transpose_ / 12.f);
 1806              		.loc 4 144 48 discriminator 1 view .LVU530
 1807 0038 FDEEE77A 		vcvt.s32.f32	s15, s15
 144:Util/../Util/pitch_shifter.h ****             ratio = pow(2.f, transpose_ / 12.f);
 1808              		.loc 4 144 46 discriminator 1 view .LVU531
 1809 003c F8EEE77A 		vcvt.f32.s32	s15, s15
 1810              	.L135:
 145:Util/../Util/pitch_shifter.h ****             ratio = pow(2.f, transpose_ / 12.f);
 1811              		.loc 4 145 24 view .LVU532
 1812 0040 F2EE080A 		vmov.f32	s1, #1.2e+1
 1813 0044 0393     		str	r3, [sp, #12]
 1814              	.LBB525:
 1815              	.LBB526:
 1816              		.file 9 "/usr/arm-none-eabi/include/c++/15.2.0/cmath"
   1:/usr/arm-none-eabi/include/c++/15.2.0/cmath **** // -*- C++ -*- C forwarding header.
   2:/usr/arm-none-eabi/include/c++/15.2.0/cmath **** 
   3:/usr/arm-none-eabi/include/c++/15.2.0/cmath **** // Copyright (C) 1997-2025 Free Software Foundation, Inc.
   4:/usr/arm-none-eabi/include/c++/15.2.0/cmath **** //
   5:/usr/arm-none-eabi/include/c++/15.2.0/cmath **** // This file is part of the GNU ISO C++ Library.  This library is free
   6:/usr/arm-none-eabi/include/c++/15.2.0/cmath **** // software; you can redistribute it and/or modify it under the
   7:/usr/arm-none-eabi/include/c++/15.2.0/cmath **** // terms of the GNU General Public License as published by the
   8:/usr/arm-none-eabi/include/c++/15.2.0/cmath **** // Free Software Foundation; either version 3, or (at your option)
   9:/usr/arm-none-eabi/include/c++/15.2.0/cmath **** // any later version.
  10:/usr/arm-none-eabi/include/c++/15.2.0/cmath **** 
  11:/usr/arm-none-eabi/include/c++/15.2.0/cmath **** // This library is distributed in the hope that it will be useful,
  12:/usr/arm-none-eabi/include/c++/15.2.0/cmath **** // but WITHOUT ANY WARRANTY; without even the implied warranty of
  13:/usr/arm-none-eabi/include/c++/15.2.0/cmath **** // MERCHANTABILITY or FITNESS FOR A PARTICULAR PURPOSE.  See the
  14:/usr/arm-none-eabi/include/c++/15.2.0/cmath **** // GNU General Public License for more details.
  15:/usr/arm-none-eabi/include/c++/15.2.0/cmath **** 
  16:/usr/arm-none-eabi/include/c++/15.2.0/cmath **** // Under Section 7 of GPL version 3, you are granted additional
  17:/usr/arm-none-eabi/include/c++/15.2.0/cmath **** // permissions described in the GCC Runtime Library Exception, version
  18:/usr/arm-none-eabi/include/c++/15.2.0/cmath **** // 3.1, as published by the Free Software Foundation.
  19:/usr/arm-none-eabi/include/c++/15.2.0/cmath **** 
  20:/usr/arm-none-eabi/include/c++/15.2.0/cmath **** // You should have received a copy of the GNU General Public License and
  21:/usr/arm-none-eabi/include/c++/15.2.0/cmath **** // a copy of the GCC Runtime Library Exception along with this program;
  22:/usr/arm-none-eabi/include/c++/15.2.0/cmath **** // see the files COPYING3 and COPYING.RUNTIME respectively.  If not, see
  23:/usr/arm-none-eabi/include/c++/15.2.0/cmath **** // <http://www.gnu.org/licenses/>.
  24:/usr/arm-none-eabi/include/c++/15.2.0/cmath **** 
  25:/usr/arm-none-eabi/include/c++/15.2.0/cmath **** /** @file include/cmath
  26:/usr/arm-none-eabi/include/c++/15.2.0/cmath ****  *  This is a Standard C++ Library file.  You should @c \#include this file
  27:/usr/arm-none-eabi/include/c++/15.2.0/cmath ****  *  in your programs, rather than any of the @a *.h implementation files.
  28:/usr/arm-none-eabi/include/c++/15.2.0/cmath ****  *
  29:/usr/arm-none-eabi/include/c++/15.2.0/cmath ****  *  This is the C++ version of the Standard C Library header @c math.h,
  30:/usr/arm-none-eabi/include/c++/15.2.0/cmath ****  *  and its contents are (mostly) the same as that header, but are all
  31:/usr/arm-none-eabi/include/c++/15.2.0/cmath ****  *  contained in the namespace @c std (except for names which are defined
  32:/usr/arm-none-eabi/include/c++/15.2.0/cmath ****  *  as macros in C).
  33:/usr/arm-none-eabi/include/c++/15.2.0/cmath ****  */
  34:/usr/arm-none-eabi/include/c++/15.2.0/cmath **** 
  35:/usr/arm-none-eabi/include/c++/15.2.0/cmath **** //
  36:/usr/arm-none-eabi/include/c++/15.2.0/cmath **** // ISO C++ 14882: 26.5  C library
  37:/usr/arm-none-eabi/include/c++/15.2.0/cmath **** //
  38:/usr/arm-none-eabi/include/c++/15.2.0/cmath **** 
ARM GAS  /tmp/ccRb3mjQ.s 			page 60


  39:/usr/arm-none-eabi/include/c++/15.2.0/cmath **** #ifndef _GLIBCXX_CMATH
  40:/usr/arm-none-eabi/include/c++/15.2.0/cmath **** #define _GLIBCXX_CMATH 1
  41:/usr/arm-none-eabi/include/c++/15.2.0/cmath **** 
  42:/usr/arm-none-eabi/include/c++/15.2.0/cmath **** #ifdef _GLIBCXX_SYSHDR
  43:/usr/arm-none-eabi/include/c++/15.2.0/cmath **** #pragma GCC system_header
  44:/usr/arm-none-eabi/include/c++/15.2.0/cmath **** #endif
  45:/usr/arm-none-eabi/include/c++/15.2.0/cmath **** 
  46:/usr/arm-none-eabi/include/c++/15.2.0/cmath **** #include <bits/requires_hosted.h>
  47:/usr/arm-none-eabi/include/c++/15.2.0/cmath **** 
  48:/usr/arm-none-eabi/include/c++/15.2.0/cmath **** #include <bits/c++config.h>
  49:/usr/arm-none-eabi/include/c++/15.2.0/cmath **** #include <bits/cpp_type_traits.h>
  50:/usr/arm-none-eabi/include/c++/15.2.0/cmath **** #include <ext/type_traits.h>
  51:/usr/arm-none-eabi/include/c++/15.2.0/cmath **** 
  52:/usr/arm-none-eabi/include/c++/15.2.0/cmath **** #pragma GCC diagnostic push
  53:/usr/arm-none-eabi/include/c++/15.2.0/cmath **** #pragma GCC diagnostic ignored "-Wpedantic" // include_next
  54:/usr/arm-none-eabi/include/c++/15.2.0/cmath **** #define _GLIBCXX_INCLUDE_NEXT_C_HEADERS
  55:/usr/arm-none-eabi/include/c++/15.2.0/cmath **** #include_next <math.h>
  56:/usr/arm-none-eabi/include/c++/15.2.0/cmath **** #undef _GLIBCXX_INCLUDE_NEXT_C_HEADERS
  57:/usr/arm-none-eabi/include/c++/15.2.0/cmath **** #pragma GCC diagnostic pop
  58:/usr/arm-none-eabi/include/c++/15.2.0/cmath **** 
  59:/usr/arm-none-eabi/include/c++/15.2.0/cmath **** #include <bits/std_abs.h>
  60:/usr/arm-none-eabi/include/c++/15.2.0/cmath **** 
  61:/usr/arm-none-eabi/include/c++/15.2.0/cmath **** #define __glibcxx_want_hypot
  62:/usr/arm-none-eabi/include/c++/15.2.0/cmath **** #define __glibcxx_want_interpolate
  63:/usr/arm-none-eabi/include/c++/15.2.0/cmath **** #include <bits/version.h>
  64:/usr/arm-none-eabi/include/c++/15.2.0/cmath **** 
  65:/usr/arm-none-eabi/include/c++/15.2.0/cmath **** // Get rid of those macros defined in <math.h> in lieu of real functions.
  66:/usr/arm-none-eabi/include/c++/15.2.0/cmath **** #undef div
  67:/usr/arm-none-eabi/include/c++/15.2.0/cmath **** #undef acos
  68:/usr/arm-none-eabi/include/c++/15.2.0/cmath **** #undef asin
  69:/usr/arm-none-eabi/include/c++/15.2.0/cmath **** #undef atan
  70:/usr/arm-none-eabi/include/c++/15.2.0/cmath **** #undef atan2
  71:/usr/arm-none-eabi/include/c++/15.2.0/cmath **** #undef ceil
  72:/usr/arm-none-eabi/include/c++/15.2.0/cmath **** #undef cos
  73:/usr/arm-none-eabi/include/c++/15.2.0/cmath **** #undef cosh
  74:/usr/arm-none-eabi/include/c++/15.2.0/cmath **** #undef exp
  75:/usr/arm-none-eabi/include/c++/15.2.0/cmath **** #undef fabs
  76:/usr/arm-none-eabi/include/c++/15.2.0/cmath **** #undef floor
  77:/usr/arm-none-eabi/include/c++/15.2.0/cmath **** #undef fmod
  78:/usr/arm-none-eabi/include/c++/15.2.0/cmath **** #undef frexp
  79:/usr/arm-none-eabi/include/c++/15.2.0/cmath **** #undef ldexp
  80:/usr/arm-none-eabi/include/c++/15.2.0/cmath **** #undef log
  81:/usr/arm-none-eabi/include/c++/15.2.0/cmath **** #undef log10
  82:/usr/arm-none-eabi/include/c++/15.2.0/cmath **** #undef modf
  83:/usr/arm-none-eabi/include/c++/15.2.0/cmath **** #undef pow
  84:/usr/arm-none-eabi/include/c++/15.2.0/cmath **** #undef sin
  85:/usr/arm-none-eabi/include/c++/15.2.0/cmath **** #undef sinh
  86:/usr/arm-none-eabi/include/c++/15.2.0/cmath **** #undef sqrt
  87:/usr/arm-none-eabi/include/c++/15.2.0/cmath **** #undef tan
  88:/usr/arm-none-eabi/include/c++/15.2.0/cmath **** #undef tanh
  89:/usr/arm-none-eabi/include/c++/15.2.0/cmath **** 
  90:/usr/arm-none-eabi/include/c++/15.2.0/cmath **** extern "C++"
  91:/usr/arm-none-eabi/include/c++/15.2.0/cmath **** {
  92:/usr/arm-none-eabi/include/c++/15.2.0/cmath **** namespace std _GLIBCXX_VISIBILITY(default)
  93:/usr/arm-none-eabi/include/c++/15.2.0/cmath **** {
  94:/usr/arm-none-eabi/include/c++/15.2.0/cmath **** _GLIBCXX_BEGIN_NAMESPACE_VERSION
  95:/usr/arm-none-eabi/include/c++/15.2.0/cmath **** 
ARM GAS  /tmp/ccRb3mjQ.s 			page 61


  96:/usr/arm-none-eabi/include/c++/15.2.0/cmath ****   using ::acos;
  97:/usr/arm-none-eabi/include/c++/15.2.0/cmath **** 
  98:/usr/arm-none-eabi/include/c++/15.2.0/cmath **** #ifndef __CORRECT_ISO_CPP_MATH_H_PROTO
  99:/usr/arm-none-eabi/include/c++/15.2.0/cmath ****   inline _GLIBCXX_CONSTEXPR float
 100:/usr/arm-none-eabi/include/c++/15.2.0/cmath ****   acos(float __x)
 101:/usr/arm-none-eabi/include/c++/15.2.0/cmath ****   { return __builtin_acosf(__x); }
 102:/usr/arm-none-eabi/include/c++/15.2.0/cmath **** 
 103:/usr/arm-none-eabi/include/c++/15.2.0/cmath ****   inline _GLIBCXX_CONSTEXPR long double
 104:/usr/arm-none-eabi/include/c++/15.2.0/cmath ****   acos(long double __x)
 105:/usr/arm-none-eabi/include/c++/15.2.0/cmath ****   { return __builtin_acosl(__x); }
 106:/usr/arm-none-eabi/include/c++/15.2.0/cmath **** #endif
 107:/usr/arm-none-eabi/include/c++/15.2.0/cmath **** 
 108:/usr/arm-none-eabi/include/c++/15.2.0/cmath ****   template<typename _Tp>
 109:/usr/arm-none-eabi/include/c++/15.2.0/cmath ****     inline _GLIBCXX_CONSTEXPR
 110:/usr/arm-none-eabi/include/c++/15.2.0/cmath ****     typename __gnu_cxx::__enable_if<__is_integer<_Tp>::__value, 
 111:/usr/arm-none-eabi/include/c++/15.2.0/cmath ****                                     double>::__type
 112:/usr/arm-none-eabi/include/c++/15.2.0/cmath ****     acos(_Tp __x)
 113:/usr/arm-none-eabi/include/c++/15.2.0/cmath ****     { return __builtin_acos(__x); }
 114:/usr/arm-none-eabi/include/c++/15.2.0/cmath **** 
 115:/usr/arm-none-eabi/include/c++/15.2.0/cmath ****   using ::asin;
 116:/usr/arm-none-eabi/include/c++/15.2.0/cmath **** 
 117:/usr/arm-none-eabi/include/c++/15.2.0/cmath **** #ifndef __CORRECT_ISO_CPP_MATH_H_PROTO
 118:/usr/arm-none-eabi/include/c++/15.2.0/cmath ****   inline _GLIBCXX_CONSTEXPR float
 119:/usr/arm-none-eabi/include/c++/15.2.0/cmath ****   asin(float __x)
 120:/usr/arm-none-eabi/include/c++/15.2.0/cmath ****   { return __builtin_asinf(__x); }
 121:/usr/arm-none-eabi/include/c++/15.2.0/cmath **** 
 122:/usr/arm-none-eabi/include/c++/15.2.0/cmath ****   inline _GLIBCXX_CONSTEXPR long double
 123:/usr/arm-none-eabi/include/c++/15.2.0/cmath ****   asin(long double __x)
 124:/usr/arm-none-eabi/include/c++/15.2.0/cmath ****   { return __builtin_asinl(__x); }
 125:/usr/arm-none-eabi/include/c++/15.2.0/cmath **** #endif
 126:/usr/arm-none-eabi/include/c++/15.2.0/cmath **** 
 127:/usr/arm-none-eabi/include/c++/15.2.0/cmath ****   template<typename _Tp>
 128:/usr/arm-none-eabi/include/c++/15.2.0/cmath ****     inline _GLIBCXX_CONSTEXPR
 129:/usr/arm-none-eabi/include/c++/15.2.0/cmath ****     typename __gnu_cxx::__enable_if<__is_integer<_Tp>::__value,
 130:/usr/arm-none-eabi/include/c++/15.2.0/cmath ****                                     double>::__type
 131:/usr/arm-none-eabi/include/c++/15.2.0/cmath ****     asin(_Tp __x)
 132:/usr/arm-none-eabi/include/c++/15.2.0/cmath ****     { return __builtin_asin(__x); }
 133:/usr/arm-none-eabi/include/c++/15.2.0/cmath **** 
 134:/usr/arm-none-eabi/include/c++/15.2.0/cmath ****   using ::atan;
 135:/usr/arm-none-eabi/include/c++/15.2.0/cmath **** 
 136:/usr/arm-none-eabi/include/c++/15.2.0/cmath **** #ifndef __CORRECT_ISO_CPP_MATH_H_PROTO
 137:/usr/arm-none-eabi/include/c++/15.2.0/cmath ****   inline _GLIBCXX_CONSTEXPR float
 138:/usr/arm-none-eabi/include/c++/15.2.0/cmath ****   atan(float __x)
 139:/usr/arm-none-eabi/include/c++/15.2.0/cmath ****   { return __builtin_atanf(__x); }
 140:/usr/arm-none-eabi/include/c++/15.2.0/cmath **** 
 141:/usr/arm-none-eabi/include/c++/15.2.0/cmath ****   inline _GLIBCXX_CONSTEXPR long double
 142:/usr/arm-none-eabi/include/c++/15.2.0/cmath ****   atan(long double __x)
 143:/usr/arm-none-eabi/include/c++/15.2.0/cmath ****   { return __builtin_atanl(__x); }
 144:/usr/arm-none-eabi/include/c++/15.2.0/cmath **** #endif
 145:/usr/arm-none-eabi/include/c++/15.2.0/cmath **** 
 146:/usr/arm-none-eabi/include/c++/15.2.0/cmath ****   template<typename _Tp>
 147:/usr/arm-none-eabi/include/c++/15.2.0/cmath ****     inline _GLIBCXX_CONSTEXPR
 148:/usr/arm-none-eabi/include/c++/15.2.0/cmath ****     typename __gnu_cxx::__enable_if<__is_integer<_Tp>::__value,
 149:/usr/arm-none-eabi/include/c++/15.2.0/cmath ****                                     double>::__type
 150:/usr/arm-none-eabi/include/c++/15.2.0/cmath ****     atan(_Tp __x)
 151:/usr/arm-none-eabi/include/c++/15.2.0/cmath ****     { return __builtin_atan(__x); }
 152:/usr/arm-none-eabi/include/c++/15.2.0/cmath **** 
ARM GAS  /tmp/ccRb3mjQ.s 			page 62


 153:/usr/arm-none-eabi/include/c++/15.2.0/cmath ****   using ::atan2;
 154:/usr/arm-none-eabi/include/c++/15.2.0/cmath **** 
 155:/usr/arm-none-eabi/include/c++/15.2.0/cmath **** #ifndef __CORRECT_ISO_CPP_MATH_H_PROTO
 156:/usr/arm-none-eabi/include/c++/15.2.0/cmath ****   inline _GLIBCXX_CONSTEXPR float
 157:/usr/arm-none-eabi/include/c++/15.2.0/cmath ****   atan2(float __y, float __x)
 158:/usr/arm-none-eabi/include/c++/15.2.0/cmath ****   { return __builtin_atan2f(__y, __x); }
 159:/usr/arm-none-eabi/include/c++/15.2.0/cmath **** 
 160:/usr/arm-none-eabi/include/c++/15.2.0/cmath ****   inline _GLIBCXX_CONSTEXPR long double
 161:/usr/arm-none-eabi/include/c++/15.2.0/cmath ****   atan2(long double __y, long double __x)
 162:/usr/arm-none-eabi/include/c++/15.2.0/cmath ****   { return __builtin_atan2l(__y, __x); }
 163:/usr/arm-none-eabi/include/c++/15.2.0/cmath **** #endif
 164:/usr/arm-none-eabi/include/c++/15.2.0/cmath **** 
 165:/usr/arm-none-eabi/include/c++/15.2.0/cmath ****   using ::ceil;
 166:/usr/arm-none-eabi/include/c++/15.2.0/cmath **** 
 167:/usr/arm-none-eabi/include/c++/15.2.0/cmath **** #ifndef __CORRECT_ISO_CPP_MATH_H_PROTO
 168:/usr/arm-none-eabi/include/c++/15.2.0/cmath ****   inline _GLIBCXX_CONSTEXPR float
 169:/usr/arm-none-eabi/include/c++/15.2.0/cmath ****   ceil(float __x)
 170:/usr/arm-none-eabi/include/c++/15.2.0/cmath ****   { return __builtin_ceilf(__x); }
 171:/usr/arm-none-eabi/include/c++/15.2.0/cmath **** 
 172:/usr/arm-none-eabi/include/c++/15.2.0/cmath ****   inline _GLIBCXX_CONSTEXPR long double
 173:/usr/arm-none-eabi/include/c++/15.2.0/cmath ****   ceil(long double __x)
 174:/usr/arm-none-eabi/include/c++/15.2.0/cmath ****   { return __builtin_ceill(__x); }
 175:/usr/arm-none-eabi/include/c++/15.2.0/cmath **** #endif
 176:/usr/arm-none-eabi/include/c++/15.2.0/cmath **** 
 177:/usr/arm-none-eabi/include/c++/15.2.0/cmath ****   template<typename _Tp>
 178:/usr/arm-none-eabi/include/c++/15.2.0/cmath ****     inline _GLIBCXX_CONSTEXPR
 179:/usr/arm-none-eabi/include/c++/15.2.0/cmath ****     typename __gnu_cxx::__enable_if<__is_integer<_Tp>::__value, 
 180:/usr/arm-none-eabi/include/c++/15.2.0/cmath ****                                     double>::__type
 181:/usr/arm-none-eabi/include/c++/15.2.0/cmath ****     ceil(_Tp __x)
 182:/usr/arm-none-eabi/include/c++/15.2.0/cmath ****     { return __builtin_ceil(__x); }
 183:/usr/arm-none-eabi/include/c++/15.2.0/cmath **** 
 184:/usr/arm-none-eabi/include/c++/15.2.0/cmath ****   using ::cos;
 185:/usr/arm-none-eabi/include/c++/15.2.0/cmath **** 
 186:/usr/arm-none-eabi/include/c++/15.2.0/cmath **** #ifndef __CORRECT_ISO_CPP_MATH_H_PROTO
 187:/usr/arm-none-eabi/include/c++/15.2.0/cmath ****   inline _GLIBCXX_CONSTEXPR float
 188:/usr/arm-none-eabi/include/c++/15.2.0/cmath ****   cos(float __x)
 189:/usr/arm-none-eabi/include/c++/15.2.0/cmath ****   { return __builtin_cosf(__x); }
 190:/usr/arm-none-eabi/include/c++/15.2.0/cmath **** 
 191:/usr/arm-none-eabi/include/c++/15.2.0/cmath ****   inline _GLIBCXX_CONSTEXPR long double
 192:/usr/arm-none-eabi/include/c++/15.2.0/cmath ****   cos(long double __x)
 193:/usr/arm-none-eabi/include/c++/15.2.0/cmath ****   { return __builtin_cosl(__x); }
 194:/usr/arm-none-eabi/include/c++/15.2.0/cmath **** #endif
 195:/usr/arm-none-eabi/include/c++/15.2.0/cmath **** 
 196:/usr/arm-none-eabi/include/c++/15.2.0/cmath ****   template<typename _Tp>
 197:/usr/arm-none-eabi/include/c++/15.2.0/cmath ****     inline _GLIBCXX_CONSTEXPR
 198:/usr/arm-none-eabi/include/c++/15.2.0/cmath ****     typename __gnu_cxx::__enable_if<__is_integer<_Tp>::__value,
 199:/usr/arm-none-eabi/include/c++/15.2.0/cmath ****                                     double>::__type
 200:/usr/arm-none-eabi/include/c++/15.2.0/cmath ****     cos(_Tp __x)
 201:/usr/arm-none-eabi/include/c++/15.2.0/cmath ****     { return __builtin_cos(__x); }
 202:/usr/arm-none-eabi/include/c++/15.2.0/cmath **** 
 203:/usr/arm-none-eabi/include/c++/15.2.0/cmath ****   using ::cosh;
 204:/usr/arm-none-eabi/include/c++/15.2.0/cmath **** 
 205:/usr/arm-none-eabi/include/c++/15.2.0/cmath **** #ifndef __CORRECT_ISO_CPP_MATH_H_PROTO
 206:/usr/arm-none-eabi/include/c++/15.2.0/cmath ****   inline _GLIBCXX_CONSTEXPR float
 207:/usr/arm-none-eabi/include/c++/15.2.0/cmath ****   cosh(float __x)
 208:/usr/arm-none-eabi/include/c++/15.2.0/cmath ****   { return __builtin_coshf(__x); }
 209:/usr/arm-none-eabi/include/c++/15.2.0/cmath **** 
ARM GAS  /tmp/ccRb3mjQ.s 			page 63


 210:/usr/arm-none-eabi/include/c++/15.2.0/cmath ****   inline _GLIBCXX_CONSTEXPR long double
 211:/usr/arm-none-eabi/include/c++/15.2.0/cmath ****   cosh(long double __x)
 212:/usr/arm-none-eabi/include/c++/15.2.0/cmath ****   { return __builtin_coshl(__x); }
 213:/usr/arm-none-eabi/include/c++/15.2.0/cmath **** #endif
 214:/usr/arm-none-eabi/include/c++/15.2.0/cmath **** 
 215:/usr/arm-none-eabi/include/c++/15.2.0/cmath ****   template<typename _Tp>
 216:/usr/arm-none-eabi/include/c++/15.2.0/cmath ****     inline _GLIBCXX_CONSTEXPR
 217:/usr/arm-none-eabi/include/c++/15.2.0/cmath ****     typename __gnu_cxx::__enable_if<__is_integer<_Tp>::__value,
 218:/usr/arm-none-eabi/include/c++/15.2.0/cmath ****                                     double>::__type
 219:/usr/arm-none-eabi/include/c++/15.2.0/cmath ****     cosh(_Tp __x)
 220:/usr/arm-none-eabi/include/c++/15.2.0/cmath ****     { return __builtin_cosh(__x); }
 221:/usr/arm-none-eabi/include/c++/15.2.0/cmath **** 
 222:/usr/arm-none-eabi/include/c++/15.2.0/cmath ****   using ::exp;
 223:/usr/arm-none-eabi/include/c++/15.2.0/cmath **** 
 224:/usr/arm-none-eabi/include/c++/15.2.0/cmath **** #ifndef __CORRECT_ISO_CPP_MATH_H_PROTO
 225:/usr/arm-none-eabi/include/c++/15.2.0/cmath ****   inline _GLIBCXX_CONSTEXPR float
 226:/usr/arm-none-eabi/include/c++/15.2.0/cmath ****   exp(float __x)
 227:/usr/arm-none-eabi/include/c++/15.2.0/cmath ****   { return __builtin_expf(__x); }
 228:/usr/arm-none-eabi/include/c++/15.2.0/cmath **** 
 229:/usr/arm-none-eabi/include/c++/15.2.0/cmath ****   inline _GLIBCXX_CONSTEXPR long double
 230:/usr/arm-none-eabi/include/c++/15.2.0/cmath ****   exp(long double __x)
 231:/usr/arm-none-eabi/include/c++/15.2.0/cmath ****   { return __builtin_expl(__x); }
 232:/usr/arm-none-eabi/include/c++/15.2.0/cmath **** #endif
 233:/usr/arm-none-eabi/include/c++/15.2.0/cmath **** 
 234:/usr/arm-none-eabi/include/c++/15.2.0/cmath ****   template<typename _Tp>
 235:/usr/arm-none-eabi/include/c++/15.2.0/cmath ****     inline _GLIBCXX_CONSTEXPR
 236:/usr/arm-none-eabi/include/c++/15.2.0/cmath ****     typename __gnu_cxx::__enable_if<__is_integer<_Tp>::__value,
 237:/usr/arm-none-eabi/include/c++/15.2.0/cmath ****                                     double>::__type
 238:/usr/arm-none-eabi/include/c++/15.2.0/cmath ****     exp(_Tp __x)
 239:/usr/arm-none-eabi/include/c++/15.2.0/cmath ****     { return __builtin_exp(__x); }
 240:/usr/arm-none-eabi/include/c++/15.2.0/cmath **** 
 241:/usr/arm-none-eabi/include/c++/15.2.0/cmath ****   using ::fabs;
 242:/usr/arm-none-eabi/include/c++/15.2.0/cmath **** 
 243:/usr/arm-none-eabi/include/c++/15.2.0/cmath **** #ifndef __CORRECT_ISO_CPP_MATH_H_PROTO
 244:/usr/arm-none-eabi/include/c++/15.2.0/cmath ****   inline _GLIBCXX_CONSTEXPR float
 245:/usr/arm-none-eabi/include/c++/15.2.0/cmath ****   fabs(float __x)
 246:/usr/arm-none-eabi/include/c++/15.2.0/cmath ****   { return __builtin_fabsf(__x); }
 247:/usr/arm-none-eabi/include/c++/15.2.0/cmath **** 
 248:/usr/arm-none-eabi/include/c++/15.2.0/cmath ****   inline _GLIBCXX_CONSTEXPR long double
 249:/usr/arm-none-eabi/include/c++/15.2.0/cmath ****   fabs(long double __x)
 250:/usr/arm-none-eabi/include/c++/15.2.0/cmath ****   { return __builtin_fabsl(__x); }
 251:/usr/arm-none-eabi/include/c++/15.2.0/cmath **** #endif
 252:/usr/arm-none-eabi/include/c++/15.2.0/cmath **** 
 253:/usr/arm-none-eabi/include/c++/15.2.0/cmath ****   template<typename _Tp>
 254:/usr/arm-none-eabi/include/c++/15.2.0/cmath ****     inline _GLIBCXX_CONSTEXPR
 255:/usr/arm-none-eabi/include/c++/15.2.0/cmath ****     typename __gnu_cxx::__enable_if<__is_integer<_Tp>::__value,
 256:/usr/arm-none-eabi/include/c++/15.2.0/cmath ****                                     double>::__type
 257:/usr/arm-none-eabi/include/c++/15.2.0/cmath ****     fabs(_Tp __x)
 258:/usr/arm-none-eabi/include/c++/15.2.0/cmath ****     { return __builtin_fabs(__x); }
 259:/usr/arm-none-eabi/include/c++/15.2.0/cmath **** 
 260:/usr/arm-none-eabi/include/c++/15.2.0/cmath ****   using ::floor;
 261:/usr/arm-none-eabi/include/c++/15.2.0/cmath **** 
 262:/usr/arm-none-eabi/include/c++/15.2.0/cmath **** #ifndef __CORRECT_ISO_CPP_MATH_H_PROTO
 263:/usr/arm-none-eabi/include/c++/15.2.0/cmath ****   inline _GLIBCXX_CONSTEXPR float
 264:/usr/arm-none-eabi/include/c++/15.2.0/cmath ****   floor(float __x)
 265:/usr/arm-none-eabi/include/c++/15.2.0/cmath ****   { return __builtin_floorf(__x); }
 266:/usr/arm-none-eabi/include/c++/15.2.0/cmath **** 
ARM GAS  /tmp/ccRb3mjQ.s 			page 64


 267:/usr/arm-none-eabi/include/c++/15.2.0/cmath ****   inline _GLIBCXX_CONSTEXPR long double
 268:/usr/arm-none-eabi/include/c++/15.2.0/cmath ****   floor(long double __x)
 269:/usr/arm-none-eabi/include/c++/15.2.0/cmath ****   { return __builtin_floorl(__x); }
 270:/usr/arm-none-eabi/include/c++/15.2.0/cmath **** #endif
 271:/usr/arm-none-eabi/include/c++/15.2.0/cmath **** 
 272:/usr/arm-none-eabi/include/c++/15.2.0/cmath ****   template<typename _Tp>
 273:/usr/arm-none-eabi/include/c++/15.2.0/cmath ****     inline _GLIBCXX_CONSTEXPR
 274:/usr/arm-none-eabi/include/c++/15.2.0/cmath ****     typename __gnu_cxx::__enable_if<__is_integer<_Tp>::__value,
 275:/usr/arm-none-eabi/include/c++/15.2.0/cmath ****                                     double>::__type
 276:/usr/arm-none-eabi/include/c++/15.2.0/cmath ****     floor(_Tp __x)
 277:/usr/arm-none-eabi/include/c++/15.2.0/cmath ****     { return __builtin_floor(__x); }
 278:/usr/arm-none-eabi/include/c++/15.2.0/cmath **** 
 279:/usr/arm-none-eabi/include/c++/15.2.0/cmath ****   using ::fmod;
 280:/usr/arm-none-eabi/include/c++/15.2.0/cmath **** 
 281:/usr/arm-none-eabi/include/c++/15.2.0/cmath **** #ifndef __CORRECT_ISO_CPP_MATH_H_PROTO
 282:/usr/arm-none-eabi/include/c++/15.2.0/cmath ****   inline _GLIBCXX_CONSTEXPR float
 283:/usr/arm-none-eabi/include/c++/15.2.0/cmath ****   fmod(float __x, float __y)
 284:/usr/arm-none-eabi/include/c++/15.2.0/cmath ****   { return __builtin_fmodf(__x, __y); }
 285:/usr/arm-none-eabi/include/c++/15.2.0/cmath **** 
 286:/usr/arm-none-eabi/include/c++/15.2.0/cmath ****   inline _GLIBCXX_CONSTEXPR long double
 287:/usr/arm-none-eabi/include/c++/15.2.0/cmath ****   fmod(long double __x, long double __y)
 288:/usr/arm-none-eabi/include/c++/15.2.0/cmath ****   { return __builtin_fmodl(__x, __y); }
 289:/usr/arm-none-eabi/include/c++/15.2.0/cmath **** #endif
 290:/usr/arm-none-eabi/include/c++/15.2.0/cmath **** 
 291:/usr/arm-none-eabi/include/c++/15.2.0/cmath ****   using ::frexp;
 292:/usr/arm-none-eabi/include/c++/15.2.0/cmath **** 
 293:/usr/arm-none-eabi/include/c++/15.2.0/cmath **** #ifndef __CORRECT_ISO_CPP_MATH_H_PROTO
 294:/usr/arm-none-eabi/include/c++/15.2.0/cmath ****   inline float
 295:/usr/arm-none-eabi/include/c++/15.2.0/cmath ****   frexp(float __x, int* __exp)
 296:/usr/arm-none-eabi/include/c++/15.2.0/cmath ****   { return __builtin_frexpf(__x, __exp); }
 297:/usr/arm-none-eabi/include/c++/15.2.0/cmath **** 
 298:/usr/arm-none-eabi/include/c++/15.2.0/cmath ****   inline long double
 299:/usr/arm-none-eabi/include/c++/15.2.0/cmath ****   frexp(long double __x, int* __exp)
 300:/usr/arm-none-eabi/include/c++/15.2.0/cmath ****   { return __builtin_frexpl(__x, __exp); }
 301:/usr/arm-none-eabi/include/c++/15.2.0/cmath **** #endif
 302:/usr/arm-none-eabi/include/c++/15.2.0/cmath **** 
 303:/usr/arm-none-eabi/include/c++/15.2.0/cmath ****   template<typename _Tp>
 304:/usr/arm-none-eabi/include/c++/15.2.0/cmath ****     inline _GLIBCXX_CONSTEXPR
 305:/usr/arm-none-eabi/include/c++/15.2.0/cmath ****     typename __gnu_cxx::__enable_if<__is_integer<_Tp>::__value, 
 306:/usr/arm-none-eabi/include/c++/15.2.0/cmath ****                                     double>::__type
 307:/usr/arm-none-eabi/include/c++/15.2.0/cmath ****     frexp(_Tp __x, int* __exp)
 308:/usr/arm-none-eabi/include/c++/15.2.0/cmath ****     { return __builtin_frexp(__x, __exp); }
 309:/usr/arm-none-eabi/include/c++/15.2.0/cmath **** 
 310:/usr/arm-none-eabi/include/c++/15.2.0/cmath ****   using ::ldexp;
 311:/usr/arm-none-eabi/include/c++/15.2.0/cmath **** 
 312:/usr/arm-none-eabi/include/c++/15.2.0/cmath **** #ifndef __CORRECT_ISO_CPP_MATH_H_PROTO
 313:/usr/arm-none-eabi/include/c++/15.2.0/cmath ****   inline _GLIBCXX_CONSTEXPR float
 314:/usr/arm-none-eabi/include/c++/15.2.0/cmath ****   ldexp(float __x, int __exp)
 315:/usr/arm-none-eabi/include/c++/15.2.0/cmath ****   { return __builtin_ldexpf(__x, __exp); }
 316:/usr/arm-none-eabi/include/c++/15.2.0/cmath **** 
 317:/usr/arm-none-eabi/include/c++/15.2.0/cmath ****   inline _GLIBCXX_CONSTEXPR long double
 318:/usr/arm-none-eabi/include/c++/15.2.0/cmath ****   ldexp(long double __x, int __exp)
 319:/usr/arm-none-eabi/include/c++/15.2.0/cmath ****   { return __builtin_ldexpl(__x, __exp); }
 320:/usr/arm-none-eabi/include/c++/15.2.0/cmath **** #endif
 321:/usr/arm-none-eabi/include/c++/15.2.0/cmath **** 
 322:/usr/arm-none-eabi/include/c++/15.2.0/cmath ****   template<typename _Tp>
 323:/usr/arm-none-eabi/include/c++/15.2.0/cmath ****     inline _GLIBCXX_CONSTEXPR
ARM GAS  /tmp/ccRb3mjQ.s 			page 65


 324:/usr/arm-none-eabi/include/c++/15.2.0/cmath ****     typename __gnu_cxx::__enable_if<__is_integer<_Tp>::__value, 
 325:/usr/arm-none-eabi/include/c++/15.2.0/cmath ****                                     double>::__type
 326:/usr/arm-none-eabi/include/c++/15.2.0/cmath ****     ldexp(_Tp __x, int __exp)
 327:/usr/arm-none-eabi/include/c++/15.2.0/cmath ****     { return __builtin_ldexp(__x, __exp); }
 328:/usr/arm-none-eabi/include/c++/15.2.0/cmath **** 
 329:/usr/arm-none-eabi/include/c++/15.2.0/cmath ****   using ::log;
 330:/usr/arm-none-eabi/include/c++/15.2.0/cmath **** 
 331:/usr/arm-none-eabi/include/c++/15.2.0/cmath **** #ifndef __CORRECT_ISO_CPP_MATH_H_PROTO
 332:/usr/arm-none-eabi/include/c++/15.2.0/cmath ****   inline _GLIBCXX_CONSTEXPR float
 333:/usr/arm-none-eabi/include/c++/15.2.0/cmath ****   log(float __x)
 334:/usr/arm-none-eabi/include/c++/15.2.0/cmath ****   { return __builtin_logf(__x); }
 335:/usr/arm-none-eabi/include/c++/15.2.0/cmath **** 
 336:/usr/arm-none-eabi/include/c++/15.2.0/cmath ****   inline _GLIBCXX_CONSTEXPR long double
 337:/usr/arm-none-eabi/include/c++/15.2.0/cmath ****   log(long double __x)
 338:/usr/arm-none-eabi/include/c++/15.2.0/cmath ****   { return __builtin_logl(__x); }
 339:/usr/arm-none-eabi/include/c++/15.2.0/cmath **** #endif
 340:/usr/arm-none-eabi/include/c++/15.2.0/cmath **** 
 341:/usr/arm-none-eabi/include/c++/15.2.0/cmath ****   template<typename _Tp>
 342:/usr/arm-none-eabi/include/c++/15.2.0/cmath ****     inline _GLIBCXX_CONSTEXPR
 343:/usr/arm-none-eabi/include/c++/15.2.0/cmath ****     typename __gnu_cxx::__enable_if<__is_integer<_Tp>::__value, 
 344:/usr/arm-none-eabi/include/c++/15.2.0/cmath ****                                     double>::__type
 345:/usr/arm-none-eabi/include/c++/15.2.0/cmath ****     log(_Tp __x)
 346:/usr/arm-none-eabi/include/c++/15.2.0/cmath ****     { return __builtin_log(__x); }
 347:/usr/arm-none-eabi/include/c++/15.2.0/cmath **** 
 348:/usr/arm-none-eabi/include/c++/15.2.0/cmath ****   using ::log10;
 349:/usr/arm-none-eabi/include/c++/15.2.0/cmath **** 
 350:/usr/arm-none-eabi/include/c++/15.2.0/cmath **** #ifndef __CORRECT_ISO_CPP_MATH_H_PROTO
 351:/usr/arm-none-eabi/include/c++/15.2.0/cmath ****   inline _GLIBCXX_CONSTEXPR float
 352:/usr/arm-none-eabi/include/c++/15.2.0/cmath ****   log10(float __x)
 353:/usr/arm-none-eabi/include/c++/15.2.0/cmath ****   { return __builtin_log10f(__x); }
 354:/usr/arm-none-eabi/include/c++/15.2.0/cmath **** 
 355:/usr/arm-none-eabi/include/c++/15.2.0/cmath ****   inline _GLIBCXX_CONSTEXPR long double
 356:/usr/arm-none-eabi/include/c++/15.2.0/cmath ****   log10(long double __x)
 357:/usr/arm-none-eabi/include/c++/15.2.0/cmath ****   { return __builtin_log10l(__x); }
 358:/usr/arm-none-eabi/include/c++/15.2.0/cmath **** #endif
 359:/usr/arm-none-eabi/include/c++/15.2.0/cmath **** 
 360:/usr/arm-none-eabi/include/c++/15.2.0/cmath ****   template<typename _Tp>
 361:/usr/arm-none-eabi/include/c++/15.2.0/cmath ****     inline _GLIBCXX_CONSTEXPR
 362:/usr/arm-none-eabi/include/c++/15.2.0/cmath ****     typename __gnu_cxx::__enable_if<__is_integer<_Tp>::__value,
 363:/usr/arm-none-eabi/include/c++/15.2.0/cmath ****                                     double>::__type
 364:/usr/arm-none-eabi/include/c++/15.2.0/cmath ****     log10(_Tp __x)
 365:/usr/arm-none-eabi/include/c++/15.2.0/cmath ****     { return __builtin_log10(__x); }
 366:/usr/arm-none-eabi/include/c++/15.2.0/cmath **** 
 367:/usr/arm-none-eabi/include/c++/15.2.0/cmath ****   using ::modf;
 368:/usr/arm-none-eabi/include/c++/15.2.0/cmath **** 
 369:/usr/arm-none-eabi/include/c++/15.2.0/cmath **** #ifndef __CORRECT_ISO_CPP_MATH_H_PROTO
 370:/usr/arm-none-eabi/include/c++/15.2.0/cmath ****   inline float
 371:/usr/arm-none-eabi/include/c++/15.2.0/cmath ****   modf(float __x, float* __iptr)
 372:/usr/arm-none-eabi/include/c++/15.2.0/cmath ****   { return __builtin_modff(__x, __iptr); }
 373:/usr/arm-none-eabi/include/c++/15.2.0/cmath **** 
 374:/usr/arm-none-eabi/include/c++/15.2.0/cmath ****   inline long double
 375:/usr/arm-none-eabi/include/c++/15.2.0/cmath ****   modf(long double __x, long double* __iptr)
 376:/usr/arm-none-eabi/include/c++/15.2.0/cmath ****   { return __builtin_modfl(__x, __iptr); }
 377:/usr/arm-none-eabi/include/c++/15.2.0/cmath **** #endif
 378:/usr/arm-none-eabi/include/c++/15.2.0/cmath **** 
 379:/usr/arm-none-eabi/include/c++/15.2.0/cmath ****   using ::pow;
 380:/usr/arm-none-eabi/include/c++/15.2.0/cmath **** 
ARM GAS  /tmp/ccRb3mjQ.s 			page 66


 381:/usr/arm-none-eabi/include/c++/15.2.0/cmath **** #ifndef __CORRECT_ISO_CPP_MATH_H_PROTO
 382:/usr/arm-none-eabi/include/c++/15.2.0/cmath ****   inline _GLIBCXX_CONSTEXPR float
 383:/usr/arm-none-eabi/include/c++/15.2.0/cmath ****   pow(float __x, float __y)
 384:/usr/arm-none-eabi/include/c++/15.2.0/cmath ****   { return __builtin_powf(__x, __y); }
 1817              		.loc 9 384 26 view .LVU533
 1818 0046 B0EE000A 		vmov.f32	s0, #2.0e+0
 1819 004a 8DED026A 		vstr.32	s12, [sp, #8]	@ int
 1820 004e CDED015A 		vstr.32	s11, [sp, #4]	@ int
 1821 0052 C7EEA00A 		vdiv.f32	s1, s15, s1
 1822 0056 CDED006A 		vstr.32	s13, [sp]	@ int
 1823              	.LBE526:
 1824              	.LBE525:
 144:Util/../Util/pitch_shifter.h ****             ratio = pow(2.f, transpose_ / 12.f);
 1825              		.loc 4 144 24 discriminator 4 view .LVU534
 1826 005a C4ED1B7A 		vstr.32	s15, [r4, #108]
 145:Util/../Util/pitch_shifter.h ****             mod_freq_ = ((ratio - 1.0f) * sr_) / del_size_;
 1827              		.loc 4 145 13 is_stmt 1 view .LVU535
 1828              	.LVL104:
 1829              	.LBB528:
 1830              	.LBI525:
 383:/usr/arm-none-eabi/include/c++/15.2.0/cmath ****   { return __builtin_powf(__x, __y); }
 1831              		.loc 9 383 3 view .LVU536
 1832              	.LBB527:
 1833              		.loc 9 384 5 view .LVU537
 1834              		.loc 9 384 26 is_stmt 0 view .LVU538
 1835 005e FFF7FEFF 		bl	powf
 1836              	.LVL105:
 1837              		.loc 9 384 26 view .LVU539
 1838              	.LBE527:
 1839              	.LBE528:
 1840              		.loc 4 146 13 is_stmt 1 view .LVU540
 1841              		.loc 4 146 41 is_stmt 0 view .LVU541
 1842 0062 DDED006A 		vldr.32	s13, [sp]	@ int
 1843              		.loc 4 146 48 view .LVU542
 1844 0066 07EE905A 		vmov	s15, r5	@ int
 1845              	.LBB529:
 1846              	.LBB514:
 1847              		.loc 6 64 25 view .LVU543
 1848 006a 9FED6A7A 		vldr.32	s14, .L158+28
 1849              		.loc 6 64 34 view .LVU544
 1850 006e DDED015A 		vldr.32	s11, [sp, #4]	@ int
 1851              	.LBE514:
 1852              	.LBE529:
 1853              		.loc 4 146 33 view .LVU545
 1854 0072 B7EE005A 		vmov.f32	s10, #1.0e+0
 1855              	.LBB530:
 1856              	.LBB521:
 1857              		.loc 6 64 34 view .LVU546
 1858 0076 9DED026A 		vldr.32	s12, [sp, #8]	@ int
 1859              	.LBE521:
 1860              	.LBE530:
 1861              		.loc 4 146 48 view .LVU547
 1862 007a F8EE677A 		vcvt.f32.u32	s15, s15
 147:Util/../Util/pitch_shifter.h ****             phs_[0].SetFreq(mod_freq_);
 148:Util/../Util/pitch_shifter.h ****             phs_[1].SetFreq(mod_freq_);
 149:Util/../Util/pitch_shifter.h ****             if (force_recalc_) {
 1863              		.loc 4 149 13 view .LVU548
ARM GAS  /tmp/ccRb3mjQ.s 			page 67


 1864 007e 039B     		ldr	r3, [sp, #12]
 146:Util/../Util/pitch_shifter.h ****             phs_[0].SetFreq(mod_freq_);
 1865              		.loc 4 146 33 view .LVU549
 1866 0080 30EE450A 		vsub.f32	s0, s0, s10
 1867              	.LVL106:
 146:Util/../Util/pitch_shifter.h ****             phs_[0].SetFreq(mod_freq_);
 1868              		.loc 4 146 41 view .LVU550
 1869 0084 20EE260A 		vmul.f32	s0, s0, s13
 146:Util/../Util/pitch_shifter.h ****             phs_[0].SetFreq(mod_freq_);
 1870              		.loc 4 146 48 view .LVU551
 1871 0088 C0EE276A 		vdiv.f32	s13, s0, s15
 1872              	.LBB531:
 1873              	.LBB515:
 1874              		.loc 6 64 25 view .LVU552
 1875 008c 66EE877A 		vmul.f32	s15, s13, s14
 1876              	.LBE515:
 1877              	.LBE531:
 146:Util/../Util/pitch_shifter.h ****             phs_[0].SetFreq(mod_freq_);
 1878              		.loc 4 146 23 view .LVU553
 1879 0090 C4ED0B6A 		vstr.32	s13, [r4, #44]
 147:Util/../Util/pitch_shifter.h ****             phs_[0].SetFreq(mod_freq_);
 1880              		.loc 4 147 13 is_stmt 1 view .LVU554
 1881              	.LVL107:
 1882              	.LBB532:
 1883              	.LBI512:
  62:Util/../Util/phasor.h ****         freq_ = freq;
 1884              		.loc 6 62 10 view .LVU555
 1885              	.LBB516:
  63:Util/../Util/phasor.h ****         inc_ = (TWOPI_F * freq_) / sample_rate_;
 1886              		.loc 6 63 9 view .LVU556
  63:Util/../Util/phasor.h ****         inc_ = (TWOPI_F * freq_) / sample_rate_;
 1887              		.loc 6 63 15 is_stmt 0 view .LVU557
 1888 0094 C4ED0F6A 		vstr.32	s13, [r4, #60]
 1889              		.loc 6 64 9 is_stmt 1 view .LVU558
 1890              	.LBE516:
 1891              	.LBE532:
 1892              	.LBB533:
 1893              	.LBB522:
  63:Util/../Util/phasor.h ****         inc_ = (TWOPI_F * freq_) / sample_rate_;
 1894              		.loc 6 63 15 is_stmt 0 view .LVU559
 1895 0098 C4ED136A 		vstr.32	s13, [r4, #76]
 1896              		.loc 6 64 34 view .LVU560
 1897 009c 87EE867A 		vdiv.f32	s14, s15, s12
 1898              	.LBE522:
 1899              	.LBE533:
 1900              	.LBB534:
 1901              	.LBB517:
 1902 00a0 C7EEA56A 		vdiv.f32	s13, s15, s11
 1903              	.LVL108:
 1904              		.loc 6 64 34 view .LVU561
 1905              	.LBE517:
 1906              	.LBE534:
 1907              	.LBB535:
 1908              	.LBB523:
 1909              		.loc 6 64 14 view .LVU562
 1910 00a4 84ED157A 		vstr.32	s14, [r4, #84]
 1911              	.LBE523:
ARM GAS  /tmp/ccRb3mjQ.s 			page 68


 1912              	.LBE535:
 1913              	.LBB536:
 1914              	.LBB518:
 1915 00a8 C4ED116A 		vstr.32	s13, [r4, #68]
 1916              	.LVL109:
 1917              		.loc 6 64 14 view .LVU563
 1918              	.LBE518:
 1919              	.LBE536:
 148:Util/../Util/pitch_shifter.h ****             if (force_recalc_) {
 1920              		.loc 4 148 13 is_stmt 1 view .LVU564
 1921              	.LBB537:
 1922              	.LBI519:
  62:Util/../Util/phasor.h ****         freq_ = freq;
 1923              		.loc 6 62 10 view .LVU565
 1924              	.LBB524:
  63:Util/../Util/phasor.h ****         inc_ = (TWOPI_F * freq_) / sample_rate_;
 1925              		.loc 6 63 9 view .LVU566
 1926              		.loc 6 64 9 view .LVU567
 1927              		.loc 6 64 9 is_stmt 0 view .LVU568
 1928              	.LBE524:
 1929              	.LBE537:
 1930              		.loc 4 149 13 is_stmt 1 view .LVU569
 1931 00ac 13B1     		cbz	r3, .L125
 150:Util/../Util/pitch_shifter.h ****                 force_recalc_ = false;
 1932              		.loc 4 150 17 view .LVU570
 1933              		.loc 4 150 31 is_stmt 0 view .LVU571
 1934 00ae 0023     		movs	r3, #0
 1935 00b0 84F83430 		strb	r3, [r4, #52]
 1936              	.LVL110:
 1937              	.L125:
 1938              		.loc 4 150 31 view .LVU572
 1939              	.LBE511:
 1940              	.LBE510:
 141:pitch_shifter_module.cpp **** 
 1941              		.loc 1 141 1 view .LVU573
 1942 00b4 05B0     		add	sp, sp, #20
 1943              		.cfi_remember_state
 1944              		.cfi_def_cfa_offset 12
 1945              		@ sp needed
 1946 00b6 30BD     		pop	{r4, r5, pc}
 1947              	.LVL111:
 1948              	.L155:
 1949              		.cfi_restore_state
 1950              	.LBB543:
 1951              	.LBB538:
 143:Util/../Util/pitch_shifter.h ****             transpose_ = quantize_semitones_ ? (int32_t)transpose : transpose;
 1952              		.loc 4 143 37 discriminator 1 view .LVU574
 1953 00b8 002B     		cmp	r3, #0
 1954 00ba B3D1     		bne	.L133
 1955 00bc FAE7     		b	.L125
 1956              	.LVL112:
 1957              	.L154:
 143:Util/../Util/pitch_shifter.h ****             transpose_ = quantize_semitones_ ? (int32_t)transpose : transpose;
 1958              		.loc 4 143 37 discriminator 1 view .LVU575
 1959              	.LBE538:
 1960              	.LBE543:
 1961              	.LBB544:
ARM GAS  /tmp/ccRb3mjQ.s 			page 69


 1962              	.LBB427:
 131:pitch_shifter_module.cpp **** 
 1963              		.loc 1 131 9 is_stmt 1 view .LVU576
 1964              	.LBB428:
 1965              	.LBI428:
 1966              		.file 10 "/usr/arm-none-eabi/include/c++/15.2.0/bits/std_abs.h"
   1:/usr/arm-none-eabi/include/c++/15.2.0/bits/std_abs.h **** // -*- C++ -*- C library enhancements header.
   2:/usr/arm-none-eabi/include/c++/15.2.0/bits/std_abs.h **** 
   3:/usr/arm-none-eabi/include/c++/15.2.0/bits/std_abs.h **** // Copyright (C) 2016-2025 Free Software Foundation, Inc.
   4:/usr/arm-none-eabi/include/c++/15.2.0/bits/std_abs.h **** //
   5:/usr/arm-none-eabi/include/c++/15.2.0/bits/std_abs.h **** // This file is part of the GNU ISO C++ Library.  This library is free
   6:/usr/arm-none-eabi/include/c++/15.2.0/bits/std_abs.h **** // software; you can redistribute it and/or modify it under the
   7:/usr/arm-none-eabi/include/c++/15.2.0/bits/std_abs.h **** // terms of the GNU General Public License as published by the
   8:/usr/arm-none-eabi/include/c++/15.2.0/bits/std_abs.h **** // Free Software Foundation; either version 3, or (at your option)
   9:/usr/arm-none-eabi/include/c++/15.2.0/bits/std_abs.h **** // any later version.
  10:/usr/arm-none-eabi/include/c++/15.2.0/bits/std_abs.h **** 
  11:/usr/arm-none-eabi/include/c++/15.2.0/bits/std_abs.h **** // This library is distributed in the hope that it will be useful,
  12:/usr/arm-none-eabi/include/c++/15.2.0/bits/std_abs.h **** // but WITHOUT ANY WARRANTY; without even the implied warranty of
  13:/usr/arm-none-eabi/include/c++/15.2.0/bits/std_abs.h **** // MERCHANTABILITY or FITNESS FOR A PARTICULAR PURPOSE.  See the
  14:/usr/arm-none-eabi/include/c++/15.2.0/bits/std_abs.h **** // GNU General Public License for more details.
  15:/usr/arm-none-eabi/include/c++/15.2.0/bits/std_abs.h **** 
  16:/usr/arm-none-eabi/include/c++/15.2.0/bits/std_abs.h **** // Under Section 7 of GPL version 3, you are granted additional
  17:/usr/arm-none-eabi/include/c++/15.2.0/bits/std_abs.h **** // permissions described in the GCC Runtime Library Exception, version
  18:/usr/arm-none-eabi/include/c++/15.2.0/bits/std_abs.h **** // 3.1, as published by the Free Software Foundation.
  19:/usr/arm-none-eabi/include/c++/15.2.0/bits/std_abs.h **** 
  20:/usr/arm-none-eabi/include/c++/15.2.0/bits/std_abs.h **** // You should have received a copy of the GNU General Public License and
  21:/usr/arm-none-eabi/include/c++/15.2.0/bits/std_abs.h **** // a copy of the GCC Runtime Library Exception along with this program;
  22:/usr/arm-none-eabi/include/c++/15.2.0/bits/std_abs.h **** // see the files COPYING3 and COPYING.RUNTIME respectively.  If not, see
  23:/usr/arm-none-eabi/include/c++/15.2.0/bits/std_abs.h **** // <http://www.gnu.org/licenses/>.
  24:/usr/arm-none-eabi/include/c++/15.2.0/bits/std_abs.h **** 
  25:/usr/arm-none-eabi/include/c++/15.2.0/bits/std_abs.h **** /** @file include/bits/std_abs.h
  26:/usr/arm-none-eabi/include/c++/15.2.0/bits/std_abs.h ****  *  This is an internal header file, included by other library headers.
  27:/usr/arm-none-eabi/include/c++/15.2.0/bits/std_abs.h ****  *  Do not attempt to use it directly. @headername{cmath, cstdlib}
  28:/usr/arm-none-eabi/include/c++/15.2.0/bits/std_abs.h ****  */
  29:/usr/arm-none-eabi/include/c++/15.2.0/bits/std_abs.h **** 
  30:/usr/arm-none-eabi/include/c++/15.2.0/bits/std_abs.h **** #ifndef _GLIBCXX_BITS_STD_ABS_H
  31:/usr/arm-none-eabi/include/c++/15.2.0/bits/std_abs.h **** #define _GLIBCXX_BITS_STD_ABS_H
  32:/usr/arm-none-eabi/include/c++/15.2.0/bits/std_abs.h **** 
  33:/usr/arm-none-eabi/include/c++/15.2.0/bits/std_abs.h **** #ifdef _GLIBCXX_SYSHDR
  34:/usr/arm-none-eabi/include/c++/15.2.0/bits/std_abs.h **** #pragma GCC system_header
  35:/usr/arm-none-eabi/include/c++/15.2.0/bits/std_abs.h **** #endif
  36:/usr/arm-none-eabi/include/c++/15.2.0/bits/std_abs.h **** 
  37:/usr/arm-none-eabi/include/c++/15.2.0/bits/std_abs.h **** #include <bits/c++config.h>
  38:/usr/arm-none-eabi/include/c++/15.2.0/bits/std_abs.h **** 
  39:/usr/arm-none-eabi/include/c++/15.2.0/bits/std_abs.h **** #pragma GCC diagnostic push
  40:/usr/arm-none-eabi/include/c++/15.2.0/bits/std_abs.h **** #pragma GCC diagnostic ignored "-Wpedantic" // include_next
  41:/usr/arm-none-eabi/include/c++/15.2.0/bits/std_abs.h **** #pragma GCC diagnostic ignored "-Wlong-long"
  42:/usr/arm-none-eabi/include/c++/15.2.0/bits/std_abs.h **** 
  43:/usr/arm-none-eabi/include/c++/15.2.0/bits/std_abs.h **** #define _GLIBCXX_INCLUDE_NEXT_C_HEADERS
  44:/usr/arm-none-eabi/include/c++/15.2.0/bits/std_abs.h **** #include_next <stdlib.h>
  45:/usr/arm-none-eabi/include/c++/15.2.0/bits/std_abs.h **** #ifdef __CORRECT_ISO_CPP_MATH_H_PROTO
  46:/usr/arm-none-eabi/include/c++/15.2.0/bits/std_abs.h **** # include_next <math.h>
  47:/usr/arm-none-eabi/include/c++/15.2.0/bits/std_abs.h **** #endif
  48:/usr/arm-none-eabi/include/c++/15.2.0/bits/std_abs.h **** #undef _GLIBCXX_INCLUDE_NEXT_C_HEADERS
  49:/usr/arm-none-eabi/include/c++/15.2.0/bits/std_abs.h **** 
  50:/usr/arm-none-eabi/include/c++/15.2.0/bits/std_abs.h **** #undef abs
  51:/usr/arm-none-eabi/include/c++/15.2.0/bits/std_abs.h **** 
ARM GAS  /tmp/ccRb3mjQ.s 			page 70


  52:/usr/arm-none-eabi/include/c++/15.2.0/bits/std_abs.h **** extern "C++"
  53:/usr/arm-none-eabi/include/c++/15.2.0/bits/std_abs.h **** {
  54:/usr/arm-none-eabi/include/c++/15.2.0/bits/std_abs.h **** namespace std _GLIBCXX_VISIBILITY(default)
  55:/usr/arm-none-eabi/include/c++/15.2.0/bits/std_abs.h **** {
  56:/usr/arm-none-eabi/include/c++/15.2.0/bits/std_abs.h **** _GLIBCXX_BEGIN_NAMESPACE_VERSION
  57:/usr/arm-none-eabi/include/c++/15.2.0/bits/std_abs.h **** 
  58:/usr/arm-none-eabi/include/c++/15.2.0/bits/std_abs.h ****   using ::abs;
  59:/usr/arm-none-eabi/include/c++/15.2.0/bits/std_abs.h **** 
  60:/usr/arm-none-eabi/include/c++/15.2.0/bits/std_abs.h **** #ifndef __CORRECT_ISO_CPP_STDLIB_H_PROTO
  61:/usr/arm-none-eabi/include/c++/15.2.0/bits/std_abs.h ****   inline long
  62:/usr/arm-none-eabi/include/c++/15.2.0/bits/std_abs.h ****   abs(long __i) { return __builtin_labs(__i); }
  63:/usr/arm-none-eabi/include/c++/15.2.0/bits/std_abs.h **** #endif
  64:/usr/arm-none-eabi/include/c++/15.2.0/bits/std_abs.h **** 
  65:/usr/arm-none-eabi/include/c++/15.2.0/bits/std_abs.h **** #ifdef _GLIBCXX_USE_LONG_LONG
  66:/usr/arm-none-eabi/include/c++/15.2.0/bits/std_abs.h ****   inline long long
  67:/usr/arm-none-eabi/include/c++/15.2.0/bits/std_abs.h ****   abs(long long __x) { return __builtin_llabs (__x); }
  68:/usr/arm-none-eabi/include/c++/15.2.0/bits/std_abs.h **** #endif
  69:/usr/arm-none-eabi/include/c++/15.2.0/bits/std_abs.h **** 
  70:/usr/arm-none-eabi/include/c++/15.2.0/bits/std_abs.h **** // _GLIBCXX_RESOLVE_LIB_DEFECTS
  71:/usr/arm-none-eabi/include/c++/15.2.0/bits/std_abs.h **** // 2192. Validity and return type of std::abs(0u) is unclear
  72:/usr/arm-none-eabi/include/c++/15.2.0/bits/std_abs.h **** // 2294. <cstdlib> should declare abs(double)
  73:/usr/arm-none-eabi/include/c++/15.2.0/bits/std_abs.h **** // 2735. std::abs(short), std::abs(signed char) and others should return int
  74:/usr/arm-none-eabi/include/c++/15.2.0/bits/std_abs.h **** 
  75:/usr/arm-none-eabi/include/c++/15.2.0/bits/std_abs.h **** #ifndef __CORRECT_ISO_CPP_MATH_H_PROTO
  76:/usr/arm-none-eabi/include/c++/15.2.0/bits/std_abs.h ****   inline _GLIBCXX_CONSTEXPR double
  77:/usr/arm-none-eabi/include/c++/15.2.0/bits/std_abs.h ****   abs(double __x)
  78:/usr/arm-none-eabi/include/c++/15.2.0/bits/std_abs.h ****   { return __builtin_fabs(__x); }
  79:/usr/arm-none-eabi/include/c++/15.2.0/bits/std_abs.h **** 
  80:/usr/arm-none-eabi/include/c++/15.2.0/bits/std_abs.h ****   inline _GLIBCXX_CONSTEXPR float
  81:/usr/arm-none-eabi/include/c++/15.2.0/bits/std_abs.h ****   abs(float __x)
 1967              		.loc 10 81 3 view .LVU577
 1968              	.LBB429:
  82:/usr/arm-none-eabi/include/c++/15.2.0/bits/std_abs.h ****   { return __builtin_fabsf(__x); }
 1969              		.loc 10 82 5 view .LVU578
 1970              		.loc 10 82 5 is_stmt 0 view .LVU579
 1971              	.LBE429:
 1972              	.LBE428:
 131:pitch_shifter_module.cpp **** 
 1973              		.loc 1 131 60 discriminator 1 view .LVU580
 1974 00be F7EE005A 		vmov.f32	s11, #1.0e+0
 1975              	.LBB431:
 1976              	.LBB430:
 1977              		.loc 10 82 31 view .LVU581
 1978 00c2 B0EEC07A 		vabs.f32	s14, s0
 1979              	.LBE430:
 1980              	.LBE431:
 131:pitch_shifter_module.cpp **** 
 1981              		.loc 1 131 70 discriminator 1 view .LVU582
 1982 00c6 F2EE066A 		vmov.f32	s13, #1.1e+1
 131:pitch_shifter_module.cpp **** 
 1983              		.loc 1 131 60 discriminator 1 view .LVU583
 1984 00ca 37EE657A 		vsub.f32	s14, s14, s11
 131:pitch_shifter_module.cpp **** 
 1985              		.loc 1 131 70 discriminator 1 view .LVU584
 1986 00ce 87EE265A 		vdiv.f32	s10, s14, s13
 1987              	.LVL113:
 135:pitch_shifter_module.cpp **** 
ARM GAS  /tmp/ccRb3mjQ.s 			page 71


 1988              		.loc 1 135 9 is_stmt 1 view .LVU585
 1989              	.LBB432:
 1990              	.LBI432:
 385:/usr/arm-none-eabi/include/c++/15.2.0/cmath **** 
 386:/usr/arm-none-eabi/include/c++/15.2.0/cmath ****   inline _GLIBCXX_CONSTEXPR long double
 387:/usr/arm-none-eabi/include/c++/15.2.0/cmath ****   pow(long double __x, long double __y)
 388:/usr/arm-none-eabi/include/c++/15.2.0/cmath ****   { return __builtin_powl(__x, __y); }
 389:/usr/arm-none-eabi/include/c++/15.2.0/cmath **** 
 390:/usr/arm-none-eabi/include/c++/15.2.0/cmath **** #if __cplusplus < 201103L
 391:/usr/arm-none-eabi/include/c++/15.2.0/cmath ****   // _GLIBCXX_RESOLVE_LIB_DEFECTS
 392:/usr/arm-none-eabi/include/c++/15.2.0/cmath ****   // DR 550. What should the return type of pow(float,int) be?
 393:/usr/arm-none-eabi/include/c++/15.2.0/cmath ****   inline double
 394:/usr/arm-none-eabi/include/c++/15.2.0/cmath ****   pow(double __x, int __i)
 395:/usr/arm-none-eabi/include/c++/15.2.0/cmath ****   { return __builtin_powi(__x, __i); }
 396:/usr/arm-none-eabi/include/c++/15.2.0/cmath **** 
 397:/usr/arm-none-eabi/include/c++/15.2.0/cmath ****   inline float
 398:/usr/arm-none-eabi/include/c++/15.2.0/cmath ****   pow(float __x, int __n)
 399:/usr/arm-none-eabi/include/c++/15.2.0/cmath ****   { return __builtin_powif(__x, __n); }
 400:/usr/arm-none-eabi/include/c++/15.2.0/cmath **** 
 401:/usr/arm-none-eabi/include/c++/15.2.0/cmath ****   inline long double
 402:/usr/arm-none-eabi/include/c++/15.2.0/cmath ****   pow(long double __x, int __n)
 403:/usr/arm-none-eabi/include/c++/15.2.0/cmath ****   { return __builtin_powil(__x, __n); }
 404:/usr/arm-none-eabi/include/c++/15.2.0/cmath **** #endif
 405:/usr/arm-none-eabi/include/c++/15.2.0/cmath **** #endif
 406:/usr/arm-none-eabi/include/c++/15.2.0/cmath **** 
 407:/usr/arm-none-eabi/include/c++/15.2.0/cmath ****   using ::sin;
 408:/usr/arm-none-eabi/include/c++/15.2.0/cmath **** 
 409:/usr/arm-none-eabi/include/c++/15.2.0/cmath **** #ifndef __CORRECT_ISO_CPP_MATH_H_PROTO
 410:/usr/arm-none-eabi/include/c++/15.2.0/cmath ****   inline _GLIBCXX_CONSTEXPR float
 411:/usr/arm-none-eabi/include/c++/15.2.0/cmath ****   sin(float __x)
 412:/usr/arm-none-eabi/include/c++/15.2.0/cmath ****   { return __builtin_sinf(__x); }
 413:/usr/arm-none-eabi/include/c++/15.2.0/cmath **** 
 414:/usr/arm-none-eabi/include/c++/15.2.0/cmath ****   inline _GLIBCXX_CONSTEXPR long double
 415:/usr/arm-none-eabi/include/c++/15.2.0/cmath ****   sin(long double __x)
 416:/usr/arm-none-eabi/include/c++/15.2.0/cmath ****   { return __builtin_sinl(__x); }
 417:/usr/arm-none-eabi/include/c++/15.2.0/cmath **** #endif
 418:/usr/arm-none-eabi/include/c++/15.2.0/cmath **** 
 419:/usr/arm-none-eabi/include/c++/15.2.0/cmath ****   template<typename _Tp>
 420:/usr/arm-none-eabi/include/c++/15.2.0/cmath ****     inline _GLIBCXX_CONSTEXPR
 421:/usr/arm-none-eabi/include/c++/15.2.0/cmath ****     typename __gnu_cxx::__enable_if<__is_integer<_Tp>::__value, 
 422:/usr/arm-none-eabi/include/c++/15.2.0/cmath ****                                     double>::__type
 423:/usr/arm-none-eabi/include/c++/15.2.0/cmath ****     sin(_Tp __x)
 424:/usr/arm-none-eabi/include/c++/15.2.0/cmath ****     { return __builtin_sin(__x); }
 425:/usr/arm-none-eabi/include/c++/15.2.0/cmath **** 
 426:/usr/arm-none-eabi/include/c++/15.2.0/cmath ****   using ::sinh;
 427:/usr/arm-none-eabi/include/c++/15.2.0/cmath **** 
 428:/usr/arm-none-eabi/include/c++/15.2.0/cmath **** #ifndef __CORRECT_ISO_CPP_MATH_H_PROTO
 429:/usr/arm-none-eabi/include/c++/15.2.0/cmath ****   inline _GLIBCXX_CONSTEXPR float
 430:/usr/arm-none-eabi/include/c++/15.2.0/cmath ****   sinh(float __x)
 431:/usr/arm-none-eabi/include/c++/15.2.0/cmath ****   { return __builtin_sinhf(__x); }
 432:/usr/arm-none-eabi/include/c++/15.2.0/cmath **** 
 433:/usr/arm-none-eabi/include/c++/15.2.0/cmath ****   inline _GLIBCXX_CONSTEXPR long double
 434:/usr/arm-none-eabi/include/c++/15.2.0/cmath ****   sinh(long double __x)
 435:/usr/arm-none-eabi/include/c++/15.2.0/cmath ****   { return __builtin_sinhl(__x); }
 436:/usr/arm-none-eabi/include/c++/15.2.0/cmath **** #endif
 437:/usr/arm-none-eabi/include/c++/15.2.0/cmath **** 
 438:/usr/arm-none-eabi/include/c++/15.2.0/cmath ****   template<typename _Tp>
ARM GAS  /tmp/ccRb3mjQ.s 			page 72


 439:/usr/arm-none-eabi/include/c++/15.2.0/cmath ****     inline _GLIBCXX_CONSTEXPR
 440:/usr/arm-none-eabi/include/c++/15.2.0/cmath ****     typename __gnu_cxx::__enable_if<__is_integer<_Tp>::__value, 
 441:/usr/arm-none-eabi/include/c++/15.2.0/cmath ****                                     double>::__type
 442:/usr/arm-none-eabi/include/c++/15.2.0/cmath ****     sinh(_Tp __x)
 443:/usr/arm-none-eabi/include/c++/15.2.0/cmath ****     { return __builtin_sinh(__x); }
 444:/usr/arm-none-eabi/include/c++/15.2.0/cmath **** 
 445:/usr/arm-none-eabi/include/c++/15.2.0/cmath ****   using ::sqrt;
 446:/usr/arm-none-eabi/include/c++/15.2.0/cmath **** 
 447:/usr/arm-none-eabi/include/c++/15.2.0/cmath **** #ifndef __CORRECT_ISO_CPP_MATH_H_PROTO
 448:/usr/arm-none-eabi/include/c++/15.2.0/cmath ****   inline _GLIBCXX_CONSTEXPR float
 449:/usr/arm-none-eabi/include/c++/15.2.0/cmath ****   sqrt(float __x)
 450:/usr/arm-none-eabi/include/c++/15.2.0/cmath ****   { return __builtin_sqrtf(__x); }
 451:/usr/arm-none-eabi/include/c++/15.2.0/cmath **** 
 452:/usr/arm-none-eabi/include/c++/15.2.0/cmath ****   inline _GLIBCXX_CONSTEXPR long double
 453:/usr/arm-none-eabi/include/c++/15.2.0/cmath ****   sqrt(long double __x)
 454:/usr/arm-none-eabi/include/c++/15.2.0/cmath ****   { return __builtin_sqrtl(__x); }
 455:/usr/arm-none-eabi/include/c++/15.2.0/cmath **** #endif
 456:/usr/arm-none-eabi/include/c++/15.2.0/cmath **** 
 457:/usr/arm-none-eabi/include/c++/15.2.0/cmath ****   template<typename _Tp>
 458:/usr/arm-none-eabi/include/c++/15.2.0/cmath ****     inline _GLIBCXX_CONSTEXPR
 459:/usr/arm-none-eabi/include/c++/15.2.0/cmath ****     typename __gnu_cxx::__enable_if<__is_integer<_Tp>::__value, 
 460:/usr/arm-none-eabi/include/c++/15.2.0/cmath ****                                     double>::__type
 461:/usr/arm-none-eabi/include/c++/15.2.0/cmath ****     sqrt(_Tp __x)
 462:/usr/arm-none-eabi/include/c++/15.2.0/cmath ****     { return __builtin_sqrt(__x); }
 463:/usr/arm-none-eabi/include/c++/15.2.0/cmath **** 
 464:/usr/arm-none-eabi/include/c++/15.2.0/cmath ****   using ::tan;
 465:/usr/arm-none-eabi/include/c++/15.2.0/cmath **** 
 466:/usr/arm-none-eabi/include/c++/15.2.0/cmath **** #ifndef __CORRECT_ISO_CPP_MATH_H_PROTO
 467:/usr/arm-none-eabi/include/c++/15.2.0/cmath ****   inline _GLIBCXX_CONSTEXPR float
 468:/usr/arm-none-eabi/include/c++/15.2.0/cmath ****   tan(float __x)
 469:/usr/arm-none-eabi/include/c++/15.2.0/cmath ****   { return __builtin_tanf(__x); }
